
lab2-test.elf:     file format elf64-littleriscv


Disassembly of section .text:

0000000080000000 <_binary_lab2_test_bin_start>:
    80000000:	68e6809b          	addiw	x1,x13,1678
    80000004:	41a880bb          	subw	x1,x17,x26
    80000008:	01628e3b          	addw	x28,x5,x22
    8000000c:	00df0cb3          	add	x25,x30,x13
    80000010:	010ac3b3          	xor	x7,x21,x16
    80000014:	400108b7          	lui	x17,0x40010
    80000018:	011888b3          	add	x17,x17,x17
    8000001c:	10088893          	addi	x17,x17,256 
    80000020:	f118a223          	sw	x17,-252(x17)
    80000024:	40010cb7          	lui	x25,0x40010
    80000028:	019c8cb3          	add	x25,x25,x25
    8000002c:	100c8c93          	addi	x25,x25,256 
    80000030:	f96c9223          	sh	x22,-124(x25)
    80000034:	40010ab7          	lui	x21,0x40010
    80000038:	015a8ab3          	add	x21,x21,x21
    8000003c:	030ad583          	lhu	x11,48(x21) 
    80000040:	3f22c593          	xori	x11,x5,1010
    80000044:	015ff333          	and	x6,x31,x21
    80000048:	412708bb          	subw	x17,x14,x18
    8000004c:	40010337          	lui	x6,0x40010
    80000050:	00630333          	add	x6,x6,x6
    80000054:	07836a83          	lwu	x21,120(x6) 
    80000058:	006d8ab3          	add	x21,x27,x6
    8000005c:	40010eb7          	lui	x29,0x40010
    80000060:	01de8eb3          	add	x29,x29,x29
    80000064:	100e8e93          	addi	x29,x29,256 
    80000068:	f70e8e03          	lb	x28,-144(x29)
    8000006c:	9c3e0e13          	addi	x28,x28,-1597
    80000070:	36d08393          	addi	x7,x1,877
    80000074:	00e170b3          	and	x1,x2,x14
    80000078:	400107b7          	lui	x15,0x40010
    8000007c:	00f787b3          	add	x15,x15,x15
    80000080:	10078793          	addi	x15,x15,256 
    80000084:	f447a883          	lw	x17,-188(x15)
    80000088:	013708bb          	addw	x17,x14,x19
    8000008c:	407f8eb3          	sub	x29,x31,x7
    80000090:	400101b7          	lui	x3,0x40010
    80000094:	003181b3          	add	x3,x3,x3
    80000098:	0301a083          	lw	x1,48(x3) 
    8000009c:	0180ee33          	or	x28,x1,x24
    800000a0:	8cae4c13          	xori	x24,x28,-1846
    800000a4:	01b9f7b3          	and	x15,x19,x27
    800000a8:	945bee13          	ori	x28,x23,-1723
    800000ac:	40010bb7          	lui	x23,0x40010
    800000b0:	017b8bb3          	add	x23,x23,x23
    800000b4:	100b8b93          	addi	x23,x23,256 
    800000b8:	fc0bda83          	lhu	x21,-64(x23)
    800000bc:	40010fb7          	lui	x31,0x40010
    800000c0:	01ff8fb3          	add	x31,x31,x31
    800000c4:	0aaf9783          	lh	x15,170(x31) 
    800000c8:	73b78393          	addi	x7,x15,1851
    800000cc:	5a918393          	addi	x7,x3,1449
    800000d0:	400104b7          	lui	x9,0x40010
    800000d4:	009484b3          	add	x9,x9,x9
    800000d8:	10048493          	addi	x9,x9,256 
    800000dc:	f434bc23          	sd	x3,-168(x9)
    800000e0:	40010637          	lui	x12,0x40010
    800000e4:	00c60633          	add	x12,x12,x12
    800000e8:	10060613          	addi	x12,x12,256 
    800000ec:	ff862a03          	lw	x20,-8(x12)
    800000f0:	00fb6933          	or	x18,x22,x15
    800000f4:	400107b7          	lui	x15,0x40010
    800000f8:	00f787b3          	add	x15,x15,x15
    800000fc:	10078793          	addi	x15,x15,256 
    80000100:	f277a823          	sw	x7,-208(x15)
    80000104:	400103b7          	lui	x7,0x40010
    80000108:	007383b3          	add	x7,x7,x7
    8000010c:	0a83b603          	ld	x12,168(x7) 
    80000110:	004581bb          	addw	x3,x11,x4
    80000114:	400104b7          	lui	x9,0x40010
    80000118:	009484b3          	add	x9,x9,x9
    8000011c:	09c4a283          	lw	x5,156(x9) 
    80000120:	5c82f293          	andi	x5,x5,1480
    80000124:	40010f37          	lui	x30,0x40010
    80000128:	01ef0f33          	add	x30,x30,x30
    8000012c:	020f6083          	lwu	x1,32(x30) 
    80000130:	01808e33          	add	x28,x1,x24
    80000134:	844f6893          	ori	x17,x30,-1980
    80000138:	400109b7          	lui	x19,0x40010
    8000013c:	013989b3          	add	x19,x19,x19
    80000140:	10098993          	addi	x19,x19,256 
    80000144:	f459a623          	sw	x5,-180(x19)
    80000148:	0075c8b3          	xor	x17,x11,x7
    8000014c:	81d07293          	andi	x5,x0,-2019
    80000150:	50dbf393          	andi	x7,x23,1293
    80000154:	40010237          	lui	x4,0x40010
    80000158:	00420233          	add	x4,x4,x4
    8000015c:	10020213          	addi	x4,x4,256 
    80000160:	ff023083          	ld	x1,-16(x4) 
    80000164:	40010437          	lui	x8,0x40010
    80000168:	00840433          	add	x8,x8,x8
    8000016c:	06043483          	ld	x9,96(x8) 
    80000170:	00e507b3          	add	x15,x10,x14
    80000174:	32df031b          	addiw	x6,x30,813
    80000178:	00178f3b          	addw	x30,x15,x1
    8000017c:	34600d1b          	addiw	x26,x0,838
    80000180:	40010cb7          	lui	x25,0x40010
    80000184:	019c8cb3          	add	x25,x25,x25
    80000188:	01ec8b23          	sb	x30,22(x25) 
    8000018c:	01dbe5b3          	or	x11,x23,x29
    80000190:	ab357d93          	andi	x27,x10,-1357
    80000194:	464d8d13          	addi	x26,x27,1124
    80000198:	40010f37          	lui	x30,0x40010
    8000019c:	01ef0f33          	add	x30,x30,x30
    800001a0:	07df4003          	lbu	x0,125(x30) 
    800001a4:	412e8033          	sub	x0,x29,x18
    800001a8:	40010837          	lui	x16,0x40010
    800001ac:	01080833          	add	x16,x16,x16
    800001b0:	05784603          	lbu	x12,87(x16) 
    800001b4:	00f84e33          	xor	x28,x16,x15
    800001b8:	400105b7          	lui	x11,0x40010
    800001bc:	00b585b3          	add	x11,x11,x11
    800001c0:	10058593          	addi	x11,x11,256 
    800001c4:	f5759123          	sh	x23,-190(x11)
    800001c8:	40010637          	lui	x12,0x40010
    800001cc:	00c60633          	add	x12,x12,x12
    800001d0:	03860183          	lb	x3,56(x12) 
    800001d4:	e131821b          	addiw	x4,x3,-493
    800001d8:	015270b3          	and	x1,x4,x21
    800001dc:	50db811b          	addiw	x2,x23,1293
    800001e0:	40010837          	lui	x16,0x40010
    800001e4:	01080833          	add	x16,x16,x16
    800001e8:	10080813          	addi	x16,x16,256 
    800001ec:	ffc86b83          	lwu	x23,-4(x16)
    800001f0:	007b6533          	or	x10,x22,x7
    800001f4:	40010eb7          	lui	x29,0x40010
    800001f8:	01de8eb3          	add	x29,x29,x29
    800001fc:	100e8e93          	addi	x29,x29,256 
    80000200:	f9ce8223          	sb	x28,-124(x29)
    80000204:	40010bb7          	lui	x23,0x40010
    80000208:	017b8bb3          	add	x23,x23,x23
    8000020c:	072ba823          	sw	x18,112(x23) 
    80000210:	04c7851b          	addiw	x10,x15,76
    80000214:	40010337          	lui	x6,0x40010
    80000218:	00630333          	add	x6,x6,x6
    8000021c:	0bc36a03          	lwu	x20,188(x6) 
    80000220:	621b8e9b          	addiw	x29,x23,1569
    80000224:	40010637          	lui	x12,0x40010
    80000228:	00c60633          	add	x12,x12,x12
    8000022c:	05063983          	ld	x19,80(x12) 
    80000230:	400107b7          	lui	x15,0x40010
    80000234:	00f787b3          	add	x15,x15,x15
    80000238:	10078793          	addi	x15,x15,256 
    8000023c:	fd578483          	lb	x9,-43(x15)
    80000240:	40010237          	lui	x4,0x40010
    80000244:	00420233          	add	x4,x4,x4
    80000248:	07b206a3          	sb	x27,109(x4) 
    8000024c:	40010837          	lui	x16,0x40010
    80000250:	01080833          	add	x16,x16,x16
    80000254:	0d584f03          	lbu	x30,213(x16) 
    80000258:	400105b7          	lui	x11,0x40010
    8000025c:	00b585b3          	add	x11,x11,x11
    80000260:	0f05d983          	lhu	x19,240(x11) 
    80000264:	fe12f993          	andi	x19,x5,-31
    80000268:	a4684f93          	xori	x31,x16,-1466
    8000026c:	415b0833          	sub	x16,x22,x21
    80000270:	40010837          	lui	x16,0x40010
    80000274:	01080833          	add	x16,x16,x16
    80000278:	0f882203          	lw	x4,248(x16) 
    8000027c:	01fa4233          	xor	x4,x20,x31
    80000280:	40010337          	lui	x6,0x40010
    80000284:	00630333          	add	x6,x6,x6
    80000288:	10030313          	addi	x6,x6,256 
    8000028c:	f6e32223          	sw	x14,-156(x6)
    80000290:	40010137          	lui	x2,0x40010
    80000294:	00210133          	add	x2,x2,x2
    80000298:	00914a03          	lbu	x20,9(x2) 
    8000029c:	9e9a4a13          	xori	x20,x20,-1559
    800002a0:	01c64a33          	xor	x20,x12,x28
    800002a4:	019c64b3          	or	x9,x24,x25
    800002a8:	401e87bb          	subw	x15,x29,x1
    800002ac:	40010b37          	lui	x22,0x40010
    800002b0:	016b0b33          	add	x22,x22,x22
    800002b4:	100b0b13          	addi	x22,x22,256 
    800002b8:	fc9b0223          	sb	x9,-60(x22)
    800002bc:	41108bbb          	subw	x23,x1,x17
    800002c0:	001f48b3          	xor	x17,x30,x1
    800002c4:	2eb84013          	xori	x0,x16,747
    800002c8:	400100b7          	lui	x1,0x40010
    800002cc:	001080b3          	add	x1,x1,x1
    800002d0:	10008093          	addi	x1,x1,256 
    800002d4:	fa00cc03          	lbu	x24,-96(x1)
    800002d8:	001c0b3b          	addw	x22,x24,x1
    800002dc:	a3be009b          	addiw	x1,x28,-1477
    800002e0:	002fe333          	or	x6,x31,x2
    800002e4:	0052e033          	or	x0,x5,x5
    800002e8:	40010137          	lui	x2,0x40010
    800002ec:	00210133          	add	x2,x2,x2
    800002f0:	0b513823          	sd	x21,176(x2) 
    800002f4:	401a8c33          	sub	x24,x21,x1
    800002f8:	41dc043b          	subw	x8,x24,x29
    800002fc:	9bb7ca13          	xori	x20,x15,-1605
    80000300:	40010db7          	lui	x27,0x40010
    80000304:	01bd8db3          	add	x27,x27,x27
    80000308:	100d8d93          	addi	x27,x27,256 
    8000030c:	f00db603          	ld	x12,-256(x27)
    80000310:	400101b7          	lui	x3,0x40010
    80000314:	003181b3          	add	x3,x3,x3
    80000318:	0241af83          	lw	x31,36(x3) 
    8000031c:	00048fb3          	add	x31,x9,x0
    80000320:	400108b7          	lui	x17,0x40010
    80000324:	011888b3          	add	x17,x17,x17
    80000328:	10088893          	addi	x17,x17,256 
    8000032c:	ffc89483          	lh	x9,-4(x17)
    80000330:	400108b7          	lui	x17,0x40010
    80000334:	011888b3          	add	x17,x17,x17
    80000338:	10088893          	addi	x17,x17,256 
    8000033c:	f248af03          	lw	x30,-220(x17)
    80000340:	400105b7          	lui	x11,0x40010
    80000344:	00b585b3          	add	x11,x11,x11
    80000348:	0ae59403          	lh	x8,174(x11) 
    8000034c:	400102b7          	lui	x5,0x40010
    80000350:	005282b3          	add	x5,x5,x5
    80000354:	10028293          	addi	x5,x5,256 
    80000358:	fd02b483          	ld	x9,-48(x5)
    8000035c:	409f04b3          	sub	x9,x30,x9
    80000360:	40010a37          	lui	x20,0x40010
    80000364:	014a0a33          	add	x20,x20,x20
    80000368:	0e4a6583          	lwu	x11,228(x20) 
    8000036c:	41fd07bb          	subw	x15,x26,x31
    80000370:	40010437          	lui	x8,0x40010
    80000374:	00840433          	add	x8,x8,x8
    80000378:	0e641f83          	lh	x31,230(x8) 
    8000037c:	006f863b          	addw	x12,x31,x6
    80000380:	15dc7e93          	andi	x29,x24,349
    80000384:	40010cb7          	lui	x25,0x40010
    80000388:	019c8cb3          	add	x25,x25,x25
    8000038c:	100c8c93          	addi	x25,x25,256 
    80000390:	f37cce03          	lbu	x28,-201(x25)
    80000394:	40010a37          	lui	x20,0x40010
    80000398:	014a0a33          	add	x20,x20,x20
    8000039c:	058a4103          	lbu	x2,88(x20) 
    800003a0:	402b88bb          	subw	x17,x23,x2
    800003a4:	40010937          	lui	x18,0x40010
    800003a8:	01290933          	add	x18,x18,x18
    800003ac:	10090913          	addi	x18,x18,256 
    800003b0:	f0695703          	lhu	x14,-250(x18)
    800003b4:	d88af713          	andi	x14,x21,-632
    800003b8:	a236819b          	addiw	x3,x13,-1501
    800003bc:	40010937          	lui	x18,0x40010
    800003c0:	01290933          	add	x18,x18,x18
    800003c4:	0c893983          	ld	x19,200(x18) 
    800003c8:	40010237          	lui	x4,0x40010
    800003cc:	00420233          	add	x4,x4,x4
    800003d0:	10020213          	addi	x4,x4,256 
    800003d4:	ffd23023          	sd	x29,-32(x4) 
    800003d8:	40010db7          	lui	x27,0x40010
    800003dc:	01bd8db3          	add	x27,x27,x27
    800003e0:	100d8d93          	addi	x27,x27,256 
    800003e4:	f5bd9823          	sh	x27,-176(x27)
    800003e8:	e8dc829b          	addiw	x5,x25,-371
    800003ec:	400107b7          	lui	x15,0x40010
    800003f0:	00f787b3          	add	x15,x15,x15
    800003f4:	10078793          	addi	x15,x15,256 
    800003f8:	f597ac23          	sw	x25,-168(x15)
    800003fc:	40010737          	lui	x14,0x40010
    80000400:	00e70733          	add	x14,x14,x14
    80000404:	10070713          	addi	x14,x14,256 
    80000408:	f5e73823          	sd	x30,-176(x14)
    8000040c:	400106b7          	lui	x13,0x40010
    80000410:	00d686b3          	add	x13,x13,x13
    80000414:	10068693          	addi	x13,x13,256 
    80000418:	f906ef83          	lwu	x31,-112(x13)
    8000041c:	40380fb3          	sub	x31,x16,x3
    80000420:	400104b7          	lui	x9,0x40010
    80000424:	009484b3          	add	x9,x9,x9
    80000428:	10048493          	addi	x9,x9,256 
    8000042c:	f3548a03          	lb	x20,-203(x9)
    80000430:	91ddea13          	ori	x20,x27,-1763
    80000434:	8f098d93          	addi	x27,x19,-1808
    80000438:	400109b7          	lui	x19,0x40010
    8000043c:	013989b3          	add	x19,x19,x19
    80000440:	0109a883          	lw	x17,16(x19) 
    80000444:	01f648b3          	xor	x17,x12,x31
    80000448:	40010cb7          	lui	x25,0x40010
    8000044c:	019c8cb3          	add	x25,x25,x25
    80000450:	083c9c23          	sh	x3,152(x25) 
    80000454:	400108b7          	lui	x17,0x40010
    80000458:	011888b3          	add	x17,x17,x17
    8000045c:	0c58a023          	sw	x5,192(x17) 
    80000460:	40010937          	lui	x18,0x40010
    80000464:	01290933          	add	x18,x18,x18
    80000468:	10090913          	addi	x18,x18,256 
    8000046c:	fdf92c23          	sw	x31,-40(x18)
    80000470:	2da5811b          	addiw	x2,x11,730
    80000474:	01d380b3          	add	x1,x7,x29
    80000478:	400107b7          	lui	x15,0x40010
    8000047c:	00f787b3          	add	x15,x15,x15
    80000480:	10078793          	addi	x15,x15,256 
    80000484:	f7078c23          	sb	x16,-136(x15)
    80000488:	400101b7          	lui	x3,0x40010
    8000048c:	003181b3          	add	x3,x3,x3
    80000490:	10018193          	addi	x3,x3,256 
    80000494:	f3c1a383          	lw	x7,-196(x3)
    80000498:	400109b7          	lui	x19,0x40010
    8000049c:	013989b3          	add	x19,x19,x19
    800004a0:	10098993          	addi	x19,x19,256 
    800004a4:	f4999f23          	sh	x9,-162(x19)
    800004a8:	40010bb7          	lui	x23,0x40010
    800004ac:	017b8bb3          	add	x23,x23,x23
    800004b0:	0bdbca83          	lbu	x21,189(x23) 
    800004b4:	4dad899b          	addiw	x19,x27,1242
    800004b8:	003e4333          	xor	x6,x28,x3
    800004bc:	01c472b3          	and	x5,x8,x28
    800004c0:	40010d37          	lui	x26,0x40010
    800004c4:	01ad0d33          	add	x26,x26,x26
    800004c8:	072d1f23          	sh	x18,126(x26) 
    800004cc:	011f871b          	addiw	x14,x31,17
    800004d0:	00b88733          	add	x14,x17,x11
    800004d4:	00a708bb          	addw	x17,x14,x10
    800004d8:	400102b7          	lui	x5,0x40010
    800004dc:	005282b3          	add	x5,x5,x5
    800004e0:	0402bd83          	ld	x27,64(x5) 
    800004e4:	400100b7          	lui	x1,0x40010
    800004e8:	001080b3          	add	x1,x1,x1
    800004ec:	0cc0e483          	lwu	x9,204(x1) 
    800004f0:	40618333          	sub	x6,x3,x6
    800004f4:	40010db7          	lui	x27,0x40010
    800004f8:	01bd8db3          	add	x27,x27,x27
    800004fc:	0fbd9023          	sh	x27,224(x27) 
    80000500:	53290c9b          	addiw	x25,x18,1330
    80000504:	001c07bb          	addw	x15,x24,x1
    80000508:	40010eb7          	lui	x29,0x40010
    8000050c:	01de8eb3          	add	x29,x29,x29
    80000510:	100e8e93          	addi	x29,x29,256 
    80000514:	f22e9c83          	lh	x25,-222(x29)
    80000518:	409c8933          	sub	x18,x25,x9
    8000051c:	40010b37          	lui	x22,0x40010
    80000520:	016b0b33          	add	x22,x22,x22
    80000524:	100b0b13          	addi	x22,x22,256 
    80000528:	f30b0a83          	lb	x21,-208(x22)
    8000052c:	00638abb          	addw	x21,x7,x6
    80000530:	40010a37          	lui	x20,0x40010
    80000534:	014a0a33          	add	x20,x20,x20
    80000538:	100a0a13          	addi	x20,x20,256 
    8000053c:	fcaa05a3          	sb	x10,-53(x20)
    80000540:	4136863b          	subw	x12,x13,x19
    80000544:	70567593          	andi	x11,x12,1797
    80000548:	400103b7          	lui	x7,0x40010
    8000054c:	007383b3          	add	x7,x7,x7
    80000550:	10038393          	addi	x7,x7,256 
    80000554:	f4c39423          	sh	x12,-184(x7)
    80000558:	41c78933          	sub	x18,x15,x28
    8000055c:	01ca6e33          	or	x28,x20,x28
    80000560:	40010537          	lui	x10,0x40010
    80000564:	00a50533          	add	x10,x10,x10
    80000568:	10050513          	addi	x10,x10,256 
    8000056c:	fc456a03          	lwu	x20,-60(x10)
    80000570:	01da0333          	add	x6,x20,x29
    80000574:	40010637          	lui	x12,0x40010
    80000578:	00c60633          	add	x12,x12,x12
    8000057c:	07061383          	lh	x7,112(x12) 
    80000580:	ecf46713          	ori	x14,x8,-305
    80000584:	41a389bb          	subw	x19,x7,x26
    80000588:	0080863b          	addw	x12,x1,x8
    8000058c:	007f6f33          	or	x30,x30,x7
    80000590:	41958633          	sub	x12,x11,x25
    80000594:	412084b3          	sub	x9,x1,x18
    80000598:	40010837          	lui	x16,0x40010
    8000059c:	01080833          	add	x16,x16,x16
    800005a0:	10080813          	addi	x16,x16,256 
    800005a4:	fd982023          	sw	x25,-64(x16)
    800005a8:	00c283bb          	addw	x7,x5,x12
    800005ac:	411f8cb3          	sub	x25,x31,x17
    800005b0:	40010537          	lui	x10,0x40010
    800005b4:	00a50533          	add	x10,x10,x10
    800005b8:	10050513          	addi	x10,x10,256 
    800005bc:	f0456083          	lwu	x1,-252(x10)
    800005c0:	0170f133          	and	x2,x1,x23
    800005c4:	001d8233          	add	x4,x27,x1
    800005c8:	400109b7          	lui	x19,0x40010
    800005cc:	013989b3          	add	x19,x19,x19
    800005d0:	01098f23          	sb	x16,30(x19) 
    800005d4:	40a4873b          	subw	x14,x9,x10
    800005d8:	003ff5b3          	and	x11,x31,x3
    800005dc:	40010337          	lui	x6,0x40010
    800005e0:	00630333          	add	x6,x6,x6
    800005e4:	0fc36303          	lwu	x6,252(x6) 
    800005e8:	017b033b          	addw	x6,x22,x23
    800005ec:	40010fb7          	lui	x31,0x40010
    800005f0:	01ff8fb3          	add	x31,x31,x31
    800005f4:	0faf9e03          	lh	x28,250(x31) 
    800005f8:	29fe4e13          	xori	x28,x28,671
    800005fc:	40010737          	lui	x14,0x40010
    80000600:	00e70733          	add	x14,x14,x14
    80000604:	10070713          	addi	x14,x14,256 
    80000608:	fbe71183          	lh	x3,-66(x14)
    8000060c:	003c09b3          	add	x19,x24,x3
    80000610:	990d4293          	xori	x5,x26,-1648
    80000614:	015c7c33          	and	x24,x24,x21
    80000618:	01fb7db3          	and	x27,x22,x31
    8000061c:	400107b7          	lui	x15,0x40010
    80000620:	00f787b3          	add	x15,x15,x15
    80000624:	04e7ac23          	sw	x14,88(x15) 
    80000628:	dce5e493          	ori	x9,x11,-562
    8000062c:	40010cb7          	lui	x25,0x40010
    80000630:	019c8cb3          	add	x25,x25,x25
    80000634:	100c8c93          	addi	x25,x25,256 
    80000638:	f9cca403          	lw	x8,-100(x25)
    8000063c:	01616433          	or	x8,x2,x22
    80000640:	40010e37          	lui	x28,0x40010
    80000644:	01ce0e33          	add	x28,x28,x28
    80000648:	0f7e1023          	sh	x23,224(x28) 
    8000064c:	40010bb7          	lui	x23,0x40010
    80000650:	017b8bb3          	add	x23,x23,x23
    80000654:	100b8b93          	addi	x23,x23,256 
    80000658:	f18bef03          	lwu	x30,-232(x23)
    8000065c:	006f7233          	and	x4,x30,x6
    80000660:	fdc00393          	li	x7,-36
    80000664:	40010e37          	lui	x28,0x40010
    80000668:	01ce0e33          	add	x28,x28,x28
    8000066c:	100e0e13          	addi	x28,x28,256 
    80000670:	fe9e0203          	lb	x4,-23(x28)
    80000674:	66f64193          	xori	x3,x12,1647
    80000678:	40010637          	lui	x12,0x40010
    8000067c:	00c60633          	add	x12,x12,x12
    80000680:	10060613          	addi	x12,x12,256 
    80000684:	ff661e83          	lh	x29,-10(x12)
    80000688:	01de8ebb          	addw	x29,x29,x29
    8000068c:	40010ab7          	lui	x21,0x40010
    80000690:	015a8ab3          	add	x21,x21,x21
    80000694:	0f4a8f23          	sb	x20,254(x21) 
    80000698:	67ff4f13          	xori	x30,x30,1663
    8000069c:	40010ab7          	lui	x21,0x40010
    800006a0:	015a8ab3          	add	x21,x21,x21
    800006a4:	01aa8223          	sb	x26,4(x21) 
    800006a8:	40010237          	lui	x4,0x40010
    800006ac:	00420233          	add	x4,x4,x4
    800006b0:	10020213          	addi	x4,x4,256 
    800006b4:	faa24403          	lbu	x8,-86(x4) 
    800006b8:	4099043b          	subw	x8,x18,x9
    800006bc:	4188063b          	subw	x12,x16,x24
    800006c0:	40010837          	lui	x16,0x40010
    800006c4:	01080833          	add	x16,x16,x16
    800006c8:	10080813          	addi	x16,x16,256 
    800006cc:	f4180503          	lb	x10,-191(x16)
    800006d0:	01c06b33          	or	x22,x0,x28
    800006d4:	40010eb7          	lui	x29,0x40010
    800006d8:	01de8eb3          	add	x29,x29,x29
    800006dc:	100e8e93          	addi	x29,x29,256 
    800006e0:	f0de84a3          	sb	x13,-247(x29)
    800006e4:	40010937          	lui	x18,0x40010
    800006e8:	01290933          	add	x18,x18,x18
    800006ec:	04c92603          	lw	x12,76(x18) 
    800006f0:	01e602bb          	addw	x5,x12,x30
    800006f4:	40010fb7          	lui	x31,0x40010
    800006f8:	01ff8fb3          	add	x31,x31,x31
    800006fc:	09cf9723          	sh	x28,142(x31) 
    80000700:	40010537          	lui	x10,0x40010
    80000704:	00a50533          	add	x10,x10,x10
    80000708:	09855203          	lhu	x4,152(x10) 
    8000070c:	01c2f233          	and	x4,x5,x28
    80000710:	01bc75b3          	and	x11,x24,x27
    80000714:	40010537          	lui	x10,0x40010
    80000718:	00a50533          	add	x10,x10,x10
    8000071c:	04e53c23          	sd	x14,88(x10) 
    80000720:	40010937          	lui	x18,0x40010
    80000724:	01290933          	add	x18,x18,x18
    80000728:	10090913          	addi	x18,x18,256 
    8000072c:	f8590803          	lb	x16,-123(x18)
    80000730:	0104f6b3          	and	x13,x9,x16
    80000734:	400108b7          	lui	x17,0x40010
    80000738:	011888b3          	add	x17,x17,x17
    8000073c:	0288aa23          	sw	x8,52(x17) 
    80000740:	400105b7          	lui	x11,0x40010
    80000744:	00b585b3          	add	x11,x11,x11
    80000748:	0b05ec03          	lwu	x24,176(x11) 
    8000074c:	400105b7          	lui	x11,0x40010
    80000750:	00b585b3          	add	x11,x11,x11
    80000754:	10058593          	addi	x11,x11,256 
    80000758:	f285b883          	ld	x17,-216(x11)
    8000075c:	01a8c033          	xor	x0,x17,x26
    80000760:	40010f37          	lui	x30,0x40010
    80000764:	01ef0f33          	add	x30,x30,x30
    80000768:	008f0983          	lb	x19,8(x30) 
    8000076c:	400108b7          	lui	x17,0x40010
    80000770:	011888b3          	add	x17,x17,x17
    80000774:	10088893          	addi	x17,x17,256 
    80000778:	f7088703          	lb	x14,-144(x17)
    8000077c:	40010437          	lui	x8,0x40010
    80000780:	00840433          	add	x8,x8,x8
    80000784:	07645f83          	lhu	x31,118(x8) 
    80000788:	004fee33          	or	x28,x31,x4
    8000078c:	416985bb          	subw	x11,x19,x22
    80000790:	40010237          	lui	x4,0x40010
    80000794:	00420233          	add	x4,x4,x4
    80000798:	05523023          	sd	x21,64(x4) 
    8000079c:	40010e37          	lui	x28,0x40010
    800007a0:	01ce0e33          	add	x28,x28,x28
    800007a4:	062e3423          	sd	x2,104(x28) 
    800007a8:	40720cb3          	sub	x25,x4,x7
    800007ac:	40010db7          	lui	x27,0x40010
    800007b0:	01bd8db3          	add	x27,x27,x27
    800007b4:	0f0dba03          	ld	x20,240(x27) 
    800007b8:	400101b7          	lui	x3,0x40010
    800007bc:	003181b3          	add	x3,x3,x3
    800007c0:	10018193          	addi	x3,x3,256 
    800007c4:	fe91c283          	lbu	x5,-23(x3)
    800007c8:	40010ab7          	lui	x21,0x40010
    800007cc:	015a8ab3          	add	x21,x21,x21
    800007d0:	0a8ae683          	lwu	x13,168(x21) 
    800007d4:	40010eb7          	lui	x29,0x40010
    800007d8:	01de8eb3          	add	x29,x29,x29
    800007dc:	100e8e93          	addi	x29,x29,256 
    800007e0:	f94ed603          	lhu	x12,-108(x29)
    800007e4:	40cb8733          	sub	x14,x23,x12
    800007e8:	40fd8a3b          	subw	x20,x27,x15
    800007ec:	40010237          	lui	x4,0x40010
    800007f0:	00420233          	add	x4,x4,x4
    800007f4:	10020213          	addi	x4,x4,256 
    800007f8:	fbc21903          	lh	x18,-68(x4) 
    800007fc:	0124e833          	or	x16,x9,x18
    80000800:	01ac73b3          	and	x7,x24,x26
    80000804:	41388a3b          	subw	x20,x17,x19
    80000808:	400108b7          	lui	x17,0x40010
    8000080c:	011888b3          	add	x17,x17,x17
    80000810:	10088893          	addi	x17,x17,256 
    80000814:	f068c003          	lbu	x0,-250(x17)
    80000818:	01f48f33          	add	x30,x9,x31
    8000081c:	40010937          	lui	x18,0x40010
    80000820:	01290933          	add	x18,x18,x18
    80000824:	02190183          	lb	x3,33(x18) 
    80000828:	cdd56913          	ori	x18,x10,-803
    8000082c:	6e2c0c13          	addi	x24,x24,1762
    80000830:	40010837          	lui	x16,0x40010
    80000834:	01080833          	add	x16,x16,x16
    80000838:	03882c23          	sw	x24,56(x16) 
    8000083c:	40010837          	lui	x16,0x40010
    80000840:	01080833          	add	x16,x16,x16
    80000844:	09b82423          	sw	x27,136(x16) 
    80000848:	40010ab7          	lui	x21,0x40010
    8000084c:	015a8ab3          	add	x21,x21,x21
    80000850:	100a8a93          	addi	x21,x21,256 
    80000854:	f03acb03          	lbu	x22,-253(x21)
    80000858:	40010c37          	lui	x24,0x40010
    8000085c:	018c0c33          	add	x24,x24,x24
    80000860:	100c0c13          	addi	x24,x24,256 
    80000864:	f23c1823          	sh	x3,-208(x24)
    80000868:	efe08b93          	addi	x23,x1,-258
    8000086c:	40010f37          	lui	x30,0x40010
    80000870:	01ef0f33          	add	x30,x30,x30
    80000874:	100f0f13          	addi	x30,x30,256 
    80000878:	fb0f3e83          	ld	x29,-80(x30)
    8000087c:	40010937          	lui	x18,0x40010
    80000880:	01290933          	add	x18,x18,x18
    80000884:	10090913          	addi	x18,x18,256 
    80000888:	fa194083          	lbu	x1,-95(x18)
    8000088c:	00dcf033          	and	x0,x25,x13
    80000890:	41f6893b          	subw	x18,x13,x31
    80000894:	00090a3b          	addw	x20,x18,x0
    80000898:	40010a37          	lui	x20,0x40010
    8000089c:	014a0a33          	add	x20,x20,x20
    800008a0:	100a0a13          	addi	x20,x20,256 
    800008a4:	f0aa0d83          	lb	x27,-246(x20)
    800008a8:	e56d8d93          	addi	x27,x27,-426
    800008ac:	400102b7          	lui	x5,0x40010
    800008b0:	005282b3          	add	x5,x5,x5
    800008b4:	10028293          	addi	x5,x5,256 
    800008b8:	fcc2a303          	lw	x6,-52(x5)
    800008bc:	0062863b          	addw	x12,x5,x6
    800008c0:	018d883b          	addw	x16,x27,x24
    800008c4:	40010ab7          	lui	x21,0x40010
    800008c8:	015a8ab3          	add	x21,x21,x21
    800008cc:	100a8a93          	addi	x21,x21,256 
    800008d0:	f58a8783          	lb	x15,-168(x21)
    800008d4:	19b9079b          	addiw	x15,x18,411
    800008d8:	40010737          	lui	x14,0x40010
    800008dc:	00e70733          	add	x14,x14,x14
    800008e0:	10070713          	addi	x14,x14,256 
    800008e4:	fc475d83          	lhu	x27,-60(x14)
    800008e8:	009d8733          	add	x14,x27,x9
    800008ec:	40010837          	lui	x16,0x40010
    800008f0:	01080833          	add	x16,x16,x16
    800008f4:	09981b23          	sh	x25,150(x16) 
    800008f8:	00546f33          	or	x30,x8,x5
    800008fc:	400104b7          	lui	x9,0x40010
    80000900:	009484b3          	add	x9,x9,x9
    80000904:	06b4b823          	sd	x11,112(x9) 
    80000908:	40010937          	lui	x18,0x40010
    8000090c:	01290933          	add	x18,x18,x18
    80000910:	10095a03          	lhu	x20,256(x18) 
    80000914:	af5e8413          	addi	x8,x29,-1291
    80000918:	400100b7          	lui	x1,0x40010
    8000091c:	001080b3          	add	x1,x1,x1
    80000920:	03508423          	sb	x21,40(x1) 
    80000924:	40010cb7          	lui	x25,0x40010
    80000928:	019c8cb3          	add	x25,x25,x25
    8000092c:	100c8c93          	addi	x25,x25,256 
    80000930:	f30cbf03          	ld	x30,-208(x25)
    80000934:	40010fb7          	lui	x31,0x40010
    80000938:	01ff8fb3          	add	x31,x31,x31
    8000093c:	064fa403          	lw	x8,100(x31) 
    80000940:	5a547413          	andi	x8,x8,1445
    80000944:	40010fb7          	lui	x31,0x40010
    80000948:	01ff8fb3          	add	x31,x31,x31
    8000094c:	100f8f93          	addi	x31,x31,256 
    80000950:	fc0fc303          	lbu	x6,-64(x31)
    80000954:	00c8f5b3          	and	x11,x17,x12
    80000958:	400105b7          	lui	x11,0x40010
    8000095c:	00b585b3          	add	x11,x11,x11
    80000960:	10058593          	addi	x11,x11,256 
    80000964:	f605be03          	ld	x28,-160(x11)
    80000968:	400101b7          	lui	x3,0x40010
    8000096c:	003181b3          	add	x3,x3,x3
    80000970:	10018193          	addi	x3,x3,256 
    80000974:	f851b423          	sd	x5,-120(x3)
    80000978:	0051c033          	xor	x0,x3,x5
    8000097c:	01640233          	add	x4,x8,x22
    80000980:	ea964293          	xori	x5,x12,-343
    80000984:	00c28cb3          	add	x25,x5,x12
    80000988:	4c7f0793          	addi	x15,x30,1223
    8000098c:	40010237          	lui	x4,0x40010
    80000990:	00420233          	add	x4,x4,x4
    80000994:	02920283          	lb	x5,41(x4) 
    80000998:	ac42c293          	xori	x5,x5,-1340
    8000099c:	54e6ce93          	xori	x29,x13,1358
    800009a0:	00e780bb          	addw	x1,x15,x14
    800009a4:	00ca8a3b          	addw	x20,x21,x12
    800009a8:	00fc40b3          	xor	x1,x24,x15
    800009ac:	007be733          	or	x14,x23,x7
    800009b0:	01430ab3          	add	x21,x6,x20
    800009b4:	400107b7          	lui	x15,0x40010
    800009b8:	00f787b3          	add	x15,x15,x15
    800009bc:	10078793          	addi	x15,x15,256 
    800009c0:	fb579e23          	sh	x21,-68(x15)
    800009c4:	c57f031b          	addiw	x6,x30,-937
    800009c8:	00008a3b          	addw	x20,x1,x0
    800009cc:	400100b7          	lui	x1,0x40010
    800009d0:	001080b3          	add	x1,x1,x1
    800009d4:	00408a83          	lb	x21,4(x1) 
    800009d8:	40010bb7          	lui	x23,0x40010
    800009dc:	017b8bb3          	add	x23,x23,x23
    800009e0:	100b8b93          	addi	x23,x23,256 
    800009e4:	fcdb9d23          	sh	x13,-38(x23)
    800009e8:	40010e37          	lui	x28,0x40010
    800009ec:	01ce0e33          	add	x28,x28,x28
    800009f0:	009e2a23          	sw	x9,20(x28) 
    800009f4:	400108b7          	lui	x17,0x40010
    800009f8:	011888b3          	add	x17,x17,x17
    800009fc:	0e48e403          	lwu	x8,228(x17) 
    80000a00:	40010337          	lui	x6,0x40010
    80000a04:	00630333          	add	x6,x6,x6
    80000a08:	08c32603          	lw	x12,140(x6) 
    80000a0c:	40460c3b          	subw	x24,x12,x4
    80000a10:	40010c37          	lui	x24,0x40010
    80000a14:	018c0c33          	add	x24,x24,x24
    80000a18:	100c0c13          	addi	x24,x24,256 
    80000a1c:	f67c3423          	sd	x7,-152(x24)
    80000a20:	37ac8493          	addi	x9,x25,890
    80000a24:	40010c37          	lui	x24,0x40010
    80000a28:	018c0c33          	add	x24,x24,x24
    80000a2c:	09cc3023          	sd	x28,128(x24) 
    80000a30:	40010737          	lui	x14,0x40010
    80000a34:	00e70733          	add	x14,x14,x14
    80000a38:	10070713          	addi	x14,x14,256 
    80000a3c:	f2d73423          	sd	x13,-216(x14)
    80000a40:	40010eb7          	lui	x29,0x40010
    80000a44:	01de8eb3          	add	x29,x29,x29
    80000a48:	100e8e93          	addi	x29,x29,256 
    80000a4c:	f1dea423          	sw	x29,-248(x29)
    80000a50:	40010f37          	lui	x30,0x40010
    80000a54:	01ef0f33          	add	x30,x30,x30
    80000a58:	0f1f4e83          	lbu	x29,241(x30) 
    80000a5c:	af517513          	andi	x10,x2,-1291
    80000a60:	40010f37          	lui	x30,0x40010
    80000a64:	01ef0f33          	add	x30,x30,x30
    80000a68:	0e7f0523          	sb	x7,234(x30) 
    80000a6c:	400100b7          	lui	x1,0x40010
    80000a70:	001080b3          	add	x1,x1,x1
    80000a74:	10008093          	addi	x1,x1,256 
    80000a78:	fa40ae83          	lw	x29,-92(x1)
    80000a7c:	400105b7          	lui	x11,0x40010
    80000a80:	00b585b3          	add	x11,x11,x11
    80000a84:	10058593          	addi	x11,x11,256 
    80000a88:	fc45bc23          	sd	x4,-40(x11)
    80000a8c:	40010bb7          	lui	x23,0x40010
    80000a90:	017b8bb3          	add	x23,x23,x23
    80000a94:	100b8b93          	addi	x23,x23,256 
    80000a98:	fe4ba183          	lw	x3,-28(x23)
    80000a9c:	e0e1fb93          	andi	x23,x3,-498
    80000aa0:	eeac8e9b          	addiw	x29,x25,-278
    80000aa4:	90d50093          	addi	x1,x10,-1779
    80000aa8:	c1287c13          	andi	x24,x16,-1006
    80000aac:	40010537          	lui	x10,0x40010
    80000ab0:	00a50533          	add	x10,x10,x10
    80000ab4:	10050513          	addi	x10,x10,256 
    80000ab8:	fd950da3          	sb	x25,-37(x10)
    80000abc:	40010d37          	lui	x26,0x40010
    80000ac0:	01ad0d33          	add	x26,x26,x26
    80000ac4:	100d0d13          	addi	x26,x26,256 
    80000ac8:	fd1d0ca3          	sb	x17,-39(x26)
    80000acc:	40010237          	lui	x4,0x40010
    80000ad0:	00420233          	add	x4,x4,x4
    80000ad4:	01223c23          	sd	x18,24(x4) 
    80000ad8:	7ae74213          	xori	x4,x14,1966
    80000adc:	40010b37          	lui	x22,0x40010
    80000ae0:	016b0b33          	add	x22,x22,x22
    80000ae4:	060b6e83          	lwu	x29,96(x22) 
    80000ae8:	9d4c8013          	addi	x0,x25,-1580
    80000aec:	cb60c313          	xori	x6,x1,-842
    80000af0:	400101b7          	lui	x3,0x40010
    80000af4:	003181b3          	add	x3,x3,x3
    80000af8:	0f41d003          	lhu	x0,244(x3) 
    80000afc:	eca1f093          	andi	x1,x3,-310
    80000b00:	89fecb93          	xori	x23,x29,-1889
    80000b04:	015d7133          	and	x2,x26,x21
    80000b08:	400109b7          	lui	x19,0x40010
    80000b0c:	013989b3          	add	x19,x19,x19
    80000b10:	10098993          	addi	x19,x19,256 
    80000b14:	f6f98103          	lb	x2,-145(x19)
    80000b18:	00250bbb          	addw	x23,x10,x2
    80000b1c:	400106b7          	lui	x13,0x40010
    80000b20:	00d686b3          	add	x13,x13,x13
    80000b24:	0e469003          	lh	x0,228(x13) 
    80000b28:	47b00013          	li	x0,1147
    80000b2c:	e2bf7b13          	andi	x22,x30,-469
    80000b30:	40010137          	lui	x2,0x40010
    80000b34:	00210133          	add	x2,x2,x2
    80000b38:	0d313023          	sd	x19,192(x2) 
    80000b3c:	00e2063b          	addw	x12,x4,x14
    80000b40:	01988cb3          	add	x25,x17,x25
    80000b44:	40010db7          	lui	x27,0x40010
    80000b48:	01bd8db3          	add	x27,x27,x27
    80000b4c:	044de583          	lwu	x11,68(x27) 
    80000b50:	01a58e33          	add	x28,x11,x26
    80000b54:	4167023b          	subw	x4,x14,x22
    80000b58:	400108b7          	lui	x17,0x40010
    80000b5c:	011888b3          	add	x17,x17,x17
    80000b60:	0138a623          	sw	x19,12(x17) 
    80000b64:	400106b7          	lui	x13,0x40010
    80000b68:	00d686b3          	add	x13,x13,x13
    80000b6c:	10068693          	addi	x13,x13,256 
    80000b70:	f4569623          	sh	x5,-180(x13)
    80000b74:	61b1019b          	addiw	x3,x2,1563
    80000b78:	5287ca13          	xori	x20,x15,1320
    80000b7c:	41470b33          	sub	x22,x14,x20
    80000b80:	40010a37          	lui	x20,0x40010
    80000b84:	014a0a33          	add	x20,x20,x20
    80000b88:	0baa5403          	lhu	x8,186(x20) 
    80000b8c:	40010437          	lui	x8,0x40010
    80000b90:	00840433          	add	x8,x8,x8
    80000b94:	0f842823          	sw	x24,240(x8) 
    80000b98:	400108b7          	lui	x17,0x40010
    80000b9c:	011888b3          	add	x17,x17,x17
    80000ba0:	10088893          	addi	x17,x17,256 
    80000ba4:	f5588523          	sb	x21,-182(x17)
    80000ba8:	00b26e33          	or	x28,x4,x11
    80000bac:	400102b7          	lui	x5,0x40010
    80000bb0:	005282b3          	add	x5,x5,x5
    80000bb4:	01c28e03          	lb	x28,28(x5) 
    80000bb8:	00ae4333          	xor	x6,x28,x10
    80000bbc:	40010e37          	lui	x28,0x40010
    80000bc0:	01ce0e33          	add	x28,x28,x28
    80000bc4:	100e0e13          	addi	x28,x28,256 
    80000bc8:	fcae4003          	lbu	x0,-54(x28)
    80000bcc:	68100a1b          	addiw	x20,x0,1665
    80000bd0:	009c4d33          	xor	x26,x24,x9
    80000bd4:	400109b7          	lui	x19,0x40010
    80000bd8:	013989b3          	add	x19,x19,x19
    80000bdc:	10098993          	addi	x19,x19,256 
    80000be0:	ffb9ac23          	sw	x27,-8(x19)
    80000be4:	aa8ecb13          	xori	x22,x29,-1368
    80000be8:	40010937          	lui	x18,0x40010
    80000bec:	01290933          	add	x18,x18,x18
    80000bf0:	10090913          	addi	x18,x18,256 
    80000bf4:	fb292a23          	sw	x18,-76(x18)
    80000bf8:	40010fb7          	lui	x31,0x40010
    80000bfc:	01ff8fb3          	add	x31,x31,x31
    80000c00:	100f8f93          	addi	x31,x31,256 
    80000c04:	f60fd903          	lhu	x18,-160(x31)
    80000c08:	412f85b3          	sub	x11,x31,x18
    80000c0c:	400102b7          	lui	x5,0x40010
    80000c10:	005282b3          	add	x5,x5,x5
    80000c14:	0a82b383          	ld	x7,168(x5) 
    80000c18:	018381bb          	addw	x3,x7,x24
    80000c1c:	d425871b          	addiw	x14,x11,-702
    80000c20:	40010eb7          	lui	x29,0x40010
    80000c24:	01de8eb3          	add	x29,x29,x29
    80000c28:	100e8e93          	addi	x29,x29,256 
    80000c2c:	f02e8003          	lb	x0,-254(x29)
    80000c30:	00f84033          	xor	x0,x16,x15
    80000c34:	00c57033          	and	x0,x10,x12
    80000c38:	ac33f793          	andi	x15,x7,-1341
    80000c3c:	40010a37          	lui	x20,0x40010
    80000c40:	014a0a33          	add	x20,x20,x20
    80000c44:	100a0a13          	addi	x20,x20,256 
    80000c48:	fdda2823          	sw	x29,-48(x20)
    80000c4c:	40d80ebb          	subw	x29,x16,x13
    80000c50:	3690809b          	addiw	x1,x1,873
    80000c54:	00c96533          	or	x10,x18,x12
    80000c58:	400102b7          	lui	x5,0x40010
    80000c5c:	005282b3          	add	x5,x5,x5
    80000c60:	03c2ec83          	lwu	x25,60(x5) 
    80000c64:	01a748b3          	xor	x17,x14,x26
    80000c68:	47ba8a1b          	addiw	x20,x21,1147
    80000c6c:	40010737          	lui	x14,0x40010
    80000c70:	00e70733          	add	x14,x14,x14
    80000c74:	0f072503          	lw	x10,240(x14) 
    80000c78:	00a06733          	or	x14,x0,x10
    80000c7c:	40010db7          	lui	x27,0x40010
    80000c80:	01bd8db3          	add	x27,x27,x27
    80000c84:	100d8d93          	addi	x27,x27,256 
    80000c88:	f53d8d03          	lb	x26,-173(x27)
    80000c8c:	40010437          	lui	x8,0x40010
    80000c90:	00840433          	add	x8,x8,x8
    80000c94:	10040413          	addi	x8,x8,256 
    80000c98:	f9942823          	sw	x25,-112(x8)
    80000c9c:	41a280b3          	sub	x1,x5,x26
    80000ca0:	001ff633          	and	x12,x31,x1
    80000ca4:	40010137          	lui	x2,0x40010
    80000ca8:	00210133          	add	x2,x2,x2
    80000cac:	0f012783          	lw	x15,240(x2) 
    80000cb0:	006347b3          	xor	x15,x6,x6
    80000cb4:	415706bb          	subw	x13,x14,x21
    80000cb8:	400106b7          	lui	x13,0x40010
    80000cbc:	00d686b3          	add	x13,x13,x13
    80000cc0:	0696bc23          	sd	x9,120(x13) 
    80000cc4:	40010337          	lui	x6,0x40010
    80000cc8:	00630333          	add	x6,x6,x6
    80000ccc:	10030313          	addi	x6,x6,256 
    80000cd0:	f3235283          	lhu	x5,-206(x6)
    80000cd4:	0052e633          	or	x12,x5,x5
    80000cd8:	32116b93          	ori	x23,x2,801
    80000cdc:	4be86913          	ori	x18,x16,1214
    80000ce0:	400102b7          	lui	x5,0x40010
    80000ce4:	005282b3          	add	x5,x5,x5
    80000ce8:	0b82b423          	sd	x24,168(x5) 
    80000cec:	400109b7          	lui	x19,0x40010
    80000cf0:	013989b3          	add	x19,x19,x19
    80000cf4:	0c899183          	lh	x3,200(x19) 
    80000cf8:	003b0633          	add	x12,x22,x3
    80000cfc:	009c6233          	or	x4,x24,x9
    80000d00:	40010db7          	lui	x27,0x40010
    80000d04:	01bd8db3          	add	x27,x27,x27
    80000d08:	09ad9f23          	sh	x26,158(x27) 
    80000d0c:	01e942b3          	xor	x5,x18,x30
    80000d10:	400103b7          	lui	x7,0x40010
    80000d14:	007383b3          	add	x7,x7,x7
    80000d18:	0483bb03          	ld	x22,72(x7) 
    80000d1c:	40010c37          	lui	x24,0x40010
    80000d20:	018c0c33          	add	x24,x24,x24
    80000d24:	100c0c13          	addi	x24,x24,256 
    80000d28:	f5fc0823          	sb	x31,-176(x24)
    80000d2c:	01a874b3          	and	x9,x16,x26
    80000d30:	400104b7          	lui	x9,0x40010
    80000d34:	009484b3          	add	x9,x9,x9
    80000d38:	10048493          	addi	x9,x9,256 
    80000d3c:	f704d603          	lhu	x12,-144(x9)
    80000d40:	00ae8dbb          	addw	x27,x29,x10
    80000d44:	019b4033          	xor	x0,x22,x25
    80000d48:	0032cb33          	xor	x22,x5,x3
    80000d4c:	40010a37          	lui	x20,0x40010
    80000d50:	014a0a33          	add	x20,x20,x20
    80000d54:	100a0a13          	addi	x20,x20,256 
    80000d58:	f4ca1e03          	lh	x28,-180(x20)
    80000d5c:	41cc803b          	subw	x0,x25,x28
    80000d60:	014d0bbb          	addw	x23,x26,x20
    80000d64:	400104b7          	lui	x9,0x40010
    80000d68:	009484b3          	add	x9,x9,x9
    80000d6c:	10048493          	addi	x9,x9,256 
    80000d70:	fbc4d883          	lhu	x17,-68(x9)
    80000d74:	00dee633          	or	x12,x29,x13
    80000d78:	be2d0e13          	addi	x28,x26,-1054
    80000d7c:	406f8ab3          	sub	x21,x31,x6
    80000d80:	40e98433          	sub	x8,x19,x14
    80000d84:	011085bb          	addw	x11,x1,x17
    80000d88:	01f3053b          	addw	x10,x6,x31
    80000d8c:	012cc433          	xor	x8,x25,x18
    80000d90:	cb634613          	xori	x12,x6,-842
    80000d94:	40010237          	lui	x4,0x40010
    80000d98:	00420233          	add	x4,x4,x4
    80000d9c:	10020213          	addi	x4,x4,256 
    80000da0:	fbf24503          	lbu	x10,-65(x4) 
    80000da4:	00e0053b          	addw	x10,x0,x14
    80000da8:	40010437          	lui	x8,0x40010
    80000dac:	00840433          	add	x8,x8,x8
    80000db0:	10040413          	addi	x8,x8,256 
    80000db4:	f7943423          	sd	x25,-152(x8)
    80000db8:	400103b7          	lui	x7,0x40010
    80000dbc:	007383b3          	add	x7,x7,x7
    80000dc0:	10038393          	addi	x7,x7,256 
    80000dc4:	f4839d23          	sh	x8,-166(x7)
    80000dc8:	40010eb7          	lui	x29,0x40010
    80000dcc:	01de8eb3          	add	x29,x29,x29
    80000dd0:	098eb003          	ld	x0,152(x29) 
    80000dd4:	0a8ae013          	ori	x0,x21,168
    80000dd8:	40010737          	lui	x14,0x40010
    80000ddc:	00e70733          	add	x14,x14,x14
    80000de0:	10070713          	addi	x14,x14,256 
    80000de4:	f2873023          	sd	x8,-224(x14)
    80000de8:	40010c37          	lui	x24,0x40010
    80000dec:	018c0c33          	add	x24,x24,x24
    80000df0:	04ac0e03          	lb	x28,74(x24) 
    80000df4:	00887db3          	and	x27,x16,x8
    80000df8:	01bbfbb3          	and	x23,x23,x27
    80000dfc:	dd700e93          	li	x29,-553
    80000e00:	40010837          	lui	x16,0x40010
    80000e04:	01080833          	add	x16,x16,x16
    80000e08:	0e882b83          	lw	x23,232(x16) 
    80000e0c:	68440b9b          	addiw	x23,x8,1668
    80000e10:	01dd81b3          	add	x3,x27,x29
    80000e14:	0015cb33          	xor	x22,x11,x1
    80000e18:	89a97a93          	andi	x21,x18,-1894
    80000e1c:	40010337          	lui	x6,0x40010
    80000e20:	00630333          	add	x6,x6,x6
    80000e24:	02934b83          	lbu	x23,41(x6) 
    80000e28:	014bcfb3          	xor	x31,x23,x20
    80000e2c:	63374f93          	xori	x31,x14,1587
    80000e30:	40010cb7          	lui	x25,0x40010
    80000e34:	019c8cb3          	add	x25,x25,x25
    80000e38:	0d0c9f03          	lh	x30,208(x25) 
    80000e3c:	01e40e33          	add	x28,x8,x30
    80000e40:	40010f37          	lui	x30,0x40010
    80000e44:	01ef0f33          	add	x30,x30,x30
    80000e48:	0d9f0523          	sb	x25,202(x30) 
    80000e4c:	40010237          	lui	x4,0x40010
    80000e50:	00420233          	add	x4,x4,x4
    80000e54:	0db22823          	sw	x27,208(x4) 
    80000e58:	40010b37          	lui	x22,0x40010
    80000e5c:	016b0b33          	add	x22,x22,x22
    80000e60:	0c4b6583          	lwu	x11,196(x22) 
    80000e64:	00bd0fb3          	add	x31,x26,x11
    80000e68:	40010a37          	lui	x20,0x40010
    80000e6c:	014a0a33          	add	x20,x20,x20
    80000e70:	020a0603          	lb	x12,32(x20) 
    80000e74:	0c384613          	xori	x12,x16,195
    80000e78:	40010bb7          	lui	x23,0x40010
    80000e7c:	017b8bb3          	add	x23,x23,x23
    80000e80:	0eeb8703          	lb	x14,238(x23) 
    80000e84:	00e747b3          	xor	x15,x14,x14
    80000e88:	0073863b          	addw	x12,x7,x7
    80000e8c:	0b80c313          	xori	x6,x1,184
    80000e90:	40010fb7          	lui	x31,0x40010
    80000e94:	01ff8fb3          	add	x31,x31,x31
    80000e98:	100f8f93          	addi	x31,x31,256 
    80000e9c:	fb0fbf03          	ld	x30,-80(x31)
    80000ea0:	01df0733          	add	x14,x30,x29
    80000ea4:	400106b7          	lui	x13,0x40010
    80000ea8:	00d686b3          	add	x13,x13,x13
    80000eac:	10068693          	addi	x13,x13,256 
    80000eb0:	f546c803          	lbu	x16,-172(x13)
    80000eb4:	97384f13          	xori	x30,x16,-1677
    80000eb8:	00b10f33          	add	x30,x2,x11
    80000ebc:	40010637          	lui	x12,0x40010
    80000ec0:	00c60633          	add	x12,x12,x12
    80000ec4:	10060613          	addi	x12,x12,256 
    80000ec8:	fa461083          	lh	x1,-92(x12)
    80000ecc:	41b3843b          	subw	x8,x7,x27
    80000ed0:	400103b7          	lui	x7,0x40010
    80000ed4:	007383b3          	add	x7,x7,x7
    80000ed8:	10038393          	addi	x7,x7,256 
    80000edc:	f3338703          	lb	x14,-205(x7)
    80000ee0:	40010bb7          	lui	x23,0x40010
    80000ee4:	017b8bb3          	add	x23,x23,x23
    80000ee8:	060bca83          	lbu	x21,96(x23) 
    80000eec:	c21a8f9b          	addiw	x31,x21,-991
    80000ef0:	ade80193          	addi	x3,x16,-1314
    80000ef4:	40010a37          	lui	x20,0x40010
    80000ef8:	014a0a33          	add	x20,x20,x20
    80000efc:	100a0a13          	addi	x20,x20,256 
    80000f00:	fc4a2a83          	lw	x21,-60(x20)
    80000f04:	00388a3b          	addw	x20,x17,x3
    80000f08:	40010cb7          	lui	x25,0x40010
    80000f0c:	019c8cb3          	add	x25,x25,x25
    80000f10:	100c8c93          	addi	x25,x25,256 
    80000f14:	f4cc8ca3          	sb	x12,-167(x25)
    80000f18:	4947eb13          	ori	x22,x15,1172
    80000f1c:	01ec0133          	add	x2,x24,x30
    80000f20:	62d5c293          	xori	x5,x11,1581
    80000f24:	400107b7          	lui	x15,0x40010
    80000f28:	00f787b3          	add	x15,x15,x15
    80000f2c:	10078793          	addi	x15,x15,256 
    80000f30:	f1d78423          	sb	x29,-248(x15)
    80000f34:	400101b7          	lui	x3,0x40010
    80000f38:	003181b3          	add	x3,x3,x3
    80000f3c:	10018193          	addi	x3,x3,256 
    80000f40:	f151ca83          	lbu	x21,-235(x3)
    80000f44:	883ae293          	ori	x5,x21,-1917
    80000f48:	400109b7          	lui	x19,0x40010
    80000f4c:	013989b3          	add	x19,x19,x19
    80000f50:	02298703          	lb	x14,34(x19) 
    80000f54:	68770713          	addi	x14,x14,1671
    80000f58:	407c893b          	subw	x18,x25,x7
    80000f5c:	006af8b3          	and	x17,x21,x6
    80000f60:	5464e893          	ori	x17,x9,1350
    80000f64:	40010ab7          	lui	x21,0x40010
    80000f68:	015a8ab3          	add	x21,x21,x21
    80000f6c:	100a8a93          	addi	x21,x21,256 
    80000f70:	f68aa423          	sw	x8,-152(x21)
    80000f74:	aaf5889b          	addiw	x17,x11,-1361
    80000f78:	400100b7          	lui	x1,0x40010
    80000f7c:	001080b3          	add	x1,x1,x1
    80000f80:	06a0aa23          	sw	x10,116(x1) 
    80000f84:	416f0eb3          	sub	x29,x30,x22
    80000f88:	400103b7          	lui	x7,0x40010
    80000f8c:	007383b3          	add	x7,x7,x7
    80000f90:	10038393          	addi	x7,x7,256 
    80000f94:	f6238423          	sb	x2,-152(x7)
    80000f98:	40010b37          	lui	x22,0x40010
    80000f9c:	016b0b33          	add	x22,x22,x22
    80000fa0:	048b3d03          	ld	x26,72(x22) 
    80000fa4:	004d6eb3          	or	x29,x26,x4
    80000fa8:	ce72cc13          	xori	x24,x5,-793
    80000fac:	c168839b          	addiw	x7,x17,-1002
    80000fb0:	40010237          	lui	x4,0x40010
    80000fb4:	00420233          	add	x4,x4,x4
    80000fb8:	00c26803          	lwu	x16,12(x4) 
    80000fbc:	416406b3          	sub	x13,x8,x22
    80000fc0:	016c073b          	addw	x14,x24,x22
    80000fc4:	41248a3b          	subw	x20,x9,x18
    80000fc8:	005561b3          	or	x3,x10,x5
    80000fcc:	79b1869b          	addiw	x13,x3,1947
    80000fd0:	c897fe13          	andi	x28,x15,-887
    80000fd4:	40010537          	lui	x10,0x40010
    80000fd8:	00a50533          	add	x10,x10,x10
    80000fdc:	10050513          	addi	x10,x10,256 
    80000fe0:	fe154183          	lbu	x3,-31(x10)
    80000fe4:	96a1f093          	andi	x1,x3,-1686
    80000fe8:	a911cb93          	xori	x23,x3,-1391
    80000fec:	01bdf4b3          	and	x9,x27,x27
    80000ff0:	40010637          	lui	x12,0x40010
    80000ff4:	00c60633          	add	x12,x12,x12
    80000ff8:	02c62423          	sw	x12,40(x12) 
    80000ffc:	40010437          	lui	x8,0x40010
    80001000:	00840433          	add	x8,x8,x8
    80001004:	0ad42623          	sw	x13,172(x8) 
    80001008:	40ee03b3          	sub	x7,x28,x14
    8000100c:	40010237          	lui	x4,0x40010
    80001010:	00420233          	add	x4,x4,x4
    80001014:	06720c03          	lb	x24,103(x4) 
    80001018:	00fe8c3b          	addw	x24,x29,x15
    8000101c:	418a833b          	subw	x6,x21,x24
    80001020:	40010637          	lui	x12,0x40010
    80001024:	00c60633          	add	x12,x12,x12
    80001028:	10060613          	addi	x12,x12,256 
    8000102c:	fa466e03          	lwu	x28,-92(x12)
    80001030:	f339e593          	ori	x11,x19,-205
    80001034:	4126013b          	subw	x2,x12,x18
    80001038:	400103b7          	lui	x7,0x40010
    8000103c:	007383b3          	add	x7,x7,x7
    80001040:	10038393          	addi	x7,x7,256 
    80001044:	fab38203          	lb	x4,-85(x7)
    80001048:	00c77bb3          	and	x23,x14,x12
    8000104c:	40010db7          	lui	x27,0x40010
    80001050:	01bd8db3          	add	x27,x27,x27
    80001054:	0cdda223          	sw	x13,196(x27) 
    80001058:	400103b7          	lui	x7,0x40010
    8000105c:	007383b3          	add	x7,x7,x7
    80001060:	10038393          	addi	x7,x7,256 
    80001064:	fda38623          	sb	x26,-52(x7)
    80001068:	018402b3          	add	x5,x8,x24
    8000106c:	40010bb7          	lui	x23,0x40010
    80001070:	017b8bb3          	add	x23,x23,x23
    80001074:	100b8b93          	addi	x23,x23,256 
    80001078:	fbab8103          	lb	x2,-70(x23)
    8000107c:	40850fb3          	sub	x31,x10,x8
    80001080:	e6908f9b          	addiw	x31,x1,-407
    80001084:	40010737          	lui	x14,0x40010
    80001088:	00e70733          	add	x14,x14,x14
    8000108c:	10070713          	addi	x14,x14,256 
    80001090:	f6073f03          	ld	x30,-160(x14)
    80001094:	013a6833          	or	x16,x20,x19
    80001098:	40010737          	lui	x14,0x40010
    8000109c:	00e70733          	add	x14,x14,x14
    800010a0:	05c72a83          	lw	x21,92(x14) 
    800010a4:	077ac613          	xori	x12,x21,119
    800010a8:	40010237          	lui	x4,0x40010
    800010ac:	00420233          	add	x4,x4,x4
    800010b0:	01026003          	lwu	x0,16(x4) 
    800010b4:	000002b3          	add	x5,x0,x0
    800010b8:	40010637          	lui	x12,0x40010
    800010bc:	00c60633          	add	x12,x12,x12
    800010c0:	10060613          	addi	x12,x12,256 
    800010c4:	f3e63c23          	sd	x30,-200(x12)
    800010c8:	400104b7          	lui	x9,0x40010
    800010cc:	009484b3          	add	x9,x9,x9
    800010d0:	0a04ae03          	lw	x28,160(x9) 
    800010d4:	403e0db3          	sub	x27,x28,x3
    800010d8:	00da6bb3          	or	x23,x20,x13
    800010dc:	00d36bb3          	or	x23,x6,x13
    800010e0:	40010f37          	lui	x30,0x40010
    800010e4:	01ef0f33          	add	x30,x30,x30
    800010e8:	040f2903          	lw	x18,64(x30) 
    800010ec:	41288ab3          	sub	x21,x17,x18
    800010f0:	6a867f13          	andi	x30,x12,1704
    800010f4:	40010e37          	lui	x28,0x40010
    800010f8:	01ce0e33          	add	x28,x28,x28
    800010fc:	040e3b83          	ld	x23,64(x28) 
    80001100:	622b8e1b          	addiw	x28,x23,1570
    80001104:	400104b7          	lui	x9,0x40010
    80001108:	009484b3          	add	x9,x9,x9
    8000110c:	0dc4b023          	sd	x28,192(x9) 
    80001110:	01a5cf33          	xor	x30,x11,x26
    80001114:	400101b7          	lui	x3,0x40010
    80001118:	003181b3          	add	x3,x3,x3
    8000111c:	0b81b603          	ld	x12,184(x3) 
    80001120:	40b6073b          	subw	x14,x12,x11
    80001124:	410007bb          	negw	x15,x16
    80001128:	01a2e233          	or	x4,x5,x26
    8000112c:	40010fb7          	lui	x31,0x40010
    80001130:	01ff8fb3          	add	x31,x31,x31
    80001134:	0a8fbf03          	ld	x30,168(x31) 
    80001138:	b54f4913          	xori	x18,x30,-1196
    8000113c:	00e86833          	or	x16,x16,x14
    80001140:	40010db7          	lui	x27,0x40010
    80001144:	01bd8db3          	add	x27,x27,x27
    80001148:	0b8db023          	sd	x24,160(x27) 
    8000114c:	40010d37          	lui	x26,0x40010
    80001150:	01ad0d33          	add	x26,x26,x26
    80001154:	100d0d13          	addi	x26,x26,256 
    80001158:	ffad2623          	sw	x26,-20(x26)
    8000115c:	40010537          	lui	x10,0x40010
    80001160:	00a50533          	add	x10,x10,x10
    80001164:	10050513          	addi	x10,x10,256 
    80001168:	f0053983          	ld	x19,-256(x10)
    8000116c:	40010db7          	lui	x27,0x40010
    80001170:	01bd8db3          	add	x27,x27,x27
    80001174:	021dac23          	sw	x1,56(x27) 
    80001178:	40010a37          	lui	x20,0x40010
    8000117c:	014a0a33          	add	x20,x20,x20
    80001180:	0d0a3003          	ld	x0,208(x20) 
    80001184:	40010eb7          	lui	x29,0x40010
    80001188:	01de8eb3          	add	x29,x29,x29
    8000118c:	100e8e93          	addi	x29,x29,256 
    80001190:	f98eb003          	ld	x0,-104(x29)
    80001194:	0185803b          	addw	x0,x11,x24
    80001198:	e219891b          	addiw	x18,x19,-479
    8000119c:	0f30c093          	xori	x1,x1,243
    800011a0:	400109b7          	lui	x19,0x40010
    800011a4:	013989b3          	add	x19,x19,x19
    800011a8:	10098993          	addi	x19,x19,256 
    800011ac:	f9598523          	sb	x21,-118(x19)
    800011b0:	40010937          	lui	x18,0x40010
    800011b4:	01290933          	add	x18,x18,x18
    800011b8:	0af90d23          	sb	x15,186(x18) 
    800011bc:	4871ea93          	ori	x21,x3,1159
    800011c0:	002ecb33          	xor	x22,x29,x2
    800011c4:	703b4b13          	xori	x22,x22,1795
    800011c8:	40010fb7          	lui	x31,0x40010
    800011cc:	01ff8fb3          	add	x31,x31,x31
    800011d0:	04afcb03          	lbu	x22,74(x31) 
    800011d4:	3efb7b13          	andi	x22,x22,1007
    800011d8:	01fc01b3          	add	x3,x24,x31
    800011dc:	40010e37          	lui	x28,0x40010
    800011e0:	01ce0e33          	add	x28,x28,x28
    800011e4:	100e0e13          	addi	x28,x28,256 
    800011e8:	fc0e2b03          	lw	x22,-64(x28)
    800011ec:	019d4db3          	xor	x27,x26,x25
    800011f0:	40348933          	sub	x18,x9,x3
    800011f4:	54abe013          	ori	x0,x23,1354
    800011f8:	0004c6b3          	xor	x13,x9,x0
    800011fc:	405a0533          	sub	x10,x20,x5
    80001200:	019605bb          	addw	x11,x12,x25
    80001204:	40010ab7          	lui	x21,0x40010
    80001208:	015a8ab3          	add	x21,x21,x21
    8000120c:	06aa8723          	sb	x10,110(x21) 
    80001210:	9544019b          	addiw	x3,x8,-1708
    80001214:	40010a37          	lui	x20,0x40010
    80001218:	014a0a33          	add	x20,x20,x20
    8000121c:	0b3a2423          	sw	x19,168(x20) 
    80001220:	40010437          	lui	x8,0x40010
    80001224:	00840433          	add	x8,x8,x8
    80001228:	04043703          	ld	x14,64(x8) 
    8000122c:	40e70633          	sub	x12,x14,x14
    80001230:	40010c37          	lui	x24,0x40010
    80001234:	018c0c33          	add	x24,x24,x24
    80001238:	100c0c13          	addi	x24,x24,256 
    8000123c:	fc0c2a83          	lw	x21,-64(x24)
    80001240:	40010737          	lui	x14,0x40010
    80001244:	00e70733          	add	x14,x14,x14
    80001248:	10070713          	addi	x14,x14,256 
    8000124c:	f9d70723          	sb	x29,-114(x14)
    80001250:	40010237          	lui	x4,0x40010
    80001254:	00420233          	add	x4,x4,x4
    80001258:	10020213          	addi	x4,x4,256 
    8000125c:	f3c22e03          	lw	x28,-196(x4) 
    80001260:	015e6e33          	or	x28,x28,x21
    80001264:	40010737          	lui	x14,0x40010
    80001268:	00e70733          	add	x14,x14,x14
    8000126c:	00471423          	sh	x4,8(x14) 
    80001270:	40010a37          	lui	x20,0x40010
    80001274:	014a0a33          	add	x20,x20,x20
    80001278:	0dca3023          	sd	x28,192(x20) 
    8000127c:	40010c37          	lui	x24,0x40010
    80001280:	018c0c33          	add	x24,x24,x24
    80001284:	100c0c13          	addi	x24,x24,256 
    80001288:	f36c0a83          	lb	x21,-202(x24)
    8000128c:	011a6f33          	or	x30,x20,x17
    80001290:	15ad6213          	ori	x4,x26,346
    80001294:	40010c37          	lui	x24,0x40010
    80001298:	018c0c33          	add	x24,x24,x24
    8000129c:	052c0403          	lb	x8,82(x24) 
    800012a0:	01f76333          	or	x6,x14,x31
    800012a4:	40010cb7          	lui	x25,0x40010
    800012a8:	019c8cb3          	add	x25,x25,x25
    800012ac:	100c8c93          	addi	x25,x25,256 
    800012b0:	f3ac9123          	sh	x26,-222(x25)
    800012b4:	40010437          	lui	x8,0x40010
    800012b8:	00840433          	add	x8,x8,x8
    800012bc:	01c46b03          	lwu	x22,28(x8) 
    800012c0:	016ee933          	or	x18,x29,x22
    800012c4:	400106b7          	lui	x13,0x40010
    800012c8:	00d686b3          	add	x13,x13,x13
    800012cc:	0046c703          	lbu	x14,4(x13) 
    800012d0:	0012e233          	or	x4,x5,x1
    800012d4:	40010bb7          	lui	x23,0x40010
    800012d8:	017b8bb3          	add	x23,x23,x23
    800012dc:	100b8b93          	addi	x23,x23,256 
    800012e0:	f7cb9d23          	sh	x28,-134(x23)
    800012e4:	007eedb3          	or	x27,x29,x7
    800012e8:	40010237          	lui	x4,0x40010
    800012ec:	00420233          	add	x4,x4,x4
    800012f0:	10020213          	addi	x4,x4,256 
    800012f4:	fa822a23          	sw	x8,-76(x4) 
    800012f8:	400100b7          	lui	x1,0x40010
    800012fc:	001080b3          	add	x1,x1,x1
    80001300:	0240a683          	lw	x13,36(x1) 
    80001304:	418686bb          	subw	x13,x13,x24
    80001308:	00d94733          	xor	x14,x18,x13
    8000130c:	00336ab3          	or	x21,x6,x3
    80001310:	40010fb7          	lui	x31,0x40010
    80001314:	01ff8fb3          	add	x31,x31,x31
    80001318:	090fba83          	ld	x21,144(x31) 
    8000131c:	01bc8333          	add	x6,x25,x27
    80001320:	400103b7          	lui	x7,0x40010
    80001324:	007383b3          	add	x7,x7,x7
    80001328:	10038393          	addi	x7,x7,256 
    8000132c:	fb938f03          	lb	x30,-71(x7)
    80001330:	41e501b3          	sub	x3,x10,x30
    80001334:	01030033          	add	x0,x6,x16
    80001338:	e1ea4f13          	xori	x30,x20,-482
    8000133c:	400108b7          	lui	x17,0x40010
    80001340:	011888b3          	add	x17,x17,x17
    80001344:	10088893          	addi	x17,x17,256 
    80001348:	f7489623          	sh	x20,-148(x17)
    8000134c:	40010bb7          	lui	x23,0x40010
    80001350:	017b8bb3          	add	x23,x23,x23
    80001354:	100b8b93          	addi	x23,x23,256 
    80001358:	f7abbc23          	sd	x26,-136(x23)
    8000135c:	0cce879b          	addiw	x15,x29,204
    80001360:	bd41e093          	ori	x1,x3,-1068
    80001364:	01a5043b          	addw	x8,x10,x26
    80001368:	400104b7          	lui	x9,0x40010
    8000136c:	009484b3          	add	x9,x9,x9
    80001370:	0e84b983          	ld	x19,232(x9) 
    80001374:	40010d37          	lui	x26,0x40010
    80001378:	01ad0d33          	add	x26,x26,x26
    8000137c:	100d0d13          	addi	x26,x26,256 
    80001380:	fcad1683          	lh	x13,-54(x26)
    80001384:	08868693          	addi	x13,x13,136
    80001388:	0106063b          	addw	x12,x12,x16
    8000138c:	e9a80113          	addi	x2,x16,-358
    80001390:	01090ebb          	addw	x29,x18,x16
    80001394:	40798ebb          	subw	x29,x19,x7
    80001398:	400103b7          	lui	x7,0x40010
    8000139c:	007383b3          	add	x7,x7,x7
    800013a0:	10038393          	addi	x7,x7,256 
    800013a4:	fc239d03          	lh	x26,-62(x7)
    800013a8:	00e16433          	or	x8,x2,x14
    800013ac:	40010e37          	lui	x28,0x40010
    800013b0:	01ce0e33          	add	x28,x28,x28
    800013b4:	0ece0ea3          	sb	x12,253(x28) 
    800013b8:	40010cb7          	lui	x25,0x40010
    800013bc:	019c8cb3          	add	x25,x25,x25
    800013c0:	100c8c93          	addi	x25,x25,256 
    800013c4:	f98cba03          	ld	x20,-104(x25)
    800013c8:	00ea4a33          	xor	x20,x20,x14
    800013cc:	01048433          	add	x8,x9,x16
    800013d0:	40010537          	lui	x10,0x40010
    800013d4:	00a50533          	add	x10,x10,x10
    800013d8:	10050513          	addi	x10,x10,256 
    800013dc:	f8253c23          	sd	x2,-104(x10)
    800013e0:	e825fd93          	andi	x27,x11,-382
    800013e4:	40010bb7          	lui	x23,0x40010
    800013e8:	017b8bb3          	add	x23,x23,x23
    800013ec:	058baf83          	lw	x31,88(x23) 
    800013f0:	00d645b3          	xor	x11,x12,x13
    800013f4:	400104b7          	lui	x9,0x40010
    800013f8:	009484b3          	add	x9,x9,x9
    800013fc:	10048493          	addi	x9,x9,256 
    80001400:	fb14c703          	lbu	x14,-79(x9)
    80001404:	01577933          	and	x18,x14,x21
    80001408:	1c997e93          	andi	x29,x18,457
    8000140c:	004e83bb          	addw	x7,x29,x4
    80001410:	41908ebb          	subw	x29,x1,x25
    80001414:	40010937          	lui	x18,0x40010
    80001418:	01290933          	add	x18,x18,x18
    8000141c:	10090913          	addi	x18,x18,256 
    80001420:	f5a91e03          	lh	x28,-166(x18)
    80001424:	00496e33          	or	x28,x18,x4
    80001428:	40010d37          	lui	x26,0x40010
    8000142c:	01ad0d33          	add	x26,x26,x26
    80001430:	100d0d13          	addi	x26,x26,256 
    80001434:	f7dd0383          	lb	x7,-131(x26)
    80001438:	407c80bb          	subw	x1,x25,x7
    8000143c:	40010237          	lui	x4,0x40010
    80001440:	00420233          	add	x4,x4,x4
    80001444:	08c25583          	lhu	x11,140(x4) 
    80001448:	cb75f593          	andi	x11,x11,-841
    8000144c:	7269029b          	addiw	x5,x18,1830
    80001450:	40010137          	lui	x2,0x40010
    80001454:	00210133          	add	x2,x2,x2
    80001458:	10010113          	addi	x2,x2,256 
    8000145c:	f3d12223          	sw	x29,-220(x2)
    80001460:	40010fb7          	lui	x31,0x40010
    80001464:	01ff8fb3          	add	x31,x31,x31
    80001468:	028fb203          	ld	x4,40(x31) 
    8000146c:	00bf07b3          	add	x15,x30,x11
    80001470:	404480bb          	subw	x1,x9,x4
    80001474:	40010237          	lui	x4,0x40010
    80001478:	00420233          	add	x4,x4,x4
    8000147c:	10020213          	addi	x4,x4,256 
    80001480:	f6821a23          	sh	x8,-140(x4) 
    80001484:	400100b7          	lui	x1,0x40010
    80001488:	001080b3          	add	x1,x1,x1
    8000148c:	10008093          	addi	x1,x1,256 
    80001490:	f180b423          	sd	x24,-248(x1)
    80001494:	01be7733          	and	x14,x28,x27
    80001498:	91258e93          	addi	x29,x11,-1774
    8000149c:	ba32c293          	xori	x5,x5,-1117
    800014a0:	40010537          	lui	x10,0x40010
    800014a4:	00a50533          	add	x10,x10,x10
    800014a8:	10050513          	addi	x10,x10,256 
    800014ac:	fc454103          	lbu	x2,-60(x10)
    800014b0:	002af233          	and	x4,x21,x2
    800014b4:	40010337          	lui	x6,0x40010
    800014b8:	00630333          	add	x6,x6,x6
    800014bc:	0f431823          	sh	x20,240(x6) 
    800014c0:	415f8f33          	sub	x30,x31,x21
    800014c4:	0043e933          	or	x18,x7,x4
    800014c8:	400100b7          	lui	x1,0x40010
    800014cc:	001080b3          	add	x1,x1,x1
    800014d0:	10008093          	addi	x1,x1,256 
    800014d4:	faa0d603          	lhu	x12,-86(x1)
    800014d8:	400107b7          	lui	x15,0x40010
    800014dc:	00f787b3          	add	x15,x15,x15
    800014e0:	0937c383          	lbu	x7,147(x15) 
    800014e4:	3ad38f13          	addi	x30,x7,941
    800014e8:	40328a3b          	subw	x20,x5,x3
    800014ec:	40010237          	lui	x4,0x40010
    800014f0:	00420233          	add	x4,x4,x4
    800014f4:	0ec21083          	lh	x1,236(x4) 
    800014f8:	400102b7          	lui	x5,0x40010
    800014fc:	005282b3          	add	x5,x5,x5
    80001500:	10028293          	addi	x5,x5,256 
    80001504:	fe52b423          	sd	x5,-24(x5)
    80001508:	40010d37          	lui	x26,0x40010
    8000150c:	01ad0d33          	add	x26,x26,x26
    80001510:	100d0d13          	addi	x26,x26,256 
    80001514:	f70d5e03          	lhu	x28,-144(x26)
    80001518:	404d0e33          	sub	x28,x26,x4
    8000151c:	400104b7          	lui	x9,0x40010
    80001520:	009484b3          	add	x9,x9,x9
    80001524:	10048493          	addi	x9,x9,256 
    80001528:	f1048aa3          	sb	x16,-235(x9)
    8000152c:	fa4a8e9b          	addiw	x29,x21,-92
    80001530:	004b8f33          	add	x30,x23,x4
    80001534:	efa27793          	andi	x15,x4,-262
    80001538:	01928d33          	add	x26,x5,x25
    8000153c:	400102b7          	lui	x5,0x40010
    80001540:	005282b3          	add	x5,x5,x5
    80001544:	0bb2cd83          	lbu	x27,187(x5) 
    80001548:	a1106693          	ori	x13,x0,-1519
    8000154c:	01ab80bb          	addw	x1,x23,x26
    80001550:	f422ef13          	ori	x30,x5,-190
    80001554:	40010337          	lui	x6,0x40010
    80001558:	00630333          	add	x6,x6,x6
    8000155c:	0e033a83          	ld	x21,224(x6) 
    80001560:	420f6893          	ori	x17,x30,1056
    80001564:	004a01bb          	addw	x3,x20,x4
    80001568:	afdbce13          	xori	x28,x23,-1283
    8000156c:	40010eb7          	lui	x29,0x40010
    80001570:	01de8eb3          	add	x29,x29,x29
    80001574:	100e8e93          	addi	x29,x29,256 
    80001578:	f22e9623          	sh	x2,-212(x29)
    8000157c:	45780d93          	addi	x27,x16,1111
    80001580:	400109b7          	lui	x19,0x40010
    80001584:	013989b3          	add	x19,x19,x19
    80001588:	0c19ac23          	sw	x1,216(x19) 
    8000158c:	41660cb3          	sub	x25,x12,x22
    80001590:	4feb891b          	addiw	x18,x23,1278
    80001594:	400108b7          	lui	x17,0x40010
    80001598:	011888b3          	add	x17,x17,x17
    8000159c:	10088893          	addi	x17,x17,256 
    800015a0:	f498b823          	sd	x9,-176(x17)
    800015a4:	400104b7          	lui	x9,0x40010
    800015a8:	009484b3          	add	x9,x9,x9
    800015ac:	10048493          	addi	x9,x9,256 
    800015b0:	f3c4de03          	lhu	x28,-196(x9)
    800015b4:	01690e3b          	addw	x28,x18,x22
    800015b8:	40010c37          	lui	x24,0x40010
    800015bc:	018c0c33          	add	x24,x24,x24
    800015c0:	100c0c13          	addi	x24,x24,256 
    800015c4:	f60c2483          	lw	x9,-160(x24)
    800015c8:	52694d13          	xori	x26,x18,1318
    800015cc:	40010337          	lui	x6,0x40010
    800015d0:	00630333          	add	x6,x6,x6
    800015d4:	05f32223          	sw	x31,68(x6) 
    800015d8:	40010337          	lui	x6,0x40010
    800015dc:	00630333          	add	x6,x6,x6
    800015e0:	10030313          	addi	x6,x6,256 
    800015e4:	f8231923          	sh	x2,-110(x6)
    800015e8:	4121883b          	subw	x16,x3,x18
    800015ec:	002cf1b3          	and	x3,x25,x2
    800015f0:	400105b7          	lui	x11,0x40010
    800015f4:	00b585b3          	add	x11,x11,x11
    800015f8:	10058593          	addi	x11,x11,256 
    800015fc:	f025c303          	lbu	x6,-254(x11)
    80001600:	53130313          	addi	x6,x6,1329
    80001604:	00d00433          	add	x8,x0,x13
    80001608:	40010637          	lui	x12,0x40010
    8000160c:	00c60633          	add	x12,x12,x12
    80001610:	00861c03          	lh	x24,8(x12) 
    80001614:	417a00bb          	subw	x1,x20,x23
    80001618:	001d0fbb          	addw	x31,x26,x1
    8000161c:	412b0ab3          	sub	x21,x22,x18
    80001620:	400100b7          	lui	x1,0x40010
    80001624:	001080b3          	add	x1,x1,x1
    80001628:	10008093          	addi	x1,x1,256 
    8000162c:	f3108083          	lb	x1,-207(x1)
    80001630:	21b4e093          	ori	x1,x9,539
    80001634:	40010d37          	lui	x26,0x40010
    80001638:	01ad0d33          	add	x26,x26,x26
    8000163c:	096d4f03          	lbu	x30,150(x26) 
    80001640:	90f84f13          	xori	x30,x16,-1777
    80001644:	40010bb7          	lui	x23,0x40010
    80001648:	017b8bb3          	add	x23,x23,x23
    8000164c:	03eb9703          	lh	x14,62(x23) 
    80001650:	6b977213          	andi	x4,x14,1721
    80001654:	40010537          	lui	x10,0x40010
    80001658:	00a50533          	add	x10,x10,x10
    8000165c:	10050513          	addi	x10,x10,256 
    80001660:	f5053483          	ld	x9,-176(x10)
    80001664:	8494c493          	xori	x9,x9,-1975
    80001668:	40010bb7          	lui	x23,0x40010
    8000166c:	017b8bb3          	add	x23,x23,x23
    80001670:	094b9703          	lh	x14,148(x23) 
    80001674:	ba577f93          	andi	x31,x14,-1115
    80001678:	400108b7          	lui	x17,0x40010
    8000167c:	011888b3          	add	x17,x17,x17
    80001680:	0a18c083          	lbu	x1,161(x17) 
    80001684:	00f0c7b3          	xor	x15,x1,x15
    80001688:	ce76fa13          	andi	x20,x13,-793
    8000168c:	41c888bb          	subw	x17,x17,x28
    80001690:	01130fbb          	addw	x31,x6,x17
    80001694:	01cc4bb3          	xor	x23,x24,x28
    80001698:	400105b7          	lui	x11,0x40010
    8000169c:	00b585b3          	add	x11,x11,x11
    800016a0:	10058593          	addi	x11,x11,256 
    800016a4:	fb25da83          	lhu	x21,-78(x11)
    800016a8:	01556533          	or	x10,x10,x21
    800016ac:	007f6cb3          	or	x25,x30,x7
    800016b0:	400108b7          	lui	x17,0x40010
    800016b4:	011888b3          	add	x17,x17,x17
    800016b8:	0988ac23          	sw	x24,152(x17) 
    800016bc:	01fece33          	xor	x28,x29,x31
    800016c0:	ebaf829b          	addiw	x5,x31,-326
    800016c4:	40010f37          	lui	x30,0x40010
    800016c8:	01ef0f33          	add	x30,x30,x30
    800016cc:	058f2203          	lw	x4,88(x30) 
    800016d0:	01a24a33          	xor	x20,x4,x26
    800016d4:	f2276093          	ori	x1,x14,-222
    800016d8:	af3dfe93          	andi	x29,x27,-1293
    800016dc:	40010db7          	lui	x27,0x40010
    800016e0:	01bd8db3          	add	x27,x27,x27
    800016e4:	0b8de683          	lwu	x13,184(x27) 
    800016e8:	009577b3          	and	x15,x10,x9
    800016ec:	400105b7          	lui	x11,0x40010
    800016f0:	00b585b3          	add	x11,x11,x11
    800016f4:	10058593          	addi	x11,x11,256 
    800016f8:	fad5a023          	sw	x13,-96(x11)
    800016fc:	7464e813          	ori	x16,x9,1862
    80001700:	41298ab3          	sub	x21,x19,x18
    80001704:	002c86bb          	addw	x13,x25,x2
    80001708:	40010f37          	lui	x30,0x40010
    8000170c:	01ef0f33          	add	x30,x30,x30
    80001710:	012f5b83          	lhu	x23,18(x30) 
    80001714:	01556bb3          	or	x23,x10,x21
    80001718:	400104b7          	lui	x9,0x40010
    8000171c:	009484b3          	add	x9,x9,x9
    80001720:	0294a023          	sw	x9,32(x9) 
    80001724:	89f6f893          	andi	x17,x13,-1889
    80001728:	40010937          	lui	x18,0x40010
    8000172c:	01290933          	add	x18,x18,x18
    80001730:	09c96e83          	lwu	x29,156(x18) 
    80001734:	0007cb33          	xor	x22,x15,x0
    80001738:	afdc0b93          	addi	x23,x24,-1283
    8000173c:	01777eb3          	and	x29,x14,x23
    80001740:	99510d13          	addi	x26,x2,-1643
    80001744:	40010837          	lui	x16,0x40010
    80001748:	01080833          	add	x16,x16,x16
    8000174c:	08482083          	lw	x1,132(x16) 
    80001750:	c2060b93          	addi	x23,x12,-992
    80001754:	011089bb          	addw	x19,x1,x17
    80001758:	40010cb7          	lui	x25,0x40010
    8000175c:	019c8cb3          	add	x25,x25,x25
    80001760:	05acc783          	lbu	x15,90(x25) 
    80001764:	41d78733          	sub	x14,x15,x29
    80001768:	40ca06b3          	sub	x13,x20,x12
    8000176c:	a2f16513          	ori	x10,x2,-1489
    80001770:	40010337          	lui	x6,0x40010
    80001774:	00630333          	add	x6,x6,x6
    80001778:	10030313          	addi	x6,x6,256 
    8000177c:	f70304a3          	sb	x16,-151(x6)
    80001780:	00efc633          	xor	x12,x31,x14
    80001784:	40010137          	lui	x2,0x40010
    80001788:	00210133          	add	x2,x2,x2
    8000178c:	03816a03          	lwu	x20,56(x2) 
    80001790:	005a4db3          	xor	x27,x20,x5
    80001794:	40010ab7          	lui	x21,0x40010
    80001798:	015a8ab3          	add	x21,x21,x21
    8000179c:	100a8a93          	addi	x21,x21,256 
    800017a0:	f1ea9f03          	lh	x30,-226(x21)
    800017a4:	002f0f33          	add	x30,x30,x2
    800017a8:	40010e37          	lui	x28,0x40010
    800017ac:	01ce0e33          	add	x28,x28,x28
    800017b0:	0ece2623          	sw	x12,236(x28) 
    800017b4:	40010b37          	lui	x22,0x40010
    800017b8:	016b0b33          	add	x22,x22,x22
    800017bc:	00db00a3          	sb	x13,1(x22) 
    800017c0:	40010fb7          	lui	x31,0x40010
    800017c4:	01ff8fb3          	add	x31,x31,x31
    800017c8:	04cfa383          	lw	x7,76(x31) 
    800017cc:	40010e37          	lui	x28,0x40010
    800017d0:	01ce0e33          	add	x28,x28,x28
    800017d4:	0ace6803          	lwu	x16,172(x28) 
    800017d8:	010ceeb3          	or	x29,x25,x16
    800017dc:	40530933          	sub	x18,x6,x5
    800017e0:	015c0ab3          	add	x21,x24,x21
    800017e4:	40010d37          	lui	x26,0x40010
    800017e8:	01ad0d33          	add	x26,x26,x26
    800017ec:	100d0d13          	addi	x26,x26,256 
    800017f0:	f07d08a3          	sb	x7,-239(x26)
    800017f4:	40010137          	lui	x2,0x40010
    800017f8:	00210133          	add	x2,x2,x2
    800017fc:	10010113          	addi	x2,x2,256 
    80001800:	f3112423          	sw	x17,-216(x2)
    80001804:	40010637          	lui	x12,0x40010
    80001808:	00c60633          	add	x12,x12,x12
    8000180c:	0bf60983          	lb	x19,191(x12) 
    80001810:	ae54cb93          	xori	x23,x9,-1307
    80001814:	40010c37          	lui	x24,0x40010
    80001818:	018c0c33          	add	x24,x24,x24
    8000181c:	068c6503          	lwu	x10,104(x24) 
    80001820:	00d577b3          	and	x15,x10,x13
    80001824:	00f5073b          	addw	x14,x10,x15
    80001828:	00adeeb3          	or	x29,x27,x10
    8000182c:	40010a37          	lui	x20,0x40010
    80001830:	014a0a33          	add	x20,x20,x20
    80001834:	100a0a13          	addi	x20,x20,256 
    80001838:	ffda4483          	lbu	x9,-3(x20)
    8000183c:	0661861b          	addiw	x12,x3,102
    80001840:	40010337          	lui	x6,0x40010
    80001844:	00630333          	add	x6,x6,x6
    80001848:	0ac32823          	sw	x12,176(x6) 
    8000184c:	400104b7          	lui	x9,0x40010
    80001850:	009484b3          	add	x9,x9,x9
    80001854:	10048493          	addi	x9,x9,256 
    80001858:	f004bf03          	ld	x30,-256(x9)
    8000185c:	001e4833          	xor	x16,x28,x1
    80001860:	8e8dcc13          	xori	x24,x27,-1816
    80001864:	400100b7          	lui	x1,0x40010
    80001868:	001080b3          	add	x1,x1,x1
    8000186c:	10008093          	addi	x1,x1,256 
    80001870:	fcc0e483          	lwu	x9,-52(x1)
    80001874:	009d8dbb          	addw	x27,x27,x9
    80001878:	40010cb7          	lui	x25,0x40010
    8000187c:	019c8cb3          	add	x25,x25,x25
    80001880:	100c8c93          	addi	x25,x25,256 
    80001884:	ff4cb423          	sd	x20,-24(x25)
    80001888:	003d073b          	addw	x14,x26,x3
    8000188c:	400100b7          	lui	x1,0x40010
    80001890:	001080b3          	add	x1,x1,x1
    80001894:	08f0ac23          	sw	x15,152(x1) 
    80001898:	67894993          	xori	x19,x18,1656
    8000189c:	40010bb7          	lui	x23,0x40010
    800018a0:	017b8bb3          	add	x23,x23,x23
    800018a4:	004be103          	lwu	x2,4(x23) 
    800018a8:	40a10f33          	sub	x30,x2,x10
    800018ac:	01cce7b3          	or	x15,x25,x28
    800018b0:	40010e37          	lui	x28,0x40010
    800018b4:	01ce0e33          	add	x28,x28,x28
    800018b8:	100e0e13          	addi	x28,x28,256 
    800018bc:	ff8e2583          	lw	x11,-8(x28)
    800018c0:	00b90f33          	add	x30,x18,x11
    800018c4:	400b09bb          	subw	x19,x22,x0
    800018c8:	400108b7          	lui	x17,0x40010
    800018cc:	011888b3          	add	x17,x17,x17
    800018d0:	0808ea03          	lwu	x20,128(x17) 
    800018d4:	414908bb          	subw	x17,x18,x20
    800018d8:	00fee0b3          	or	x1,x29,x15
    800018dc:	06bb7b93          	andi	x23,x22,107
    800018e0:	bdfb0e93          	addi	x29,x22,-1057
    800018e4:	00b481bb          	addw	x3,x9,x11
    800018e8:	4196003b          	subw	x0,x12,x25
    800018ec:	df240a1b          	addiw	x20,x8,-526
    800018f0:	1fb1071b          	addiw	x14,x2,507
    800018f4:	400101b7          	lui	x3,0x40010
    800018f8:	003181b3          	add	x3,x3,x3
    800018fc:	10018193          	addi	x3,x3,256 
    80001900:	f231a423          	sw	x3,-216(x3)
    80001904:	400105b7          	lui	x11,0x40010
    80001908:	00b585b3          	add	x11,x11,x11
    8000190c:	0d158603          	lb	x12,209(x11) 
    80001910:	00df8ebb          	addw	x29,x31,x13
    80001914:	fbb5869b          	addiw	x13,x11,-69
    80001918:	d1eaf113          	andi	x2,x21,-738
    8000191c:	019ff5b3          	and	x11,x31,x25
    80001920:	40010fb7          	lui	x31,0x40010
    80001924:	01ff8fb3          	add	x31,x31,x31
    80001928:	0fdf8d23          	sb	x29,250(x31) 
    8000192c:	0049e733          	or	x14,x19,x4
    80001930:	40010e37          	lui	x28,0x40010
    80001934:	01ce0e33          	add	x28,x28,x28
    80001938:	046e1583          	lh	x11,70(x28) 
    8000193c:	6d2c0f13          	addi	x30,x24,1746
    80001940:	400109b7          	lui	x19,0x40010
    80001944:	013989b3          	add	x19,x19,x19
    80001948:	0089b603          	ld	x12,8(x19) 
    8000194c:	002b4633          	xor	x12,x22,x2
    80001950:	01066833          	or	x16,x12,x16
    80001954:	ed86fe93          	andi	x29,x13,-296
    80001958:	01db84bb          	addw	x9,x23,x29
    8000195c:	40010e37          	lui	x28,0x40010
    80001960:	01ce0e33          	add	x28,x28,x28
    80001964:	0f6e1b03          	lh	x22,246(x28) 
    80001968:	9a2b7b13          	andi	x22,x22,-1630
    8000196c:	00ab6633          	or	x12,x22,x10
    80001970:	40010237          	lui	x4,0x40010
    80001974:	00420233          	add	x4,x4,x4
    80001978:	10020213          	addi	x4,x4,256 
    8000197c:	f3e23423          	sd	x30,-216(x4) 
    80001980:	400101b7          	lui	x3,0x40010
    80001984:	003181b3          	add	x3,x3,x3
    80001988:	10018193          	addi	x3,x3,256 
    8000198c:	fc81b083          	ld	x1,-56(x3)
    80001990:	d5ff8a93          	addi	x21,x31,-673
    80001994:	41b9813b          	subw	x2,x19,x27
    80001998:	40010cb7          	lui	x25,0x40010
    8000199c:	019c8cb3          	add	x25,x25,x25
    800019a0:	0fcced83          	lwu	x27,252(x25) 
    800019a4:	40010bb7          	lui	x23,0x40010
    800019a8:	017b8bb3          	add	x23,x23,x23
    800019ac:	028bbd03          	ld	x26,40(x23) 
    800019b0:	4fe14913          	xori	x18,x2,1278
    800019b4:	0025eb33          	or	x22,x11,x2
    800019b8:	40010db7          	lui	x27,0x40010
    800019bc:	01bd8db3          	add	x27,x27,x27
    800019c0:	0cdda423          	sw	x13,200(x27) 
    800019c4:	400105b7          	lui	x11,0x40010
    800019c8:	00b585b3          	add	x11,x11,x11
    800019cc:	10058593          	addi	x11,x11,256 
    800019d0:	f0d5c083          	lbu	x1,-243(x11)
    800019d4:	54504093          	xori	x1,x0,1349
    800019d8:	400102b7          	lui	x5,0x40010
    800019dc:	005282b3          	add	x5,x5,x5
    800019e0:	10028293          	addi	x5,x5,256 
    800019e4:	fd228d83          	lb	x27,-46(x5)
    800019e8:	00278d3b          	addw	x26,x15,x2
    800019ec:	40010837          	lui	x16,0x40010
    800019f0:	01080833          	add	x16,x16,x16
    800019f4:	0b381d23          	sh	x19,186(x16) 
    800019f8:	004eeab3          	or	x21,x29,x4
    800019fc:	400103b7          	lui	x7,0x40010
    80001a00:	007383b3          	add	x7,x7,x7
    80001a04:	0c93a223          	sw	x9,196(x7) 
    80001a08:	fa638713          	addi	x14,x7,-90
    80001a0c:	40010e37          	lui	x28,0x40010
    80001a10:	01ce0e33          	add	x28,x28,x28
    80001a14:	0b0e3423          	sd	x16,168(x28) 
    80001a18:	003ff233          	and	x4,x31,x3
    80001a1c:	40398033          	sub	x0,x19,x3
    80001a20:	41e98ebb          	subw	x29,x19,x30
    80001a24:	005f823b          	addw	x4,x31,x5
    80001a28:	400107b7          	lui	x15,0x40010
    80001a2c:	00f787b3          	add	x15,x15,x15
    80001a30:	10078793          	addi	x15,x15,256 
    80001a34:	fbc78e03          	lb	x28,-68(x15)
    80001a38:	402987b3          	sub	x15,x19,x2
    80001a3c:	40010db7          	lui	x27,0x40010
    80001a40:	01bd8db3          	add	x27,x27,x27
    80001a44:	100d8d93          	addi	x27,x27,256 
    80001a48:	f34d8ba3          	sb	x20,-201(x27)
    80001a4c:	40010e37          	lui	x28,0x40010
    80001a50:	01ce0e33          	add	x28,x28,x28
    80001a54:	100e0e13          	addi	x28,x28,256 
    80001a58:	fc8e2183          	lw	x3,-56(x28)
    80001a5c:	405801bb          	subw	x3,x16,x5
    80001a60:	40010937          	lui	x18,0x40010
    80001a64:	01290933          	add	x18,x18,x18
    80001a68:	0b894f83          	lbu	x31,184(x18) 
    80001a6c:	484aef93          	ori	x31,x21,1156
    80001a70:	8911809b          	addiw	x1,x3,-1903
    80001a74:	40010737          	lui	x14,0x40010
    80001a78:	00e70733          	add	x14,x14,x14
    80001a7c:	00f74783          	lbu	x15,15(x14) 
    80001a80:	00ff8fbb          	addw	x31,x31,x15
    80001a84:	40010537          	lui	x10,0x40010
    80001a88:	00a50533          	add	x10,x10,x10
    80001a8c:	099501a3          	sb	x25,131(x10) 
    80001a90:	40010c37          	lui	x24,0x40010
    80001a94:	018c0c33          	add	x24,x24,x24
    80001a98:	00cc1f23          	sh	x12,30(x24) 
    80001a9c:	40010737          	lui	x14,0x40010
    80001aa0:	00e70733          	add	x14,x14,x14
    80001aa4:	10070713          	addi	x14,x14,256 
    80001aa8:	f6870303          	lb	x6,-152(x14)
    80001aac:	a8fd6c93          	ori	x25,x26,-1393
    80001ab0:	40010837          	lui	x16,0x40010
    80001ab4:	01080833          	add	x16,x16,x16
    80001ab8:	10080813          	addi	x16,x16,256 
    80001abc:	f8283423          	sd	x2,-120(x16)
    80001ac0:	40010fb7          	lui	x31,0x40010
    80001ac4:	01ff8fb3          	add	x31,x31,x31
    80001ac8:	0fcfe403          	lwu	x8,252(x31) 
    80001acc:	4131c413          	xori	x8,x3,1043
    80001ad0:	400109b7          	lui	x19,0x40010
    80001ad4:	013989b3          	add	x19,x19,x19
    80001ad8:	0b89af03          	lw	x30,184(x19) 
    80001adc:	10ef0f13          	addi	x30,x30,270
    80001ae0:	40010537          	lui	x10,0x40010
    80001ae4:	00a50533          	add	x10,x10,x10
    80001ae8:	10050513          	addi	x10,x10,256 
    80001aec:	f2851623          	sh	x8,-212(x10)
    80001af0:	01c3ff33          	and	x30,x7,x28
    80001af4:	40010b37          	lui	x22,0x40010
    80001af8:	016b0b33          	add	x22,x22,x22
    80001afc:	100b0b13          	addi	x22,x22,256 
    80001b00:	fdcb0b03          	lb	x22,-36(x22)
    80001b04:	001f7cb3          	and	x25,x30,x1
    80001b08:	40010bb7          	lui	x23,0x40010
    80001b0c:	017b8bb3          	add	x23,x23,x23
    80001b10:	040ba303          	lw	x6,64(x23) 
    80001b14:	40678dbb          	subw	x27,x15,x6
    80001b18:	00e0c2b3          	xor	x5,x1,x14
    80001b1c:	40010fb7          	lui	x31,0x40010
    80001b20:	01ff8fb3          	add	x31,x31,x31
    80001b24:	04ef8023          	sb	x14,64(x31) 
    80001b28:	40010c37          	lui	x24,0x40010
    80001b2c:	018c0c33          	add	x24,x24,x24
    80001b30:	100c0c13          	addi	x24,x24,256 
    80001b34:	f3fc1523          	sh	x31,-214(x24)
    80001b38:	9acce293          	ori	x5,x25,-1620
    80001b3c:	316d4213          	xori	x4,x26,790
    80001b40:	6a897113          	andi	x2,x18,1704
    80001b44:	01fc0d3b          	addw	x26,x24,x31
    80001b48:	400106b7          	lui	x13,0x40010
    80001b4c:	00d686b3          	add	x13,x13,x13
    80001b50:	0b4689a3          	sb	x20,179(x13) 
    80001b54:	0020f533          	and	x10,x1,x2
    80001b58:	5d720813          	addi	x16,x4,1495 
    80001b5c:	0085c033          	xor	x0,x11,x8
    80001b60:	400105b7          	lui	x11,0x40010
    80001b64:	00b585b3          	add	x11,x11,x11
    80001b68:	02c5ea83          	lwu	x21,44(x11) 
    80001b6c:	010f4ab3          	xor	x21,x30,x16
    80001b70:	40e6803b          	subw	x0,x13,x14
    80001b74:	40010cb7          	lui	x25,0x40010
    80001b78:	019c8cb3          	add	x25,x25,x25
    80001b7c:	028cd303          	lhu	x6,40(x25) 
    80001b80:	c765cf93          	xori	x31,x11,-906
    80001b84:	c9367c13          	andi	x24,x12,-877
    80001b88:	00d8fc33          	and	x24,x17,x13
    80001b8c:	40010d37          	lui	x26,0x40010
    80001b90:	01ad0d33          	add	x26,x26,x26
    80001b94:	100d0d13          	addi	x26,x26,256 
    80001b98:	f4fd1923          	sh	x15,-174(x26)
    80001b9c:	41328ab3          	sub	x21,x5,x19
    80001ba0:	41358bb3          	sub	x23,x11,x19
    80001ba4:	0135fc33          	and	x24,x11,x19
    80001ba8:	98886c13          	ori	x24,x16,-1656
    80001bac:	400105b7          	lui	x11,0x40010
    80001bb0:	00b585b3          	add	x11,x11,x11
    80001bb4:	0565d283          	lhu	x5,86(x11) 
    80001bb8:	00d285bb          	addw	x11,x5,x13
    80001bbc:	400101b7          	lui	x3,0x40010
    80001bc0:	003181b3          	add	x3,x3,x3
    80001bc4:	0cf1bc23          	sd	x15,216(x3) 
    80001bc8:	010375b3          	and	x11,x6,x16
    80001bcc:	012769b3          	or	x19,x14,x18
    80001bd0:	40010537          	lui	x10,0x40010
    80001bd4:	00a50533          	add	x10,x10,x10
    80001bd8:	10050513          	addi	x10,x10,256 
    80001bdc:	f2d54283          	lbu	x5,-211(x10)
    80001be0:	00256033          	or	x0,x10,x2
    80001be4:	d4068c1b          	addiw	x24,x13,-704
    80001be8:	005744b3          	xor	x9,x14,x5
    80001bec:	01836b33          	or	x22,x6,x24
    80001bf0:	400109b7          	lui	x19,0x40010
    80001bf4:	013989b3          	add	x19,x19,x19
    80001bf8:	0249da83          	lhu	x21,36(x19) 
    80001bfc:	b1b96093          	ori	x1,x18,-1253
    80001c00:	40010b37          	lui	x22,0x40010
    80001c04:	016b0b33          	add	x22,x22,x22
    80001c08:	100b0b13          	addi	x22,x22,256 
    80001c0c:	f50b1683          	lh	x13,-176(x22)
    80001c10:	e9196213          	ori	x4,x18,-367
    80001c14:	40010fb7          	lui	x31,0x40010
    80001c18:	01ff8fb3          	add	x31,x31,x31
    80001c1c:	100f8f93          	addi	x31,x31,256 
    80001c20:	fb0fb383          	ld	x7,-80(x31)
    80001c24:	00aa83bb          	addw	x7,x21,x10
    80001c28:	400100b7          	lui	x1,0x40010
    80001c2c:	001080b3          	add	x1,x1,x1
    80001c30:	0e00bb03          	ld	x22,224(x1) 
    80001c34:	40010f37          	lui	x30,0x40010
    80001c38:	01ef0f33          	add	x30,x30,x30
    80001c3c:	100f0f13          	addi	x30,x30,256 
    80001c40:	f2df3c23          	sd	x13,-200(x30)
    80001c44:	400104b7          	lui	x9,0x40010
    80001c48:	009484b3          	add	x9,x9,x9
    80001c4c:	10048493          	addi	x9,x9,256 
    80001c50:	fd44aa83          	lw	x21,-44(x9)
    80001c54:	27dd8f9b          	addiw	x31,x27,637
    80001c58:	df9b0093          	addi	x1,x22,-519
    80001c5c:	013b6433          	or	x8,x22,x19
    80001c60:	400104b7          	lui	x9,0x40010
    80001c64:	009484b3          	add	x9,x9,x9
    80001c68:	10048493          	addi	x9,x9,256 
    80001c6c:	fb448683          	lb	x13,-76(x9)
    80001c70:	408506bb          	subw	x13,x10,x8
    80001c74:	40010bb7          	lui	x23,0x40010
    80001c78:	017b8bb3          	add	x23,x23,x23
    80001c7c:	100b8b93          	addi	x23,x23,256 
    80001c80:	f58bba83          	ld	x21,-168(x23)
    80001c84:	087a8a93          	addi	x21,x21,135
    80001c88:	41cd0233          	sub	x4,x26,x28
    80001c8c:	0114053b          	addw	x10,x8,x17
    80001c90:	d659c013          	xori	x0,x19,-667
    80001c94:	404289bb          	subw	x19,x5,x4
    80001c98:	a3d00b13          	li	x22,-1475
    80001c9c:	91707113          	andi	x2,x0,-1769
    80001ca0:	685d8313          	addi	x6,x27,1669
    80001ca4:	4637029b          	addiw	x5,x14,1123
    80001ca8:	40010a37          	lui	x20,0x40010
    80001cac:	014a0a33          	add	x20,x20,x20
    80001cb0:	070a3883          	ld	x17,112(x20) 
    80001cb4:	d578e893          	ori	x17,x17,-681
    80001cb8:	40010f37          	lui	x30,0x40010
    80001cbc:	01ef0f33          	add	x30,x30,x30
    80001cc0:	100f0f13          	addi	x30,x30,256 
    80001cc4:	f3ff2823          	sw	x31,-208(x30)
    80001cc8:	415a083b          	subw	x16,x20,x21
    80001ccc:	400102b7          	lui	x5,0x40010
    80001cd0:	005282b3          	add	x5,x5,x5
    80001cd4:	10028293          	addi	x5,x5,256 
    80001cd8:	f8629883          	lh	x17,-122(x5)
    80001cdc:	01ee7333          	and	x6,x28,x30
    80001ce0:	41ba0793          	addi	x15,x20,1051
    80001ce4:	40010937          	lui	x18,0x40010
    80001ce8:	01290933          	add	x18,x18,x18
    80001cec:	10090913          	addi	x18,x18,256 
    80001cf0:	fec92603          	lw	x12,-20(x18)
    80001cf4:	58764913          	xori	x18,x12,1415
    80001cf8:	016f003b          	addw	x0,x30,x22
    80001cfc:	00854c33          	xor	x24,x10,x8
    80001d00:	40010cb7          	lui	x25,0x40010
    80001d04:	019c8cb3          	add	x25,x25,x25
    80001d08:	100c8c93          	addi	x25,x25,256 
    80001d0c:	f9ccee83          	lwu	x29,-100(x25)
    80001d10:	40010b37          	lui	x22,0x40010
    80001d14:	016b0b33          	add	x22,x22,x22
    80001d18:	100b0b13          	addi	x22,x22,256 
    80001d1c:	f99b4603          	lbu	x12,-103(x22)
    80001d20:	1823f413          	andi	x8,x7,386
    80001d24:	4566f113          	andi	x2,x13,1110
    80001d28:	0107c833          	xor	x16,x15,x16
    80001d2c:	0985cf93          	xori	x31,x11,152
    80001d30:	400102b7          	lui	x5,0x40010
    80001d34:	005282b3          	add	x5,x5,x5
    80001d38:	0f02e383          	lwu	x7,240(x5) 
    80001d3c:	94416593          	ori	x11,x2,-1724
    80001d40:	40010ab7          	lui	x21,0x40010
    80001d44:	015a8ab3          	add	x21,x21,x21
    80001d48:	100a8a93          	addi	x21,x21,256 
    80001d4c:	f14a9923          	sh	x20,-238(x21)
    80001d50:	40010537          	lui	x10,0x40010
    80001d54:	00a50533          	add	x10,x10,x10
    80001d58:	07e51003          	lh	x0,126(x10) 
    80001d5c:	00c07033          	and	x0,x0,x12
    80001d60:	001bf2b3          	and	x5,x23,x1
    80001d64:	40010f37          	lui	x30,0x40010
    80001d68:	01ef0f33          	add	x30,x30,x30
    80001d6c:	100f0f13          	addi	x30,x30,256 
    80001d70:	fdcf0003          	lb	x0,-36(x30)
    80001d74:	40010637          	lui	x12,0x40010
    80001d78:	00c60633          	add	x12,x12,x12
    80001d7c:	10060613          	addi	x12,x12,256 
    80001d80:	f9c64103          	lbu	x2,-100(x12)
    80001d84:	005ffcb3          	and	x25,x31,x5
    80001d88:	af5ff093          	andi	x1,x31,-1291
    80001d8c:	41138733          	sub	x14,x7,x17
    80001d90:	01796b33          	or	x22,x18,x23
    80001d94:	009df9b3          	and	x19,x27,x9
    80001d98:	419c05bb          	subw	x11,x24,x25
    80001d9c:	40010737          	lui	x14,0x40010
    80001da0:	00e70733          	add	x14,x14,x14
    80001da4:	03c70223          	sb	x28,36(x14) 
    80001da8:	40010cb7          	lui	x25,0x40010
    80001dac:	019c8cb3          	add	x25,x25,x25
    80001db0:	088cd783          	lhu	x15,136(x25) 
    80001db4:	c5e3c793          	xori	x15,x7,-930
    80001db8:	f2b6cd13          	xori	x26,x13,-213
    80001dbc:	40108733          	sub	x14,x1,x1
    80001dc0:	40010637          	lui	x12,0x40010
    80001dc4:	00c60633          	add	x12,x12,x12
    80001dc8:	0fc66003          	lwu	x0,252(x12) 
    80001dcc:	4003803b          	subw	x0,x7,x0
    80001dd0:	00b80cbb          	addw	x25,x16,x11
    80001dd4:	01744533          	xor	x10,x8,x23
    80001dd8:	400104b7          	lui	x9,0x40010
    80001ddc:	009484b3          	add	x9,x9,x9
    80001de0:	09049d03          	lh	x26,144(x9) 
    80001de4:	01ad7033          	and	x0,x26,x26
    80001de8:	40010eb7          	lui	x29,0x40010
    80001dec:	01de8eb3          	add	x29,x29,x29
    80001df0:	038ebd03          	ld	x26,56(x29) 
    80001df4:	40010f37          	lui	x30,0x40010
    80001df8:	01ef0f33          	add	x30,x30,x30
    80001dfc:	100f0f13          	addi	x30,x30,256 
    80001e00:	faaf1c83          	lh	x25,-86(x30)
    80001e04:	00078ab3          	add	x21,x15,x0
    80001e08:	010a7fb3          	and	x31,x20,x16
    80001e0c:	400100b7          	lui	x1,0x40010
    80001e10:	001080b3          	add	x1,x1,x1
    80001e14:	06709723          	sh	x7,110(x1) 
    80001e18:	40010137          	lui	x2,0x40010
    80001e1c:	00210133          	add	x2,x2,x2
    80001e20:	05713423          	sd	x23,72(x2) 
    80001e24:	40010db7          	lui	x27,0x40010
    80001e28:	01bd8db3          	add	x27,x27,x27
    80001e2c:	100d8d93          	addi	x27,x27,256 
    80001e30:	f44dad03          	lw	x26,-188(x27)
    80001e34:	479d4d93          	xori	x27,x26,1145
    80001e38:	40010db7          	lui	x27,0x40010
    80001e3c:	01bd8db3          	add	x27,x27,x27
    80001e40:	100d8d93          	addi	x27,x27,256 
    80001e44:	f8cdef83          	lwu	x31,-116(x27)
    80001e48:	00b70dbb          	addw	x27,x14,x11
    80001e4c:	01096c33          	or	x24,x18,x16
    80001e50:	b021fa13          	andi	x20,x3,-1278
    80001e54:	01b6ccb3          	xor	x25,x13,x27
    80001e58:	0063033b          	addw	x6,x6,x6
    80001e5c:	01fc7833          	and	x16,x24,x31
    80001e60:	40010a37          	lui	x20,0x40010
    80001e64:	014a0a33          	add	x20,x20,x20
    80001e68:	100a0a13          	addi	x20,x20,256 
    80001e6c:	fd1a3023          	sd	x17,-64(x20)
    80001e70:	418d88bb          	subw	x17,x27,x24
    80001e74:	40010537          	lui	x10,0x40010
    80001e78:	00a50533          	add	x10,x10,x10
    80001e7c:	00c53023          	sd	x12,0(x10) 
    80001e80:	40010637          	lui	x12,0x40010
    80001e84:	00c60633          	add	x12,x12,x12
    80001e88:	08c62c23          	sw	x12,152(x12) 
    80001e8c:	400105b7          	lui	x11,0x40010
    80001e90:	00b585b3          	add	x11,x11,x11
    80001e94:	10058593          	addi	x11,x11,256 
    80001e98:	f1558823          	sb	x21,-240(x11)
    80001e9c:	40010537          	lui	x10,0x40010
    80001ea0:	00a50533          	add	x10,x10,x10
    80001ea4:	10050513          	addi	x10,x10,256 
    80001ea8:	fa650723          	sb	x6,-82(x10)
    80001eac:	40010337          	lui	x6,0x40010
    80001eb0:	00630333          	add	x6,x6,x6
    80001eb4:	02432823          	sw	x4,48(x6) 
    80001eb8:	013001bb          	addw	x3,x0,x19
    80001ebc:	4160033b          	negw	x6,x22
    80001ec0:	01a48e33          	add	x28,x9,x26
    80001ec4:	40010437          	lui	x8,0x40010
    80001ec8:	00840433          	add	x8,x8,x8
    80001ecc:	10040413          	addi	x8,x8,256 
    80001ed0:	f7442d03          	lw	x26,-140(x8)
    80001ed4:	00414b33          	xor	x22,x2,x4
    80001ed8:	00ee75b3          	and	x11,x28,x14
    80001edc:	321b4213          	xori	x4,x22,801
    80001ee0:	40010137          	lui	x2,0x40010
    80001ee4:	00210133          	add	x2,x2,x2
    80001ee8:	05a15f83          	lhu	x31,90(x2) 
    80001eec:	01c7843b          	addw	x8,x15,x28
    80001ef0:	00d08b33          	add	x22,x1,x13
    80001ef4:	40010a37          	lui	x20,0x40010
    80001ef8:	014a0a33          	add	x20,x20,x20
    80001efc:	100a0a13          	addi	x20,x20,256 
    80001f00:	f38a6903          	lwu	x18,-200(x20)
    80001f04:	40010437          	lui	x8,0x40010
    80001f08:	00840433          	add	x8,x8,x8
    80001f0c:	10040413          	addi	x8,x8,256 
    80001f10:	f2741b23          	sh	x7,-202(x8)
    80001f14:	40010c37          	lui	x24,0x40010
    80001f18:	018c0c33          	add	x24,x24,x24
    80001f1c:	100c0c13          	addi	x24,x24,256 
    80001f20:	f9ac5b83          	lhu	x23,-102(x24)
    80001f24:	400107b7          	lui	x15,0x40010
    80001f28:	00f787b3          	add	x15,x15,x15
    80001f2c:	10078793          	addi	x15,x15,256 
    80001f30:	fe978ca3          	sb	x9,-7(x15)
    80001f34:	f5f58293          	addi	x5,x11,-161
    80001f38:	01fe6733          	or	x14,x28,x31
    80001f3c:	0000f9b3          	and	x19,x1,x0
    80001f40:	01474c33          	xor	x24,x14,x20
    80001f44:	60008a13          	addi	x20,x1,1536
    80001f48:	005f6733          	or	x14,x30,x5
    80001f4c:	00fe083b          	addw	x16,x28,x15
    80001f50:	dc2b7613          	andi	x12,x22,-574
    80001f54:	40010eb7          	lui	x29,0x40010
    80001f58:	01de8eb3          	add	x29,x29,x29
    80001f5c:	0d9e9123          	sh	x25,194(x29) 
    80001f60:	40010ab7          	lui	x21,0x40010
    80001f64:	015a8ab3          	add	x21,x21,x21
    80001f68:	09daa423          	sw	x29,136(x21) 
    80001f6c:	01f8fa33          	and	x20,x17,x31
    80001f70:	0198ef33          	or	x30,x17,x25
    80001f74:	40010937          	lui	x18,0x40010
    80001f78:	01290933          	add	x18,x18,x18
    80001f7c:	0f095103          	lhu	x2,240(x18) 
    80001f80:	00e049b3          	xor	x19,x0,x14
    80001f84:	40a703b3          	sub	x7,x14,x10
    80001f88:	40b08933          	sub	x18,x1,x11
    80001f8c:	40010537          	lui	x10,0x40010
    80001f90:	00a50533          	add	x10,x10,x10
    80001f94:	10050513          	addi	x10,x10,256 
    80001f98:	f7453423          	sd	x20,-152(x10)
    80001f9c:	01bf71b3          	and	x3,x30,x27
    80001fa0:	40d5053b          	subw	x10,x10,x13
    80001fa4:	40010837          	lui	x16,0x40010
    80001fa8:	01080833          	add	x16,x16,x16
    80001fac:	0fa80803          	lb	x16,250(x16) 
    80001fb0:	d40cf313          	andi	x6,x25,-704
    80001fb4:	400102b7          	lui	x5,0x40010
    80001fb8:	005282b3          	add	x5,x5,x5
    80001fbc:	10028293          	addi	x5,x5,256 
    80001fc0:	fa029783          	lh	x15,-96(x5)
    80001fc4:	4d240c93          	addi	x25,x8,1234
    80001fc8:	e0016f13          	ori	x30,x2,-512
    80001fcc:	019fc133          	xor	x2,x31,x25
    80001fd0:	40010337          	lui	x6,0x40010
    80001fd4:	00630333          	add	x6,x6,x6
    80001fd8:	02833c23          	sd	x8,56(x6) 
    80001fdc:	019a8833          	add	x16,x21,x25
    80001fe0:	250cc213          	xori	x4,x25,592
    80001fe4:	400100b7          	lui	x1,0x40010
    80001fe8:	001080b3          	add	x1,x1,x1
    80001fec:	06c0d883          	lhu	x17,108(x1) 
    80001ff0:	39ba889b          	addiw	x17,x21,923
    80001ff4:	59557813          	andi	x16,x10,1429
    80001ff8:	400109b7          	lui	x19,0x40010
    80001ffc:	013989b3          	add	x19,x19,x19
    80002000:	10098993          	addi	x19,x19,256 
    80002004:	fe89ad03          	lw	x26,-24(x19)
    80002008:	40010937          	lui	x18,0x40010
    8000200c:	01290933          	add	x18,x18,x18
    80002010:	09090a83          	lb	x21,144(x18) 
    80002014:	85dacf13          	xori	x30,x21,-1955
    80002018:	40010eb7          	lui	x29,0x40010
    8000201c:	01de8eb3          	add	x29,x29,x29
    80002020:	100e8e93          	addi	x29,x29,256 
    80002024:	f6be8aa3          	sb	x11,-139(x29)
    80002028:	9bdc4293          	xori	x5,x24,-1603
    8000202c:	40010137          	lui	x2,0x40010
    80002030:	00210133          	add	x2,x2,x2
    80002034:	10010113          	addi	x2,x2,256 
    80002038:	f8e14d83          	lbu	x27,-114(x2)
    8000203c:	017d7db3          	and	x27,x26,x23
    80002040:	ad44059b          	addiw	x11,x8,-1324
    80002044:	003fceb3          	xor	x29,x31,x3
    80002048:	402683bb          	subw	x7,x13,x2
    8000204c:	01e90b33          	add	x22,x18,x30
    80002050:	40010837          	lui	x16,0x40010
    80002054:	01080833          	add	x16,x16,x16
    80002058:	0f084f03          	lbu	x30,240(x16) 
    8000205c:	878d8f13          	addi	x30,x27,-1928
    80002060:	40010db7          	lui	x27,0x40010
    80002064:	01bd8db3          	add	x27,x27,x27
    80002068:	024db023          	sd	x4,32(x27) 
    8000206c:	40010537          	lui	x10,0x40010
    80002070:	00a50533          	add	x10,x10,x10
    80002074:	0c850583          	lb	x11,200(x10) 
    80002078:	418188bb          	subw	x17,x3,x24
    8000207c:	40010937          	lui	x18,0x40010
    80002080:	01290933          	add	x18,x18,x18
    80002084:	0a890383          	lb	x7,168(x18) 
    80002088:	405c0f33          	sub	x30,x24,x5
    8000208c:	401a0f33          	sub	x30,x20,x1
    80002090:	40010837          	lui	x16,0x40010
    80002094:	01080833          	add	x16,x16,x16
    80002098:	10080813          	addi	x16,x16,256 
    8000209c:	f9b82e23          	sw	x27,-100(x16)
    800020a0:	400105b7          	lui	x11,0x40010
    800020a4:	00b585b3          	add	x11,x11,x11
    800020a8:	10058593          	addi	x11,x11,256 
    800020ac:	fb95b823          	sd	x25,-80(x11)
    800020b0:	40010e37          	lui	x28,0x40010
    800020b4:	01ce0e33          	add	x28,x28,x28
    800020b8:	100e0e13          	addi	x28,x28,256 
    800020bc:	fb8e4603          	lbu	x12,-72(x28)
    800020c0:	00c06533          	or	x10,x0,x12
    800020c4:	411c01bb          	subw	x3,x24,x17
    800020c8:	40010db7          	lui	x27,0x40010
    800020cc:	01bd8db3          	add	x27,x27,x27
    800020d0:	100d8d93          	addi	x27,x27,256 
    800020d4:	f7cda303          	lw	x6,-132(x27)
    800020d8:	406082bb          	subw	x5,x1,x6
    800020dc:	40010437          	lui	x8,0x40010
    800020e0:	00840433          	add	x8,x8,x8
    800020e4:	03940d23          	sb	x25,58(x8) 
    800020e8:	018a84b3          	add	x9,x21,x24
    800020ec:	00bf84bb          	addw	x9,x31,x11
    800020f0:	400109b7          	lui	x19,0x40010
    800020f4:	013989b3          	add	x19,x19,x19
    800020f8:	10098993          	addi	x19,x19,256 
    800020fc:	f9e9dd03          	lhu	x26,-98(x19)
    80002100:	40010937          	lui	x18,0x40010
    80002104:	01290933          	add	x18,x18,x18
    80002108:	10090913          	addi	x18,x18,256 
    8000210c:	fa894c03          	lbu	x24,-88(x18)
    80002110:	405687bb          	subw	x15,x13,x5
    80002114:	41ce8b3b          	subw	x22,x29,x28
    80002118:	00624f33          	xor	x30,x4,x6
    8000211c:	40010bb7          	lui	x23,0x40010
    80002120:	017b8bb3          	add	x23,x23,x23
    80002124:	0a8bdf83          	lhu	x31,168(x23) 
    80002128:	400102b7          	lui	x5,0x40010
    8000212c:	005282b3          	add	x5,x5,x5
    80002130:	10028293          	addi	x5,x5,256 
    80002134:	f122d383          	lhu	x7,-238(x5)
    80002138:	c45e6393          	ori	x7,x28,-955
    8000213c:	40010eb7          	lui	x29,0x40010
    80002140:	01de8eb3          	add	x29,x29,x29
    80002144:	03aed383          	lhu	x7,58(x29) 
    80002148:	0039fbb3          	and	x23,x19,x3
    8000214c:	00f10d3b          	addw	x26,x2,x15
    80002150:	c15ef113          	andi	x2,x29,-1003
    80002154:	41c80d33          	sub	x26,x16,x28
    80002158:	01950fb3          	add	x31,x10,x25
    8000215c:	400100b7          	lui	x1,0x40010
    80002160:	001080b3          	add	x1,x1,x1
    80002164:	10008093          	addi	x1,x1,256 
    80002168:	faa0d403          	lhu	x8,-86(x1)
    8000216c:	c5d40413          	addi	x8,x8,-931
    80002170:	0178c933          	xor	x18,x17,x23
    80002174:	7b558213          	addi	x4,x11,1973
    80002178:	01696733          	or	x14,x18,x22
    8000217c:	01fc00b3          	add	x1,x24,x31
    80002180:	00520cb3          	add	x25,x4,x5
    80002184:	0145fe33          	and	x28,x11,x20
    80002188:	0053c833          	xor	x16,x7,x5
    8000218c:	01ef02bb          	addw	x5,x30,x30
    80002190:	01bb66b3          	or	x13,x22,x27
    80002194:	40010d37          	lui	x26,0x40010
    80002198:	01ad0d33          	add	x26,x26,x26
    8000219c:	064d1d83          	lh	x27,100(x26) 
    800021a0:	414d8d3b          	subw	x26,x27,x20
    800021a4:	40010f37          	lui	x30,0x40010
    800021a8:	01ef0f33          	add	x30,x30,x30
    800021ac:	100f0f13          	addi	x30,x30,256 
    800021b0:	fe7f2223          	sw	x7,-28(x30)
    800021b4:	40570bbb          	subw	x23,x14,x5
    800021b8:	2cb40e93          	addi	x29,x8,715
    800021bc:	40010fb7          	lui	x31,0x40010
    800021c0:	01ff8fb3          	add	x31,x31,x31
    800021c4:	0f8faa23          	sw	x24,244(x31) 
    800021c8:	009184b3          	add	x9,x3,x9
    800021cc:	f45ff613          	andi	x12,x31,-187
    800021d0:	40010637          	lui	x12,0x40010
    800021d4:	00c60633          	add	x12,x12,x12
    800021d8:	08464383          	lbu	x7,132(x12) 
    800021dc:	40010fb7          	lui	x31,0x40010
    800021e0:	01ff8fb3          	add	x31,x31,x31
    800021e4:	100f8f93          	addi	x31,x31,256 
    800021e8:	f6ffc703          	lbu	x14,-145(x31)
    800021ec:	400102b7          	lui	x5,0x40010
    800021f0:	005282b3          	add	x5,x5,x5
    800021f4:	0a02b103          	ld	x2,160(x5) 
    800021f8:	40010137          	lui	x2,0x40010
    800021fc:	00210133          	add	x2,x2,x2
    80002200:	03f10483          	lb	x9,63(x2) 
    80002204:	40010137          	lui	x2,0x40010
    80002208:	00210133          	add	x2,x2,x2
    8000220c:	10010113          	addi	x2,x2,256 
    80002210:	fa815e03          	lhu	x28,-88(x2)
    80002214:	f58e6e13          	ori	x28,x28,-168
    80002218:	407a03b3          	sub	x7,x20,x7
    8000221c:	de88c493          	xori	x9,x17,-536
    80002220:	40010db7          	lui	x27,0x40010
    80002224:	01bd8db3          	add	x27,x27,x27
    80002228:	100d8d93          	addi	x27,x27,256 
    8000222c:	ffed8383          	lb	x7,-2(x27)
    80002230:	407a8cbb          	subw	x25,x21,x7
    80002234:	00ee0fbb          	addw	x31,x28,x14
    80002238:	40010737          	lui	x14,0x40010
    8000223c:	00e70733          	add	x14,x14,x14
    80002240:	10070713          	addi	x14,x14,256 
    80002244:	f7073183          	ld	x3,-144(x14)
    80002248:	f299e193          	ori	x3,x19,-215
    8000224c:	0025e033          	or	x0,x11,x2
    80002250:	400107b7          	lui	x15,0x40010
    80002254:	00f787b3          	add	x15,x15,x15
    80002258:	10078793          	addi	x15,x15,256 
    8000225c:	ff97a023          	sw	x25,-32(x15)
    80002260:	40010bb7          	lui	x23,0x40010
    80002264:	017b8bb3          	add	x23,x23,x23
    80002268:	100b8b93          	addi	x23,x23,256 
    8000226c:	f3ebb023          	sd	x30,-224(x23)
    80002270:	40010f37          	lui	x30,0x40010
    80002274:	01ef0f33          	add	x30,x30,x30
    80002278:	100f0f13          	addi	x30,x30,256 
    8000227c:	f14f5583          	lhu	x11,-236(x30)
    80002280:	40b904b3          	sub	x9,x18,x11
    80002284:	40010bb7          	lui	x23,0x40010
    80002288:	017b8bb3          	add	x23,x23,x23
    8000228c:	0cebbc23          	sd	x14,216(x23) 
    80002290:	12938a93          	addi	x21,x7,297
    80002294:	01f3cd33          	xor	x26,x7,x31
    80002298:	c674c393          	xori	x7,x9,-921
    8000229c:	40010637          	lui	x12,0x40010
    800022a0:	00c60633          	add	x12,x12,x12
    800022a4:	10060613          	addi	x12,x12,256 
    800022a8:	f0c65803          	lhu	x16,-244(x12)
    800022ac:	50886813          	ori	x16,x16,1288
    800022b0:	40010237          	lui	x4,0x40010
    800022b4:	00420233          	add	x4,x4,x4
    800022b8:	01722a23          	sw	x23,20(x4) 
    800022bc:	73427893          	andi	x17,x4,1844
    800022c0:	40010137          	lui	x2,0x40010
    800022c4:	00210133          	add	x2,x2,x2
    800022c8:	05816303          	lwu	x6,88(x2) 
    800022cc:	16d37313          	andi	x6,x6,365
    800022d0:	01c4c1b3          	xor	x3,x9,x28
    800022d4:	01f86733          	or	x14,x16,x31
    800022d8:	01ec0cbb          	addw	x25,x24,x30
    800022dc:	ef134e93          	xori	x29,x6,-271
    800022e0:	40010937          	lui	x18,0x40010
    800022e4:	01290933          	add	x18,x18,x18
    800022e8:	10090913          	addi	x18,x18,256 
    800022ec:	f2893883          	ld	x17,-216(x18)
    800022f0:	010ac8b3          	xor	x17,x21,x16
    800022f4:	73570b93          	addi	x23,x14,1845
    800022f8:	01e678b3          	and	x17,x12,x30
    800022fc:	40680f33          	sub	x30,x16,x6
    80002300:	5794821b          	addiw	x4,x9,1401
    80002304:	40010b37          	lui	x22,0x40010
    80002308:	016b0b33          	add	x22,x22,x22
    8000230c:	100b0b13          	addi	x22,x22,256 
    80002310:	f28b2e03          	lw	x28,-216(x22)
    80002314:	0094ec93          	ori	x25,x9,9
    80002318:	40010cb7          	lui	x25,0x40010
    8000231c:	019c8cb3          	add	x25,x25,x25
    80002320:	046c8503          	lb	x10,70(x25) 
    80002324:	cef48c9b          	addiw	x25,x9,-785
    80002328:	40010bb7          	lui	x23,0x40010
    8000232c:	017b8bb3          	add	x23,x23,x23
    80002330:	069baa23          	sw	x9,116(x23) 
    80002334:	00d90a3b          	addw	x20,x18,x13
    80002338:	7e0c049b          	addiw	x9,x24,2016
    8000233c:	0c9fff93          	andi	x31,x31,201
    80002340:	40778a33          	sub	x20,x15,x7
    80002344:	400103b7          	lui	x7,0x40010
    80002348:	007383b3          	add	x7,x7,x7
    8000234c:	09639923          	sh	x22,146(x7) 
    80002350:	400109b7          	lui	x19,0x40010
    80002354:	013989b3          	add	x19,x19,x19
    80002358:	10098993          	addi	x19,x19,256 
    8000235c:	f049ab83          	lw	x23,-252(x19)
    80002360:	003b8cbb          	addw	x25,x23,x3
    80002364:	40010d37          	lui	x26,0x40010
    80002368:	01ad0d33          	add	x26,x26,x26
    8000236c:	100d0d13          	addi	x26,x26,256 
    80002370:	f75d3023          	sd	x21,-160(x26)
    80002374:	400109b7          	lui	x19,0x40010
    80002378:	013989b3          	add	x19,x19,x19
    8000237c:	10098993          	addi	x19,x19,256 
    80002380:	f229cb03          	lbu	x22,-222(x19)
    80002384:	00b7eb33          	or	x22,x15,x11
    80002388:	40770dbb          	subw	x27,x14,x7
    8000238c:	b3be4113          	xori	x2,x28,-1221
    80002390:	40cc833b          	subw	x6,x25,x12
    80002394:	40010737          	lui	x14,0x40010
    80002398:	00e70733          	add	x14,x14,x14
    8000239c:	08874783          	lbu	x15,136(x14) 
    800023a0:	009dc7b3          	xor	x15,x27,x9
    800023a4:	40010eb7          	lui	x29,0x40010
    800023a8:	01de8eb3          	add	x29,x29,x29
    800023ac:	06cee983          	lwu	x19,108(x29) 
    800023b0:	01334833          	xor	x16,x6,x19
    800023b4:	403b0ebb          	subw	x29,x22,x3
    800023b8:	eee16713          	ori	x14,x2,-274
    800023bc:	40010237          	lui	x4,0x40010
    800023c0:	00420233          	add	x4,x4,x4
    800023c4:	10020213          	addi	x4,x4,256 
    800023c8:	f4823e83          	ld	x29,-184(x4) 
    800023cc:	495f019b          	addiw	x3,x30,1173
    800023d0:	40010837          	lui	x16,0x40010
    800023d4:	01080833          	add	x16,x16,x16
    800023d8:	07a80303          	lb	x6,122(x16) 
    800023dc:	00b36f33          	or	x30,x6,x11
    800023e0:	f24b4793          	xori	x15,x22,-220
    800023e4:	00b200b3          	add	x1,x4,x11
    800023e8:	b1086393          	ori	x7,x16,-1264
    800023ec:	407382bb          	subw	x5,x7,x7
    800023f0:	b41e0e1b          	addiw	x28,x28,-1215
    800023f4:	400104b7          	lui	x9,0x40010
    800023f8:	009484b3          	add	x9,x9,x9
    800023fc:	0ac49923          	sh	x12,178(x9) 
    80002400:	015c88b3          	add	x17,x25,x21
    80002404:	400107b7          	lui	x15,0x40010
    80002408:	00f787b3          	add	x15,x15,x15
    8000240c:	0007e383          	lwu	x7,0(x15) 
    80002410:	40010637          	lui	x12,0x40010
    80002414:	00c60633          	add	x12,x12,x12
    80002418:	10060613          	addi	x12,x12,256 
    8000241c:	f6a65d03          	lhu	x26,-150(x12)
    80002420:	00dd083b          	addw	x16,x26,x13
    80002424:	efdbce93          	xori	x29,x23,-259
    80002428:	40010cb7          	lui	x25,0x40010
    8000242c:	019c8cb3          	add	x25,x25,x25
    80002430:	100c8c93          	addi	x25,x25,256 
    80002434:	fc2cce03          	lbu	x28,-62(x25)
    80002438:	01c77933          	and	x18,x14,x28
    8000243c:	400108b7          	lui	x17,0x40010
    80002440:	011888b3          	add	x17,x17,x17
    80002444:	0c988d03          	lb	x26,201(x17) 
    80002448:	311d4d13          	xori	x26,x26,785
    8000244c:	99fcf013          	andi	x0,x25,-1633
    80002450:	41ee0db3          	sub	x27,x28,x30
    80002454:	40010fb7          	lui	x31,0x40010
    80002458:	01ff8fb3          	add	x31,x31,x31
    8000245c:	100f8f93          	addi	x31,x31,256 
    80002460:	fd4fc283          	lbu	x5,-44(x31)
    80002464:	01e2c2b3          	xor	x5,x5,x30
    80002468:	2af8f813          	andi	x16,x17,687
    8000246c:	01ad0cbb          	addw	x25,x26,x26
    80002470:	40010937          	lui	x18,0x40010
    80002474:	01290933          	add	x18,x18,x18
    80002478:	0a790123          	sb	x7,162(x18) 
    8000247c:	400102b7          	lui	x5,0x40010
    80002480:	005282b3          	add	x5,x5,x5
    80002484:	0e02dc83          	lhu	x25,224(x5) 
    80002488:	400108b7          	lui	x17,0x40010
    8000248c:	011888b3          	add	x17,x17,x17
    80002490:	10088893          	addi	x17,x17,256 
    80002494:	fa48a383          	lw	x7,-92(x17)
    80002498:	0090f333          	and	x6,x1,x9
    8000249c:	01047bb3          	and	x23,x8,x16
    800024a0:	000108bb          	addw	x17,x2,x0
    800024a4:	01cff633          	and	x12,x31,x28
    800024a8:	40ec09b3          	sub	x19,x24,x14
    800024ac:	40010737          	lui	x14,0x40010
    800024b0:	00e70733          	add	x14,x14,x14
    800024b4:	0a573423          	sd	x5,168(x14) 
    800024b8:	40010b37          	lui	x22,0x40010
    800024bc:	016b0b33          	add	x22,x22,x22
    800024c0:	100b0b13          	addi	x22,x22,256 
    800024c4:	faab1f03          	lh	x30,-86(x22)
    800024c8:	01e88bb3          	add	x23,x17,x30
    800024cc:	400105b7          	lui	x11,0x40010
    800024d0:	00b585b3          	add	x11,x11,x11
    800024d4:	10058593          	addi	x11,x11,256 
    800024d8:	f3559423          	sh	x21,-216(x11)
    800024dc:	01b8e733          	or	x14,x17,x27
    800024e0:	400102b7          	lui	x5,0x40010
    800024e4:	005282b3          	add	x5,x5,x5
    800024e8:	0a82b083          	ld	x1,168(x5) 
    800024ec:	40060b33          	sub	x22,x12,x0
    800024f0:	40010337          	lui	x6,0x40010
    800024f4:	00630333          	add	x6,x6,x6
    800024f8:	0bd34103          	lbu	x2,189(x6) 
    800024fc:	00506db3          	or	x27,x0,x5
    80002500:	007606bb          	addw	x13,x12,x7
    80002504:	826d7f93          	andi	x31,x26,-2010
    80002508:	40010fb7          	lui	x31,0x40010
    8000250c:	01ff8fb3          	add	x31,x31,x31
    80002510:	05efce83          	lbu	x29,94(x31) 
    80002514:	41db06bb          	subw	x13,x22,x29
    80002518:	400105b7          	lui	x11,0x40010
    8000251c:	00b585b3          	add	x11,x11,x11
    80002520:	0e85b983          	ld	x19,232(x11) 
    80002524:	5692f893          	andi	x17,x5,1385
    80002528:	40010f37          	lui	x30,0x40010
    8000252c:	01ef0f33          	add	x30,x30,x30
    80002530:	100f0f13          	addi	x30,x30,256 
    80002534:	f88f3403          	ld	x8,-120(x30)
    80002538:	40010e37          	lui	x28,0x40010
    8000253c:	01ce0e33          	add	x28,x28,x28
    80002540:	0a8e3f03          	ld	x30,168(x28) 
    80002544:	40010bb7          	lui	x23,0x40010
    80002548:	017b8bb3          	add	x23,x23,x23
    8000254c:	100b8b93          	addi	x23,x23,256 
    80002550:	f8cbc183          	lbu	x3,-116(x23)
    80002554:	00a881b3          	add	x3,x17,x10
    80002558:	400108b7          	lui	x17,0x40010
    8000255c:	011888b3          	add	x17,x17,x17
    80002560:	10088893          	addi	x17,x17,256 
    80002564:	f1389223          	sh	x19,-252(x17)
    80002568:	8494009b          	addiw	x1,x8,-1975
    8000256c:	40010ab7          	lui	x21,0x40010
    80002570:	015a8ab3          	add	x21,x21,x21
    80002574:	100a8a93          	addi	x21,x21,256 
    80002578:	f8fa9c23          	sh	x15,-104(x21)
    8000257c:	01d645b3          	xor	x11,x12,x29
    80002580:	40010237          	lui	x4,0x40010
    80002584:	00420233          	add	x4,x4,x4
    80002588:	02321823          	sh	x3,48(x4) 
    8000258c:	400107b7          	lui	x15,0x40010
    80002590:	00f787b3          	add	x15,x15,x15
    80002594:	0207b303          	ld	x6,32(x15) 
    80002598:	40e98233          	sub	x4,x19,x14
    8000259c:	01ba4eb3          	xor	x29,x20,x27
    800025a0:	40010ab7          	lui	x21,0x40010
    800025a4:	015a8ab3          	add	x21,x21,x21
    800025a8:	100a8a93          	addi	x21,x21,256 
    800025ac:	fa3a9723          	sh	x3,-82(x21)
    800025b0:	01a50333          	add	x6,x10,x26
    800025b4:	40010cb7          	lui	x25,0x40010
    800025b8:	019c8cb3          	add	x25,x25,x25
    800025bc:	0b0cbe83          	ld	x29,176(x25) 
    800025c0:	40010537          	lui	x10,0x40010
    800025c4:	00a50533          	add	x10,x10,x10
    800025c8:	0f853083          	ld	x1,248(x10) 
    800025cc:	0957c713          	xori	x14,x15,149
    800025d0:	41638033          	sub	x0,x7,x22
    800025d4:	40010837          	lui	x16,0x40010
    800025d8:	01080833          	add	x16,x16,x16
    800025dc:	10080813          	addi	x16,x16,256 
    800025e0:	f2c85a83          	lhu	x21,-212(x16)
    800025e4:	4b7e7393          	andi	x7,x28,1207
    800025e8:	40010eb7          	lui	x29,0x40010
    800025ec:	01de8eb3          	add	x29,x29,x29
    800025f0:	0bce9b03          	lh	x22,188(x29) 
    800025f4:	22810c1b          	addiw	x24,x2,552
    800025f8:	00d58933          	add	x18,x11,x13
    800025fc:	01d4c8b3          	xor	x17,x9,x29
    80002600:	40010137          	lui	x2,0x40010
    80002604:	00210133          	add	x2,x2,x2
    80002608:	09411623          	sh	x20,140(x2) 
    8000260c:	acaace93          	xori	x29,x21,-1334
    80002610:	d5b9cc93          	xori	x25,x19,-677
    80002614:	400103b7          	lui	x7,0x40010
    80002618:	007383b3          	add	x7,x7,x7
    8000261c:	0c639423          	sh	x6,200(x7) 
    80002620:	41678333          	sub	x6,x15,x22
    80002624:	40010fb7          	lui	x31,0x40010
    80002628:	01ff8fb3          	add	x31,x31,x31
    8000262c:	03ffae23          	sw	x31,60(x31) 
    80002630:	41e201b3          	sub	x3,x4,x30
    80002634:	40010d37          	lui	x26,0x40010
    80002638:	01ad0d33          	add	x26,x26,x26
    8000263c:	100d0d13          	addi	x26,x26,256 
    80002640:	f7cd2b03          	lw	x22,-132(x26)
    80002644:	01130b3b          	addw	x22,x6,x17
    80002648:	40010db7          	lui	x27,0x40010
    8000264c:	01bd8db3          	add	x27,x27,x27
    80002650:	100d8d93          	addi	x27,x27,256 
    80002654:	fbcd9a23          	sh	x28,-76(x27)
    80002658:	40010237          	lui	x4,0x40010
    8000265c:	00420233          	add	x4,x4,x4
    80002660:	10020213          	addi	x4,x4,256 
    80002664:	f9320b23          	sb	x19,-106(x4) 
    80002668:	400106b7          	lui	x13,0x40010
    8000266c:	00d686b3          	add	x13,x13,x13
    80002670:	10068693          	addi	x13,x13,256 
    80002674:	f1c6ee03          	lwu	x28,-228(x13)
    80002678:	40010a37          	lui	x20,0x40010
    8000267c:	014a0a33          	add	x20,x20,x20
    80002680:	100a0a13          	addi	x20,x20,256 
    80002684:	ff1a3823          	sd	x17,-16(x20)
    80002688:	400109b7          	lui	x19,0x40010
    8000268c:	013989b3          	add	x19,x19,x19
    80002690:	10098993          	addi	x19,x19,256 
    80002694:	fca99923          	sh	x10,-46(x19)
    80002698:	018b0b33          	add	x22,x22,x24
    8000269c:	ec120f9b          	addiw	x31,x4,-319 
    800026a0:	400100b7          	lui	x1,0x40010
    800026a4:	001080b3          	add	x1,x1,x1
    800026a8:	10008093          	addi	x1,x1,256 
    800026ac:	f670b423          	sd	x7,-152(x1)
    800026b0:	40010c37          	lui	x24,0x40010
    800026b4:	018c0c33          	add	x24,x24,x24
    800026b8:	0d8c2a03          	lw	x20,216(x24) 
    800026bc:	400102b7          	lui	x5,0x40010
    800026c0:	005282b3          	add	x5,x5,x5
    800026c4:	10028293          	addi	x5,x5,256 
    800026c8:	fbf2b023          	sd	x31,-96(x5)
    800026cc:	00147d33          	and	x26,x8,x1
    800026d0:	bb157b13          	andi	x22,x10,-1103
    800026d4:	40890eb3          	sub	x29,x18,x8
    800026d8:	20b3089b          	addiw	x17,x6,523
    800026dc:	400103b7          	lui	x7,0x40010
    800026e0:	007383b3          	add	x7,x7,x7
    800026e4:	0703ba83          	ld	x21,112(x7) 
    800026e8:	40010b37          	lui	x22,0x40010
    800026ec:	016b0b33          	add	x22,x22,x22
    800026f0:	0e9b00a3          	sb	x9,225(x22) 
    800026f4:	01e68133          	add	x2,x13,x30
    800026f8:	01027833          	and	x16,x4,x16
    800026fc:	400108b7          	lui	x17,0x40010
    80002700:	011888b3          	add	x17,x17,x17
    80002704:	10088893          	addi	x17,x17,256 
    80002708:	f5e8db03          	lhu	x22,-162(x17)
    8000270c:	9ecfe413          	ori	x8,x31,-1556
    80002710:	4942fb93          	andi	x23,x5,1172
    80002714:	0077ccb3          	xor	x25,x15,x7
    80002718:	008fcb33          	xor	x22,x31,x8
    8000271c:	40010f37          	lui	x30,0x40010
    80002720:	01ef0f33          	add	x30,x30,x30
    80002724:	100f0f13          	addi	x30,x30,256 
    80002728:	f30f3383          	ld	x7,-208(x30)
    8000272c:	011403bb          	addw	x7,x8,x17
    80002730:	34be0a9b          	addiw	x21,x28,843
    80002734:	400101b7          	lui	x3,0x40010
    80002738:	003181b3          	add	x3,x3,x3
    8000273c:	0dc19e03          	lh	x28,220(x3) 
    80002740:	00138e33          	add	x28,x7,x1
    80002744:	40010fb7          	lui	x31,0x40010
    80002748:	01ff8fb3          	add	x31,x31,x31
    8000274c:	100f8f93          	addi	x31,x31,256 
    80002750:	fa6f9903          	lh	x18,-90(x31)
    80002754:	43197813          	andi	x16,x18,1073
    80002758:	1a106d93          	ori	x27,x0,417
    8000275c:	0187ca33          	xor	x20,x15,x24
    80002760:	40010ab7          	lui	x21,0x40010
    80002764:	015a8ab3          	add	x21,x21,x21
    80002768:	100a8a93          	addi	x21,x21,256 
    8000276c:	f5caec03          	lwu	x24,-164(x21)
    80002770:	7644e293          	ori	x5,x9,1892
    80002774:	00fc023b          	addw	x4,x24,x15
    80002778:	40bd043b          	subw	x8,x26,x11
    8000277c:	012d7233          	and	x4,x26,x18
    80002780:	40010837          	lui	x16,0x40010
    80002784:	01080833          	add	x16,x16,x16
    80002788:	10080813          	addi	x16,x16,256 
    8000278c:	fa583023          	sd	x5,-96(x16)
    80002790:	40010cb7          	lui	x25,0x40010
    80002794:	019c8cb3          	add	x25,x25,x25
    80002798:	100c8c93          	addi	x25,x25,256 
    8000279c:	fa0ceb83          	lwu	x23,-96(x25)
    800027a0:	01716bb3          	or	x23,x2,x23
    800027a4:	f80cc493          	xori	x9,x25,-128
    800027a8:	d3a4c213          	xori	x4,x9,-710
    800027ac:	40010d37          	lui	x26,0x40010
    800027b0:	01ad0d33          	add	x26,x26,x26
    800027b4:	00cd2e03          	lw	x28,12(x26) 
    800027b8:	01cd013b          	addw	x2,x26,x28
    800027bc:	40010437          	lui	x8,0x40010
    800027c0:	00840433          	add	x8,x8,x8
    800027c4:	0d846183          	lwu	x3,216(x8) 
    800027c8:	cc1f4813          	xori	x16,x30,-831
    800027cc:	40010d37          	lui	x26,0x40010
    800027d0:	01ad0d33          	add	x26,x26,x26
    800027d4:	100d0d13          	addi	x26,x26,256 
    800027d8:	f8cd1403          	lh	x8,-116(x26)
    800027dc:	8f544b13          	xori	x22,x8,-1803
    800027e0:	67afe393          	ori	x7,x31,1658
    800027e4:	40010a37          	lui	x20,0x40010
    800027e8:	014a0a33          	add	x20,x20,x20
    800027ec:	0c0a6a83          	lwu	x21,192(x20) 
    800027f0:	791aea93          	ori	x21,x21,1937
    800027f4:	a6a4ed93          	ori	x27,x9,-1430
    800027f8:	42ff6c93          	ori	x25,x30,1071
    800027fc:	400106b7          	lui	x13,0x40010
    80002800:	00d686b3          	add	x13,x13,x13
    80002804:	10068693          	addi	x13,x13,256 
    80002808:	f986bf83          	ld	x31,-104(x13)
    8000280c:	ea4fec13          	ori	x24,x31,-348
    80002810:	400100b7          	lui	x1,0x40010
    80002814:	001080b3          	add	x1,x1,x1
    80002818:	0540ec83          	lwu	x25,84(x1) 
    8000281c:	40010fb7          	lui	x31,0x40010
    80002820:	01ff8fb3          	add	x31,x31,x31
    80002824:	100f8f93          	addi	x31,x31,256 
    80002828:	f58fb083          	ld	x1,-168(x31)
    8000282c:	00d14cb3          	xor	x25,x2,x13
    80002830:	a174859b          	addiw	x11,x9,-1513
    80002834:	40010c37          	lui	x24,0x40010
    80002838:	018c0c33          	add	x24,x24,x24
    8000283c:	0dcc5d03          	lhu	x26,220(x24) 
    80002840:	596ac493          	xori	x9,x21,1430
    80002844:	400108b7          	lui	x17,0x40010
    80002848:	011888b3          	add	x17,x17,x17
    8000284c:	0f48a823          	sw	x20,240(x17) 
    80002850:	40010b37          	lui	x22,0x40010
    80002854:	016b0b33          	add	x22,x22,x22
    80002858:	100b0b13          	addi	x22,x22,256 
    8000285c:	f14b2f83          	lw	x31,-236(x22)
    80002860:	0148efb3          	or	x31,x17,x20
    80002864:	400104b7          	lui	x9,0x40010
    80002868:	009484b3          	add	x9,x9,x9
    8000286c:	0ac4a983          	lw	x19,172(x9) 
    80002870:	40010637          	lui	x12,0x40010
    80002874:	00c60633          	add	x12,x12,x12
    80002878:	10060613          	addi	x12,x12,256 
    8000287c:	fc962623          	sw	x9,-52(x12)
    80002880:	006304bb          	addw	x9,x6,x6
    80002884:	40010637          	lui	x12,0x40010
    80002888:	00c60633          	add	x12,x12,x12
    8000288c:	10060613          	addi	x12,x12,256 
    80002890:	fe360923          	sb	x3,-14(x12)
    80002894:	40010537          	lui	x10,0x40010
    80002898:	00a50533          	add	x10,x10,x10
    8000289c:	0f450303          	lb	x6,244(x10) 
    800028a0:	725f7193          	andi	x3,x30,1829
    800028a4:	bb916293          	ori	x5,x2,-1095
    800028a8:	00028533          	add	x10,x5,x0
    800028ac:	2aae6b13          	ori	x22,x28,682
    800028b0:	40010b37          	lui	x22,0x40010
    800028b4:	016b0b33          	add	x22,x22,x22
    800028b8:	100b0b13          	addi	x22,x22,256 
    800028bc:	f03b0783          	lb	x15,-253(x22)
    800028c0:	40010eb7          	lui	x29,0x40010
    800028c4:	01de8eb3          	add	x29,x29,x29
    800028c8:	0f0eb503          	ld	x10,240(x29) 
    800028cc:	010578b3          	and	x17,x10,x16
    800028d0:	01318c3b          	addw	x24,x3,x19
    800028d4:	40010d37          	lui	x26,0x40010
    800028d8:	01ad0d33          	add	x26,x26,x26
    800028dc:	100d0d13          	addi	x26,x26,256 
    800028e0:	fa1d3c23          	sd	x1,-72(x26)
    800028e4:	40010eb7          	lui	x29,0x40010
    800028e8:	01de8eb3          	add	x29,x29,x29
    800028ec:	100e8e93          	addi	x29,x29,256 
    800028f0:	f3cee403          	lwu	x8,-196(x29)
    800028f4:	40010cb7          	lui	x25,0x40010
    800028f8:	019c8cb3          	add	x25,x25,x25
    800028fc:	054c9583          	lh	x11,84(x25) 
    80002900:	01358fb3          	add	x31,x11,x19
    80002904:	00a46a33          	or	x20,x8,x10
    80002908:	40010a37          	lui	x20,0x40010
    8000290c:	014a0a33          	add	x20,x20,x20
    80002910:	0f0a3083          	ld	x1,240(x20) 
    80002914:	04b1f093          	andi	x1,x3,75
    80002918:	deeae213          	ori	x4,x21,-530
    8000291c:	40d7883b          	subw	x16,x15,x13
    80002920:	c9be0a93          	addi	x21,x28,-869
    80002924:	400103b7          	lui	x7,0x40010
    80002928:	007383b3          	add	x7,x7,x7
    8000292c:	10038393          	addi	x7,x7,256 
    80002930:	fc03e983          	lwu	x19,-64(x7)
    80002934:	9af56993          	ori	x19,x10,-1617
    80002938:	400106b7          	lui	x13,0x40010
    8000293c:	00d686b3          	add	x13,x13,x13
    80002940:	10068693          	addi	x13,x13,256 
    80002944:	f8c6e183          	lwu	x3,-116(x13)
    80002948:	40010e37          	lui	x28,0x40010
    8000294c:	01ce0e33          	add	x28,x28,x28
    80002950:	100e0e13          	addi	x28,x28,256 
    80002954:	fb3e4603          	lbu	x12,-77(x28)
    80002958:	00b98633          	add	x12,x19,x11
    8000295c:	40010137          	lui	x2,0x40010
    80002960:	00210133          	add	x2,x2,x2
    80002964:	10010113          	addi	x2,x2,256 
    80002968:	f4813a03          	ld	x20,-184(x2)
    8000296c:	40010337          	lui	x6,0x40010
    80002970:	00630333          	add	x6,x6,x6
    80002974:	10030313          	addi	x6,x6,256 
    80002978:	f2435b83          	lhu	x23,-220(x6)
    8000297c:	ba0bcc93          	xori	x25,x23,-1120
    80002980:	40010237          	lui	x4,0x40010
    80002984:	00420233          	add	x4,x4,x4
    80002988:	04020a23          	sb	x0,84(x4) 
    8000298c:	40010837          	lui	x16,0x40010
    80002990:	01080833          	add	x16,x16,x16
    80002994:	10080813          	addi	x16,x16,256 
    80002998:	f8086283          	lwu	x5,-128(x16)
    8000299c:	addfc093          	xori	x1,x31,-1315
    800029a0:	41a28b3b          	subw	x22,x5,x26
    800029a4:	40010337          	lui	x6,0x40010
    800029a8:	00630333          	add	x6,x6,x6
    800029ac:	0f133423          	sd	x17,232(x6) 
    800029b0:	400108b7          	lui	x17,0x40010
    800029b4:	011888b3          	add	x17,x17,x17
    800029b8:	03388423          	sb	x19,40(x17) 
    800029bc:	369acf93          	xori	x31,x21,873
    800029c0:	a5f30993          	addi	x19,x6,-1441
    800029c4:	00030933          	add	x18,x6,x0
    800029c8:	4ea9889b          	addiw	x17,x19,1258
    800029cc:	97c9809b          	addiw	x1,x19,-1668
    800029d0:	00a18ab3          	add	x21,x3,x10
    800029d4:	40010637          	lui	x12,0x40010
    800029d8:	00c60633          	add	x12,x12,x12
    800029dc:	09664f03          	lbu	x30,150(x12) 
    800029e0:	41dc0d33          	sub	x26,x24,x29
    800029e4:	a6daef93          	ori	x31,x21,-1427
    800029e8:	400100b7          	lui	x1,0x40010
    800029ec:	001080b3          	add	x1,x1,x1
    800029f0:	10008093          	addi	x1,x1,256 
    800029f4:	ff80b383          	ld	x7,-8(x1)
    800029f8:	6d938693          	addi	x13,x7,1753
    800029fc:	40010eb7          	lui	x29,0x40010
    80002a00:	01de8eb3          	add	x29,x29,x29
    80002a04:	100e8e93          	addi	x29,x29,256 
    80002a08:	f47e85a3          	sb	x7,-181(x29)
    80002a0c:	001b8433          	add	x8,x23,x1
    80002a10:	41b48433          	sub	x8,x9,x27
    80002a14:	40010837          	lui	x16,0x40010
    80002a18:	01080833          	add	x16,x16,x16
    80002a1c:	04e81f83          	lh	x31,78(x16) 
    80002a20:	95980a9b          	addiw	x21,x16,-1703
    80002a24:	40010e37          	lui	x28,0x40010
    80002a28:	01ce0e33          	add	x28,x28,x28
    80002a2c:	100e0e13          	addi	x28,x28,256 
    80002a30:	f00e00a3          	sb	x0,-255(x28)
    80002a34:	0073c133          	xor	x2,x7,x7
    80002a38:	400106b7          	lui	x13,0x40010
    80002a3c:	00d686b3          	add	x13,x13,x13
    80002a40:	02c68283          	lb	x5,44(x13) 
    80002a44:	18a28413          	addi	x8,x5,394
    80002a48:	00aced33          	or	x26,x25,x10
    80002a4c:	f7e8069b          	addiw	x13,x16,-130
    80002a50:	5115c513          	xori	x10,x11,1297
    80002a54:	400109b7          	lui	x19,0x40010
    80002a58:	013989b3          	add	x19,x19,x19
    80002a5c:	0a499a83          	lh	x21,164(x19) 
    80002a60:	0046eab3          	or	x21,x13,x4
    80002a64:	40010fb7          	lui	x31,0x40010
    80002a68:	01ff8fb3          	add	x31,x31,x31
    80002a6c:	0b0fa103          	lw	x2,176(x31) 
    80002a70:	40010837          	lui	x16,0x40010
    80002a74:	01080833          	add	x16,x16,x16
    80002a78:	10080813          	addi	x16,x16,256 
    80002a7c:	f9a84c83          	lbu	x25,-102(x16)
    80002a80:	40010eb7          	lui	x29,0x40010
    80002a84:	01de8eb3          	add	x29,x29,x29
    80002a88:	100e8e93          	addi	x29,x29,256 
    80002a8c:	f65ec483          	lbu	x9,-155(x29)
    80002a90:	40010337          	lui	x6,0x40010
    80002a94:	00630333          	add	x6,x6,x6
    80002a98:	10030313          	addi	x6,x6,256 
    80002a9c:	fb930b23          	sb	x25,-74(x6)
    80002aa0:	013ae7b3          	or	x15,x21,x19
    80002aa4:	0151f6b3          	and	x13,x3,x21
    80002aa8:	14056313          	ori	x6,x10,320
    80002aac:	40010737          	lui	x14,0x40010
    80002ab0:	00e70733          	add	x14,x14,x14
    80002ab4:	02d72423          	sw	x13,40(x14) 
    80002ab8:	9497c493          	xori	x9,x15,-1719
    80002abc:	400102b7          	lui	x5,0x40010
    80002ac0:	005282b3          	add	x5,x5,x5
    80002ac4:	0682b583          	ld	x11,104(x5) 
    80002ac8:	42b5ec13          	ori	x24,x11,1067
    80002acc:	400105b7          	lui	x11,0x40010
    80002ad0:	00b585b3          	add	x11,x11,x11
    80002ad4:	10058593          	addi	x11,x11,256 
    80002ad8:	f905d803          	lhu	x16,-112(x11)
    80002adc:	40f90733          	sub	x14,x18,x15
    80002ae0:	7af20013          	addi	x0,x4,1967 
    80002ae4:	40010d37          	lui	x26,0x40010
    80002ae8:	01ad0d33          	add	x26,x26,x26
    80002aec:	100d0d13          	addi	x26,x26,256 
    80002af0:	f44d2a03          	lw	x20,-188(x26)
    80002af4:	41aa033b          	subw	x6,x20,x26
    80002af8:	40010437          	lui	x8,0x40010
    80002afc:	00840433          	add	x8,x8,x8
    80002b00:	0b442883          	lw	x17,180(x8) 
    80002b04:	011d6233          	or	x4,x26,x17
    80002b08:	40010a37          	lui	x20,0x40010
    80002b0c:	014a0a33          	add	x20,x20,x20
    80002b10:	100a0a13          	addi	x20,x20,256 
    80002b14:	fa7a0083          	lb	x1,-89(x20)
    80002b18:	400101b7          	lui	x3,0x40010
    80002b1c:	003181b3          	add	x3,x3,x3
    80002b20:	10018193          	addi	x3,x3,256 
    80002b24:	f801e783          	lwu	x15,-128(x3)
    80002b28:	43f7879b          	addiw	x15,x15,1087
    80002b2c:	00176cb3          	or	x25,x14,x1
    80002b30:	400104b7          	lui	x9,0x40010
    80002b34:	009484b3          	add	x9,x9,x9
    80002b38:	10048493          	addi	x9,x9,256 
    80002b3c:	f6c4a983          	lw	x19,-148(x9)
    80002b40:	53998993          	addi	x19,x19,1337
    80002b44:	40010637          	lui	x12,0x40010
    80002b48:	00c60633          	add	x12,x12,x12
    80002b4c:	10060613          	addi	x12,x12,256 
    80002b50:	fcc66303          	lwu	x6,-52(x12)
    80002b54:	01f9833b          	addw	x6,x19,x31
    80002b58:	40010f37          	lui	x30,0x40010
    80002b5c:	01ef0f33          	add	x30,x30,x30
    80002b60:	0edf3c23          	sd	x13,248(x30) 
    80002b64:	408a89b3          	sub	x19,x21,x8
    80002b68:	51ff8a93          	addi	x21,x31,1311
    80002b6c:	40010f37          	lui	x30,0x40010
    80002b70:	01ef0f33          	add	x30,x30,x30
    80002b74:	0dff2423          	sw	x31,200(x30) 
    80002b78:	40010837          	lui	x16,0x40010
    80002b7c:	01080833          	add	x16,x16,x16
    80002b80:	10080813          	addi	x16,x16,256 
    80002b84:	f4083a03          	ld	x20,-192(x16)
    80002b88:	411f06b3          	sub	x13,x30,x17
    80002b8c:	57cb4c13          	xori	x24,x22,1404
    80002b90:	01ffc533          	xor	x10,x31,x31
    80002b94:	400107b7          	lui	x15,0x40010
    80002b98:	00f787b3          	add	x15,x15,x15
    80002b9c:	10078793          	addi	x15,x15,256 
    80002ba0:	fee7b423          	sd	x14,-24(x15)
    80002ba4:	d5bd8f9b          	addiw	x31,x27,-677
    80002ba8:	400100b7          	lui	x1,0x40010
    80002bac:	001080b3          	add	x1,x1,x1
    80002bb0:	0d00a023          	sw	x16,192(x1) 
    80002bb4:	400109b7          	lui	x19,0x40010
    80002bb8:	013989b3          	add	x19,x19,x19
    80002bbc:	0fe99623          	sh	x30,236(x19) 
    80002bc0:	0076fd33          	and	x26,x13,x7
    80002bc4:	40010737          	lui	x14,0x40010
    80002bc8:	00e70733          	add	x14,x14,x14
    80002bcc:	02772223          	sw	x7,36(x14) 
    80002bd0:	400100b7          	lui	x1,0x40010
    80002bd4:	001080b3          	add	x1,x1,x1
    80002bd8:	0360d183          	lhu	x3,54(x1) 
    80002bdc:	a4e1ff93          	andi	x31,x3,-1458
    80002be0:	40010937          	lui	x18,0x40010
    80002be4:	01290933          	add	x18,x18,x18
    80002be8:	10090913          	addi	x18,x18,256 
    80002bec:	f8c95003          	lhu	x0,-116(x18)
    80002bf0:	fe07e513          	ori	x10,x15,-32
    80002bf4:	419b0033          	sub	x0,x22,x25
    80002bf8:	1672861b          	addiw	x12,x5,359
    80002bfc:	006c7d33          	and	x26,x24,x6
    80002c00:	400105b7          	lui	x11,0x40010
    80002c04:	00b585b3          	add	x11,x11,x11
    80002c08:	05d5c183          	lbu	x3,93(x11) 
    80002c0c:	8e80c313          	xori	x6,x1,-1816
    80002c10:	0f146613          	ori	x12,x8,241
    80002c14:	41ee89b3          	sub	x19,x29,x30
    80002c18:	400109b7          	lui	x19,0x40010
    80002c1c:	013989b3          	add	x19,x19,x19
    80002c20:	10098993          	addi	x19,x19,256 
    80002c24:	f5899683          	lh	x13,-168(x19)
    80002c28:	00d17433          	and	x8,x2,x13
    80002c2c:	400107b7          	lui	x15,0x40010
    80002c30:	00f787b3          	add	x15,x15,x15
    80002c34:	06a7d103          	lhu	x2,106(x15) 
    80002c38:	002e013b          	addw	x2,x28,x2
    80002c3c:	017e42b3          	xor	x5,x28,x23
    80002c40:	faa58713          	addi	x14,x11,-86
    80002c44:	43d06f93          	ori	x31,x0,1085
    80002c48:	400106b7          	lui	x13,0x40010
    80002c4c:	00d686b3          	add	x13,x13,x13
    80002c50:	0746a103          	lw	x2,116(x13) 
    80002c54:	5d93021b          	addiw	x4,x6,1497
    80002c58:	40010b37          	lui	x22,0x40010
    80002c5c:	016b0b33          	add	x22,x22,x22
    80002c60:	04db2023          	sw	x13,64(x22) 
    80002c64:	40010137          	lui	x2,0x40010
    80002c68:	00210133          	add	x2,x2,x2
    80002c6c:	08112423          	sw	x1,136(x2) 
    80002c70:	00f160b3          	or	x1,x2,x15
    80002c74:	40010f37          	lui	x30,0x40010
    80002c78:	01ef0f33          	add	x30,x30,x30
    80002c7c:	100f0f13          	addi	x30,x30,256 
    80002c80:	f5df0023          	sb	x29,-192(x30)
    80002c84:	00dc8833          	add	x16,x25,x13
    80002c88:	40010c37          	lui	x24,0x40010
    80002c8c:	018c0c33          	add	x24,x24,x24
    80002c90:	0d8c2683          	lw	x13,216(x24) 
    80002c94:	40010237          	lui	x4,0x40010
    80002c98:	00420233          	add	x4,x4,x4
    80002c9c:	10020213          	addi	x4,x4,256 
    80002ca0:	f01206a3          	sb	x1,-243(x4) 
    80002ca4:	40010637          	lui	x12,0x40010
    80002ca8:	00c60633          	add	x12,x12,x12
    80002cac:	00462683          	lw	x13,4(x12) 
    80002cb0:	9cb9f693          	andi	x13,x19,-1589
    80002cb4:	40010d37          	lui	x26,0x40010
    80002cb8:	01ad0d33          	add	x26,x26,x26
    80002cbc:	100d0d13          	addi	x26,x26,256 
    80002cc0:	fadd1523          	sh	x13,-86(x26)
    80002cc4:	00aeea33          	or	x20,x29,x10
    80002cc8:	40010ab7          	lui	x21,0x40010
    80002ccc:	015a8ab3          	add	x21,x21,x21
    80002cd0:	09aaa023          	sw	x26,128(x21) 
    80002cd4:	a5ab881b          	addiw	x16,x23,-1446
    80002cd8:	4125813b          	subw	x2,x11,x18
    80002cdc:	40010237          	lui	x4,0x40010
    80002ce0:	00420233          	add	x4,x4,x4
    80002ce4:	10020213          	addi	x4,x4,256 
    80002ce8:	f2f24183          	lbu	x3,-209(x4) 
    80002cec:	00126b33          	or	x22,x4,x1
    80002cf0:	00c5e433          	or	x8,x11,x12
    80002cf4:	04f07e93          	andi	x29,x0,79
    80002cf8:	011946b3          	xor	x13,x18,x17
    80002cfc:	40010d37          	lui	x26,0x40010
    80002d00:	01ad0d33          	add	x26,x26,x26
    80002d04:	0c2d1183          	lh	x3,194(x26) 
    80002d08:	40010f37          	lui	x30,0x40010
    80002d0c:	01ef0f33          	add	x30,x30,x30
    80002d10:	0aef1183          	lh	x3,174(x30) 
    80002d14:	01a971b3          	and	x3,x18,x26
    80002d18:	400103b7          	lui	x7,0x40010
    80002d1c:	007383b3          	add	x7,x7,x7
    80002d20:	0f2380a3          	sb	x18,225(x7) 
    80002d24:	400105b7          	lui	x11,0x40010
    80002d28:	00b585b3          	add	x11,x11,x11
    80002d2c:	10058593          	addi	x11,x11,256 
    80002d30:	fb05ba03          	ld	x20,-80(x11)
    80002d34:	40010ab7          	lui	x21,0x40010
    80002d38:	015a8ab3          	add	x21,x21,x21
    80002d3c:	100a8a93          	addi	x21,x21,256 
    80002d40:	ff8aa603          	lw	x12,-8(x21)
    80002d44:	40010cb7          	lui	x25,0x40010
    80002d48:	019c8cb3          	add	x25,x25,x25
    80002d4c:	100c8c93          	addi	x25,x25,256 
    80002d50:	f10ca423          	sw	x16,-248(x25)
    80002d54:	007ff333          	and	x6,x31,x7
    80002d58:	82724013          	xori	x0,x4,-2009
    80002d5c:	40010737          	lui	x14,0x40010
    80002d60:	00e70733          	add	x14,x14,x14
    80002d64:	09c74c83          	lbu	x25,156(x14) 
    80002d68:	41980eb3          	sub	x29,x16,x25
    80002d6c:	f4f9c413          	xori	x8,x19,-177
    80002d70:	01b982bb          	addw	x5,x19,x27
    80002d74:	40010537          	lui	x10,0x40010
    80002d78:	00a50533          	add	x10,x10,x10
    80002d7c:	085506a3          	sb	x5,141(x10) 
    80002d80:	40010e37          	lui	x28,0x40010
    80002d84:	01ce0e33          	add	x28,x28,x28
    80002d88:	018e3b83          	ld	x23,24(x28) 
    80002d8c:	01726033          	or	x0,x4,x23
    80002d90:	4168063b          	subw	x12,x16,x22
    80002d94:	40010537          	lui	x10,0x40010
    80002d98:	00a50533          	add	x10,x10,x10
    80002d9c:	10050513          	addi	x10,x10,256 
    80002da0:	fba52623          	sw	x26,-84(x10)
    80002da4:	40010f37          	lui	x30,0x40010
    80002da8:	01ef0f33          	add	x30,x30,x30
    80002dac:	043f1623          	sh	x3,76(x30) 
    80002db0:	40010137          	lui	x2,0x40010
    80002db4:	00210133          	add	x2,x2,x2
    80002db8:	10010113          	addi	x2,x2,256 
    80002dbc:	f7c12d83          	lw	x27,-132(x2)
    80002dc0:	40010db7          	lui	x27,0x40010
    80002dc4:	01bd8db3          	add	x27,x27,x27
    80002dc8:	100d8d93          	addi	x27,x27,256 
    80002dcc:	fceda423          	sw	x14,-56(x27)
    80002dd0:	7dbc8e93          	addi	x29,x25,2011
    80002dd4:	0160023b          	addw	x4,x0,x22
    80002dd8:	40010337          	lui	x6,0x40010
    80002ddc:	00630333          	add	x6,x6,x6
    80002de0:	04431303          	lh	x6,68(x6) 
    80002de4:	40010737          	lui	x14,0x40010
    80002de8:	00e70733          	add	x14,x14,x14
    80002dec:	10070713          	addi	x14,x14,256 
    80002df0:	fe073f03          	ld	x30,-32(x14)
    80002df4:	418c0f33          	sub	x30,x24,x24
    80002df8:	00be4a33          	xor	x20,x28,x11
    80002dfc:	7d54801b          	addiw	x0,x9,2005
    80002e00:	400100b7          	lui	x1,0x40010
    80002e04:	001080b3          	add	x1,x1,x1
    80002e08:	07208203          	lb	x4,114(x1) 
    80002e0c:	00cef233          	and	x4,x29,x12
    80002e10:	011ae5b3          	or	x11,x21,x17
    80002e14:	0034fc33          	and	x24,x9,x3
    80002e18:	00cae6b3          	or	x13,x21,x12
    80002e1c:	00976a33          	or	x20,x14,x9
    80002e20:	014ee433          	or	x8,x29,x20
    80002e24:	40010337          	lui	x6,0x40010
    80002e28:	00630333          	add	x6,x6,x6
    80002e2c:	0e833983          	ld	x19,232(x6) 
    80002e30:	41268833          	sub	x16,x13,x18
    80002e34:	4ea1801b          	addiw	x0,x3,1258
    80002e38:	40010b37          	lui	x22,0x40010
    80002e3c:	016b0b33          	add	x22,x22,x22
    80002e40:	02cb2423          	sw	x12,40(x22) 
    80002e44:	40010837          	lui	x16,0x40010
    80002e48:	01080833          	add	x16,x16,x16
    80002e4c:	10080813          	addi	x16,x16,256 
    80002e50:	f3482983          	lw	x19,-204(x16)
    80002e54:	00084133          	xor	x2,x16,x0
    80002e58:	40010bb7          	lui	x23,0x40010
    80002e5c:	017b8bb3          	add	x23,x23,x23
    80002e60:	0bcb9e03          	lh	x28,188(x23) 
    80002e64:	269f4e13          	xori	x28,x30,617
    80002e68:	00c5e233          	or	x4,x11,x12
    80002e6c:	be8f6693          	ori	x13,x30,-1048
    80002e70:	a6b7f713          	andi	x14,x15,-1429
    80002e74:	000569b3          	or	x19,x10,x0
    80002e78:	400106b7          	lui	x13,0x40010
    80002e7c:	00d686b3          	add	x13,x13,x13
    80002e80:	0b46ea83          	lwu	x21,180(x13) 
    80002e84:	7f348e93          	addi	x29,x9,2035
    80002e88:	40010437          	lui	x8,0x40010
    80002e8c:	00840433          	add	x8,x8,x8
    80002e90:	10040413          	addi	x8,x8,256 
    80002e94:	f4843383          	ld	x7,-184(x8)
    80002e98:	00716ab3          	or	x21,x2,x7
    80002e9c:	400104b7          	lui	x9,0x40010
    80002ea0:	009484b3          	add	x9,x9,x9
    80002ea4:	10048493          	addi	x9,x9,256 
    80002ea8:	f024c583          	lbu	x11,-254(x9)
    80002eac:	40010bb7          	lui	x23,0x40010
    80002eb0:	017b8bb3          	add	x23,x23,x23
    80002eb4:	04ab9d83          	lh	x27,74(x23) 
    80002eb8:	d3274d93          	xori	x27,x14,-718
    80002ebc:	40010fb7          	lui	x31,0x40010
    80002ec0:	01ff8fb3          	add	x31,x31,x31
    80002ec4:	100f8f93          	addi	x31,x31,256 
    80002ec8:	f02fa623          	sw	x2,-244(x31)
    80002ecc:	0c876b13          	ori	x22,x14,200
    80002ed0:	40010a37          	lui	x20,0x40010
    80002ed4:	014a0a33          	add	x20,x20,x20
    80002ed8:	070a3823          	sd	x16,112(x20) 
    80002edc:	40010fb7          	lui	x31,0x40010
    80002ee0:	01ff8fb3          	add	x31,x31,x31
    80002ee4:	054f9e03          	lh	x28,84(x31) 
    80002ee8:	00be0d3b          	addw	x26,x28,x11
    80002eec:	40010837          	lui	x16,0x40010
    80002ef0:	01080833          	add	x16,x16,x16
    80002ef4:	0d681683          	lh	x13,214(x16) 
    80002ef8:	40010f37          	lui	x30,0x40010
    80002efc:	01ef0f33          	add	x30,x30,x30
    80002f00:	100f0f13          	addi	x30,x30,256 
    80002f04:	f2cf6003          	lwu	x0,-212(x30)
    80002f08:	400105b7          	lui	x11,0x40010
    80002f0c:	00b585b3          	add	x11,x11,x11
    80002f10:	0dc5eb03          	lwu	x22,220(x11) 
    80002f14:	400105b7          	lui	x11,0x40010
    80002f18:	00b585b3          	add	x11,x11,x11
    80002f1c:	03258803          	lb	x16,50(x11) 
    80002f20:	4139883b          	subw	x16,x19,x19
    80002f24:	002547b3          	xor	x15,x10,x2
    80002f28:	8b86c613          	xori	x12,x13,-1864
    80002f2c:	000ec3b3          	xor	x7,x29,x0
    80002f30:	008548b3          	xor	x17,x10,x8
    80002f34:	40010b37          	lui	x22,0x40010
    80002f38:	016b0b33          	add	x22,x22,x22
    80002f3c:	100b0b13          	addi	x22,x22,256 
    80002f40:	ff1b0783          	lb	x15,-15(x22)
    80002f44:	40010e37          	lui	x28,0x40010
    80002f48:	01ce0e33          	add	x28,x28,x28
    80002f4c:	0dde3023          	sd	x29,192(x28) 
    80002f50:	40010137          	lui	x2,0x40010
    80002f54:	00210133          	add	x2,x2,x2
    80002f58:	10010113          	addi	x2,x2,256 
    80002f5c:	f6a11183          	lh	x3,-150(x2)
    80002f60:	40010d37          	lui	x26,0x40010
    80002f64:	01ad0d33          	add	x26,x26,x26
    80002f68:	100d0d13          	addi	x26,x26,256 
    80002f6c:	fa9d3823          	sd	x9,-80(x26)
    80002f70:	00810233          	add	x4,x2,x8
    80002f74:	008688bb          	addw	x17,x13,x8
    80002f78:	72e4f513          	andi	x10,x9,1838
    80002f7c:	407b7013          	andi	x0,x22,1031
    80002f80:	40010f37          	lui	x30,0x40010
    80002f84:	01ef0f33          	add	x30,x30,x30
    80002f88:	032f1a23          	sh	x18,52(x30) 
    80002f8c:	014e61b3          	or	x3,x28,x20
    80002f90:	400105b7          	lui	x11,0x40010
    80002f94:	00b585b3          	add	x11,x11,x11
    80002f98:	0c458523          	sb	x4,202(x11) 
    80002f9c:	40010f37          	lui	x30,0x40010
    80002fa0:	01ef0f33          	add	x30,x30,x30
    80002fa4:	0f4f1683          	lh	x13,244(x30) 
    80002fa8:	410a03b3          	sub	x7,x20,x16
    80002fac:	40010db7          	lui	x27,0x40010
    80002fb0:	01bd8db3          	add	x27,x27,x27
    80002fb4:	100d8d93          	addi	x27,x27,256 
    80002fb8:	f7edc483          	lbu	x9,-130(x27)
    80002fbc:	0158f4b3          	and	x9,x17,x21
    80002fc0:	00607c33          	and	x24,x0,x6
    80002fc4:	400688b3          	sub	x17,x13,x0
    80002fc8:	400104b7          	lui	x9,0x40010
    80002fcc:	009484b3          	add	x9,x9,x9
    80002fd0:	0cc4ed03          	lwu	x26,204(x9) 
    80002fd4:	40010437          	lui	x8,0x40010
    80002fd8:	00840433          	add	x8,x8,x8
    80002fdc:	0ca44983          	lbu	x19,202(x8) 
    80002fe0:	4c59f993          	andi	x19,x19,1221
    80002fe4:	cd06ff13          	andi	x30,x13,-816
    80002fe8:	40010e37          	lui	x28,0x40010
    80002fec:	01ce0e33          	add	x28,x28,x28
    80002ff0:	0cde1523          	sh	x13,202(x28) 
    80002ff4:	40010b37          	lui	x22,0x40010
    80002ff8:	016b0b33          	add	x22,x22,x22
    80002ffc:	0bcb6683          	lwu	x13,188(x22) 
    80003000:	009166b3          	or	x13,x2,x9
    80003004:	d6f2c293          	xori	x5,x5,-657
    80003008:	400101b7          	lui	x3,0x40010
    8000300c:	003181b3          	add	x3,x3,x3
    80003010:	10018193          	addi	x3,x3,256 
    80003014:	ff118083          	lb	x1,-15(x3)
    80003018:	40010337          	lui	x6,0x40010
    8000301c:	00630333          	add	x6,x6,x6
    80003020:	10030313          	addi	x6,x6,256 
    80003024:	fe832e03          	lw	x28,-24(x6)
    80003028:	6260c513          	xori	x10,x1,1574
    8000302c:	62df4393          	xori	x7,x30,1581
    80003030:	c5248513          	addi	x10,x9,-942
    80003034:	00946933          	or	x18,x8,x9
    80003038:	530a071b          	addiw	x14,x20,1328
    8000303c:	85120e1b          	addiw	x28,x4,-1967 
    80003040:	40d58d3b          	subw	x26,x11,x13
    80003044:	0143f0b3          	and	x1,x7,x20
    80003048:	466dfd13          	andi	x26,x27,1126
    8000304c:	6fae4e13          	xori	x28,x28,1786
    80003050:	41730433          	sub	x8,x6,x23
    80003054:	400102b7          	lui	x5,0x40010
    80003058:	005282b3          	add	x5,x5,x5
    8000305c:	0d028e83          	lb	x29,208(x5) 
    80003060:	327b8c9b          	addiw	x25,x23,807
    80003064:	133b7013          	andi	x0,x22,307
    80003068:	40010437          	lui	x8,0x40010
    8000306c:	00840433          	add	x8,x8,x8
    80003070:	10040413          	addi	x8,x8,256 
    80003074:	f1c43023          	sd	x28,-256(x8)
    80003078:	400109b7          	lui	x19,0x40010
    8000307c:	013989b3          	add	x19,x19,x19
    80003080:	10098993          	addi	x19,x19,256 
    80003084:	f7499383          	lh	x7,-140(x19)
    80003088:	007afab3          	and	x21,x21,x7
    8000308c:	40010cb7          	lui	x25,0x40010
    80003090:	019c8cb3          	add	x25,x25,x25
    80003094:	100c8c93          	addi	x25,x25,256 
    80003098:	ff1cb823          	sd	x17,-16(x25)
    8000309c:	40010bb7          	lui	x23,0x40010
    800030a0:	017b8bb3          	add	x23,x23,x23
    800030a4:	0d3bb423          	sd	x19,200(x23) 
    800030a8:	40010837          	lui	x16,0x40010
    800030ac:	01080833          	add	x16,x16,x16
    800030b0:	10080813          	addi	x16,x16,256 
    800030b4:	f7083703          	ld	x14,-144(x16)
    800030b8:	01a2e033          	or	x0,x5,x26
    800030bc:	400602bb          	subw	x5,x12,x0
    800030c0:	40010bb7          	lui	x23,0x40010
    800030c4:	017b8bb3          	add	x23,x23,x23
    800030c8:	05bbb423          	sd	x27,72(x23) 
    800030cc:	40010b37          	lui	x22,0x40010
    800030d0:	016b0b33          	add	x22,x22,x22
    800030d4:	035b05a3          	sb	x21,43(x22) 
    800030d8:	00d28dbb          	addw	x27,x5,x13
    800030dc:	01fb04b3          	add	x9,x22,x31
    800030e0:	400103b7          	lui	x7,0x40010
    800030e4:	007383b3          	add	x7,x7,x7
    800030e8:	08e39d23          	sh	x14,154(x7) 
    800030ec:	9d58ef93          	ori	x31,x17,-1579
    800030f0:	40010237          	lui	x4,0x40010
    800030f4:	00420233          	add	x4,x4,x4
    800030f8:	10020213          	addi	x4,x4,256 
    800030fc:	f3421d83          	lh	x27,-204(x4) 
    80003100:	f9bffa13          	andi	x20,x31,-101
    80003104:	010e4733          	xor	x14,x28,x16
    80003108:	5b93c713          	xori	x14,x7,1465
    8000310c:	40010cb7          	lui	x25,0x40010
    80003110:	019c8cb3          	add	x25,x25,x25
    80003114:	100c8c93          	addi	x25,x25,256 
    80003118:	f95c8023          	sb	x21,-128(x25)
    8000311c:	3cd87793          	andi	x15,x16,973
    80003120:	411b0d33          	sub	x26,x22,x17
    80003124:	000df033          	and	x0,x27,x0
    80003128:	40010237          	lui	x4,0x40010
    8000312c:	00420233          	add	x4,x4,x4
    80003130:	10020213          	addi	x4,x4,256 
    80003134:	fdc20fa3          	sb	x28,-33(x4) 
    80003138:	004fefb3          	or	x31,x31,x4
    8000313c:	012bebb3          	or	x23,x23,x18
    80003140:	40010bb7          	lui	x23,0x40010
    80003144:	017b8bb3          	add	x23,x23,x23
    80003148:	050b9603          	lh	x12,80(x23) 
    8000314c:	40010ab7          	lui	x21,0x40010
    80003150:	015a8ab3          	add	x21,x21,x21
    80003154:	100a8a93          	addi	x21,x21,256 
    80003158:	fbcae583          	lwu	x11,-68(x21)
    8000315c:	8985f593          	andi	x11,x11,-1896
    80003160:	40010db7          	lui	x27,0x40010
    80003164:	01bd8db3          	add	x27,x27,x27
    80003168:	100d8d93          	addi	x27,x27,256 
    8000316c:	fb0da083          	lw	x1,-80(x27)
    80003170:	40010737          	lui	x14,0x40010
    80003174:	00e70733          	add	x14,x14,x14
    80003178:	0e476903          	lwu	x18,228(x14) 
    8000317c:	01590f3b          	addw	x30,x18,x21
    80003180:	400103b7          	lui	x7,0x40010
    80003184:	007383b3          	add	x7,x7,x7
    80003188:	0a339623          	sh	x3,172(x7) 
    8000318c:	40010ab7          	lui	x21,0x40010
    80003190:	015a8ab3          	add	x21,x21,x21
    80003194:	0a6a9523          	sh	x6,170(x21) 
    80003198:	2ab36313          	ori	x6,x6,683
    8000319c:	400105b7          	lui	x11,0x40010
    800031a0:	00b585b3          	add	x11,x11,x11
    800031a4:	0465d483          	lhu	x9,70(x11) 
    800031a8:	40010ab7          	lui	x21,0x40010
    800031ac:	015a8ab3          	add	x21,x21,x21
    800031b0:	100a8a93          	addi	x21,x21,256 
    800031b4:	f1cab023          	sd	x28,-256(x21)
    800031b8:	40010db7          	lui	x27,0x40010
    800031bc:	01bd8db3          	add	x27,x27,x27
    800031c0:	0b8dc583          	lbu	x11,184(x27) 
    800031c4:	411588b3          	sub	x17,x11,x17
    800031c8:	416600b3          	sub	x1,x12,x22
    800031cc:	40010db7          	lui	x27,0x40010
    800031d0:	01bd8db3          	add	x27,x27,x27
    800031d4:	012d8f83          	lb	x31,18(x27) 
    800031d8:	00a40133          	add	x2,x8,x10
    800031dc:	001ec733          	xor	x14,x29,x1
    800031e0:	40010db7          	lui	x27,0x40010
    800031e4:	01bd8db3          	add	x27,x27,x27
    800031e8:	100d8d93          	addi	x27,x27,256 
    800031ec:	f40dad83          	lw	x27,-192(x27)
    800031f0:	003bfdb3          	and	x27,x23,x3
    800031f4:	40010db7          	lui	x27,0x40010
    800031f8:	01bd8db3          	add	x27,x27,x27
    800031fc:	038da823          	sw	x24,48(x27) 
    80003200:	d483e093          	ori	x1,x7,-696
    80003204:	41c88cb3          	sub	x25,x17,x28
    80003208:	40010937          	lui	x18,0x40010
    8000320c:	01290933          	add	x18,x18,x18
    80003210:	02e94503          	lbu	x10,46(x18) 
    80003214:	00054133          	xor	x2,x10,x0
    80003218:	40010337          	lui	x6,0x40010
    8000321c:	00630333          	add	x6,x6,x6
    80003220:	05c35f83          	lhu	x31,92(x6) 
    80003224:	005ff133          	and	x2,x31,x5
    80003228:	40010e37          	lui	x28,0x40010
    8000322c:	01ce0e33          	add	x28,x28,x28
    80003230:	05ae2823          	sw	x26,80(x28) 
    80003234:	40010c37          	lui	x24,0x40010
    80003238:	018c0c33          	add	x24,x24,x24
    8000323c:	011c1623          	sh	x17,12(x24) 
    80003240:	40010537          	lui	x10,0x40010
    80003244:	00a50533          	add	x10,x10,x10
    80003248:	10050513          	addi	x10,x10,256 
    8000324c:	00c53023          	sd	x12,0(x10)
    80003250:	40010c37          	lui	x24,0x40010
    80003254:	018c0c33          	add	x24,x24,x24
    80003258:	100c0c13          	addi	x24,x24,256 
    8000325c:	f4ec1d23          	sh	x14,-166(x24)
    80003260:	400104b7          	lui	x9,0x40010
    80003264:	009484b3          	add	x9,x9,x9
    80003268:	10048493          	addi	x9,x9,256 
    8000326c:	f054ce03          	lbu	x28,-251(x9)
    80003270:	00bd7e33          	and	x28,x26,x11
    80003274:	26b54d13          	xori	x26,x10,619
    80003278:	40fa08bb          	subw	x17,x20,x15
    8000327c:	400100b7          	lui	x1,0x40010
    80003280:	001080b3          	add	x1,x1,x1
    80003284:	07d0aa23          	sw	x29,116(x1) 
    80003288:	709b821b          	addiw	x4,x23,1801
    8000328c:	408e0a33          	sub	x20,x28,x8
    80003290:	9112ec93          	ori	x25,x5,-1775
    80003294:	40010ab7          	lui	x21,0x40010
    80003298:	015a8ab3          	add	x21,x21,x21
    8000329c:	100a8a93          	addi	x21,x21,256 
    800032a0:	ff8aac03          	lw	x24,-8(x21)
    800032a4:	01827733          	and	x14,x4,x24
    800032a8:	40010937          	lui	x18,0x40010
    800032ac:	01290933          	add	x18,x18,x18
    800032b0:	00192823          	sw	x1,16(x18) 
    800032b4:	52ce8f93          	addi	x31,x29,1324
    800032b8:	414081b3          	sub	x3,x1,x20
    800032bc:	40010f37          	lui	x30,0x40010
    800032c0:	01ef0f33          	add	x30,x30,x30
    800032c4:	100f0f13          	addi	x30,x30,256 
    800032c8:	fa6f2c23          	sw	x6,-72(x30)
    800032cc:	40010d37          	lui	x26,0x40010
    800032d0:	01ad0d33          	add	x26,x26,x26
    800032d4:	100d0d13          	addi	x26,x26,256 
    800032d8:	f74d6183          	lwu	x3,-140(x26)
    800032dc:	408a83bb          	subw	x7,x21,x8
    800032e0:	ea26f893          	andi	x17,x13,-350
    800032e4:	40010837          	lui	x16,0x40010
    800032e8:	01080833          	add	x16,x16,x16
    800032ec:	04c86a83          	lwu	x21,76(x16) 
    800032f0:	40010eb7          	lui	x29,0x40010
    800032f4:	01de8eb3          	add	x29,x29,x29
    800032f8:	100e8e93          	addi	x29,x29,256 
    800032fc:	fa0ebd83          	ld	x27,-96(x29)
    80003300:	01eeedb3          	or	x27,x29,x30
    80003304:	40010eb7          	lui	x29,0x40010
    80003308:	01de8eb3          	add	x29,x29,x29
    8000330c:	008ee903          	lwu	x18,8(x29) 
    80003310:	0127cbb3          	xor	x23,x15,x18
    80003314:	400103b7          	lui	x7,0x40010
    80003318:	007383b3          	add	x7,x7,x7
    8000331c:	10038393          	addi	x7,x7,256 
    80003320:	f883b483          	ld	x9,-120(x7)
    80003324:	d484849b          	addiw	x9,x9,-696
    80003328:	7973879b          	addiw	x15,x7,1943
    8000332c:	40010a37          	lui	x20,0x40010
    80003330:	014a0a33          	add	x20,x20,x20
    80003334:	0d6a0403          	lb	x8,214(x20) 
    80003338:	413484b3          	sub	x9,x9,x19
    8000333c:	0033023b          	addw	x4,x6,x3
    80003340:	9fcd8a9b          	addiw	x21,x27,-1540
    80003344:	400100b7          	lui	x1,0x40010
    80003348:	001080b3          	add	x1,x1,x1
    8000334c:	10008093          	addi	x1,x1,256 
    80003350:	f9a0c783          	lbu	x15,-102(x1)
    80003354:	40010c37          	lui	x24,0x40010
    80003358:	018c0c33          	add	x24,x24,x24
    8000335c:	100c0c13          	addi	x24,x24,256 
    80003360:	fe1c3823          	sd	x1,-16(x24)
    80003364:	5aa86c13          	ori	x24,x16,1450
    80003368:	40010b37          	lui	x22,0x40010
    8000336c:	016b0b33          	add	x22,x22,x22
    80003370:	0f6b1b23          	sh	x22,246(x22) 
    80003374:	01dcf6b3          	and	x13,x25,x29
    80003378:	40010e37          	lui	x28,0x40010
    8000337c:	01ce0e33          	add	x28,x28,x28
    80003380:	074e6483          	lwu	x9,116(x28) 
    80003384:	74168c93          	addi	x25,x13,1857
    80003388:	40010a37          	lui	x20,0x40010
    8000338c:	014a0a33          	add	x20,x20,x20
    80003390:	100a0a13          	addi	x20,x20,256 
    80003394:	f48a3c03          	ld	x24,-184(x20)
    80003398:	01904c33          	xor	x24,x0,x25
    8000339c:	40010ab7          	lui	x21,0x40010
    800033a0:	015a8ab3          	add	x21,x21,x21
    800033a4:	03cabc23          	sd	x28,56(x21) 
    800033a8:	400109b7          	lui	x19,0x40010
    800033ac:	013989b3          	add	x19,x19,x19
    800033b0:	10098993          	addi	x19,x19,256 
    800033b4:	f159b023          	sd	x21,-256(x19)
    800033b8:	00ad0cb3          	add	x25,x26,x10
    800033bc:	403800bb          	subw	x1,x16,x3
    800033c0:	40010a37          	lui	x20,0x40010
    800033c4:	014a0a33          	add	x20,x20,x20
    800033c8:	100a0a13          	addi	x20,x20,256 
    800033cc:	fbba4383          	lbu	x7,-69(x20)
    800033d0:	007686b3          	add	x13,x13,x7
    800033d4:	40010ab7          	lui	x21,0x40010
    800033d8:	015a8ab3          	add	x21,x21,x21
    800033dc:	100a8a93          	addi	x21,x21,256 
    800033e0:	fd2adf03          	lhu	x30,-46(x21)
    800033e4:	00a7ff33          	and	x30,x15,x10
    800033e8:	00b46b33          	or	x22,x8,x11
    800033ec:	40010d37          	lui	x26,0x40010
    800033f0:	01ad0d33          	add	x26,x26,x26
    800033f4:	019d1d23          	sh	x25,26(x26) 
    800033f8:	400102b7          	lui	x5,0x40010
    800033fc:	005282b3          	add	x5,x5,x5
    80003400:	10028293          	addi	x5,x5,256 
    80003404:	f602b983          	ld	x19,-160(x5)
    80003408:	01f90db3          	add	x27,x18,x31
    8000340c:	40010cb7          	lui	x25,0x40010
    80003410:	019c8cb3          	add	x25,x25,x25
    80003414:	043ca823          	sw	x3,80(x25) 
    80003418:	40010637          	lui	x12,0x40010
    8000341c:	00c60633          	add	x12,x12,x12
    80003420:	06466383          	lwu	x7,100(x12) 
    80003424:	40010937          	lui	x18,0x40010
    80003428:	01290933          	add	x18,x18,x18
    8000342c:	10090913          	addi	x18,x18,256 
    80003430:	f1695c03          	lhu	x24,-234(x18)
    80003434:	0062813b          	addw	x2,x5,x6
    80003438:	40010937          	lui	x18,0x40010
    8000343c:	01290933          	add	x18,x18,x18
    80003440:	06794a03          	lbu	x20,103(x18) 
    80003444:	40010d37          	lui	x26,0x40010
    80003448:	01ad0d33          	add	x26,x26,x26
    8000344c:	100d0d13          	addi	x26,x26,256 
    80003450:	f96d0703          	lb	x14,-106(x26)
    80003454:	40010237          	lui	x4,0x40010
    80003458:	00420233          	add	x4,x4,x4
    8000345c:	0fb22c23          	sw	x27,248(x4) 
    80003460:	40bc8433          	sub	x8,x25,x11
    80003464:	963c7f93          	andi	x31,x24,-1693
    80003468:	0c15c413          	xori	x8,x11,193
    8000346c:	57408b93          	addi	x23,x1,1396
    80003470:	00cb05b3          	add	x11,x22,x12
    80003474:	40010437          	lui	x8,0x40010
    80003478:	00840433          	add	x8,x8,x8
    8000347c:	10040413          	addi	x8,x8,256 
    80003480:	f9840e03          	lb	x28,-104(x8)
    80003484:	01be0eb3          	add	x29,x28,x27
    80003488:	68d28d13          	addi	x26,x5,1677
    8000348c:	400109b7          	lui	x19,0x40010
    80003490:	013989b3          	add	x19,x19,x19
    80003494:	10098993          	addi	x19,x19,256 
    80003498:	f629c803          	lbu	x16,-158(x19)
    8000349c:	010fe6b3          	or	x13,x31,x16
    800034a0:	400106b7          	lui	x13,0x40010
    800034a4:	00d686b3          	add	x13,x13,x13
    800034a8:	10068693          	addi	x13,x13,256 
    800034ac:	ff868823          	sb	x24,-16(x13)
    800034b0:	e1157a13          	andi	x20,x10,-495
    800034b4:	400109b7          	lui	x19,0x40010
    800034b8:	013989b3          	add	x19,x19,x19
    800034bc:	10098993          	addi	x19,x19,256 
    800034c0:	fb89be83          	ld	x29,-72(x19)
    800034c4:	40010b37          	lui	x22,0x40010
    800034c8:	016b0b33          	add	x22,x22,x22
    800034cc:	100b0b13          	addi	x22,x22,256 
    800034d0:	f70b6d83          	lwu	x27,-144(x22)
    800034d4:	40010537          	lui	x10,0x40010
    800034d8:	00a50533          	add	x10,x10,x10
    800034dc:	10050513          	addi	x10,x10,256 
    800034e0:	f5855d83          	lhu	x27,-168(x10)
    800034e4:	01b8cdb3          	xor	x27,x17,x27
    800034e8:	0194003b          	addw	x0,x8,x25
    800034ec:	40010f37          	lui	x30,0x40010
    800034f0:	01ef0f33          	add	x30,x30,x30
    800034f4:	088f5783          	lhu	x15,136(x30) 
    800034f8:	01b70f3b          	addw	x30,x14,x27
    800034fc:	400103b7          	lui	x7,0x40010
    80003500:	007383b3          	add	x7,x7,x7
    80003504:	0a63d303          	lhu	x6,166(x7) 
    80003508:	68f8c313          	xori	x6,x17,1679
    8000350c:	40010ab7          	lui	x21,0x40010
    80003510:	015a8ab3          	add	x21,x21,x21
    80003514:	054aa223          	sw	x20,68(x21) 
    80003518:	40010537          	lui	x10,0x40010
    8000351c:	00a50533          	add	x10,x10,x10
    80003520:	0ec51923          	sh	x12,242(x10) 
    80003524:	40010fb7          	lui	x31,0x40010
    80003528:	01ff8fb3          	add	x31,x31,x31
    8000352c:	0c8fac83          	lw	x25,200(x31) 
    80003530:	406c0cbb          	subw	x25,x24,x6
    80003534:	40010ab7          	lui	x21,0x40010
    80003538:	015a8ab3          	add	x21,x21,x21
    8000353c:	100a8a93          	addi	x21,x21,256 
    80003540:	f55aa223          	sw	x21,-188(x21)
    80003544:	40010d37          	lui	x26,0x40010
    80003548:	01ad0d33          	add	x26,x26,x26
    8000354c:	100d0d13          	addi	x26,x26,256 
    80003550:	f88d4783          	lbu	x15,-120(x26)
    80003554:	400102b7          	lui	x5,0x40010
    80003558:	005282b3          	add	x5,x5,x5
    8000355c:	092280a3          	sb	x18,129(x5) 
    80003560:	12b0e713          	ori	x14,x1,299
    80003564:	4157853b          	subw	x10,x15,x21
    80003568:	006a7fb3          	and	x31,x20,x6
    8000356c:	400109b7          	lui	x19,0x40010
    80003570:	013989b3          	add	x19,x19,x19
    80003574:	0989b283          	ld	x5,152(x19) 
    80003578:	40010a37          	lui	x20,0x40010
    8000357c:	014a0a33          	add	x20,x20,x20
    80003580:	100a0a13          	addi	x20,x20,256 
    80003584:	fc4a2983          	lw	x19,-60(x20)
    80003588:	400107b7          	lui	x15,0x40010
    8000358c:	00f787b3          	add	x15,x15,x15
    80003590:	05c789a3          	sb	x28,83(x15) 
    80003594:	400107b7          	lui	x15,0x40010
    80003598:	00f787b3          	add	x15,x15,x15
    8000359c:	0b87a223          	sw	x24,164(x15) 
    800035a0:	414c02b3          	sub	x5,x24,x20
    800035a4:	40010c37          	lui	x24,0x40010
    800035a8:	018c0c33          	add	x24,x24,x24
    800035ac:	01bc4603          	lbu	x12,27(x24) 
    800035b0:	0126f633          	and	x12,x13,x18
    800035b4:	40010737          	lui	x14,0x40010
    800035b8:	00e70733          	add	x14,x14,x14
    800035bc:	10070713          	addi	x14,x14,256 
    800035c0:	f2e74f83          	lbu	x31,-210(x14)
    800035c4:	512bc813          	xori	x16,x23,1298
    800035c8:	73c40d13          	addi	x26,x8,1852
    800035cc:	876a8e9b          	addiw	x29,x21,-1930
    800035d0:	4138893b          	subw	x18,x17,x19
    800035d4:	400103b7          	lui	x7,0x40010
    800035d8:	007383b3          	add	x7,x7,x7
    800035dc:	10038393          	addi	x7,x7,256 
    800035e0:	fa339b23          	sh	x3,-74(x7)
    800035e4:	40010f37          	lui	x30,0x40010
    800035e8:	01ef0f33          	add	x30,x30,x30
    800035ec:	000f2c83          	lw	x25,0(x30) 
    800035f0:	019b023b          	addw	x4,x22,x25
    800035f4:	24ade713          	ori	x14,x27,586
    800035f8:	01bcfcb3          	and	x25,x25,x27
    800035fc:	40010937          	lui	x18,0x40010
    80003600:	01290933          	add	x18,x18,x18
    80003604:	0cd91623          	sh	x13,204(x18) 
    80003608:	e1c5841b          	addiw	x8,x11,-484
    8000360c:	40010a37          	lui	x20,0x40010
    80003610:	014a0a33          	add	x20,x20,x20
    80003614:	100a0a13          	addi	x20,x20,256 
    80003618:	f30a3a83          	ld	x21,-208(x20)
    8000361c:	40010db7          	lui	x27,0x40010
    80003620:	01bd8db3          	add	x27,x27,x27
    80003624:	100d8d93          	addi	x27,x27,256 
    80003628:	f10dad03          	lw	x26,-240(x27)
    8000362c:	01894333          	xor	x6,x18,x24
    80003630:	7093ca93          	xori	x21,x7,1801
    80003634:	000002bb          	addw	x5,x0,x0
    80003638:	0074f733          	and	x14,x9,x7
    8000363c:	e0f00793          	li	x15,-497
    80003640:	000df0b3          	and	x1,x27,x0
    80003644:	40010237          	lui	x4,0x40010
    80003648:	00420233          	add	x4,x4,x4
    8000364c:	0d426183          	lwu	x3,212(x4) 
    80003650:	9afbeb13          	ori	x22,x23,-1617
    80003654:	00e04eb3          	xor	x29,x0,x14
    80003658:	400104b7          	lui	x9,0x40010
    8000365c:	009484b3          	add	x9,x9,x9
    80003660:	0644a103          	lw	x2,100(x9) 
    80003664:	40010437          	lui	x8,0x40010
    80003668:	00840433          	add	x8,x8,x8
    8000366c:	10040413          	addi	x8,x8,256 
    80003670:	fc441683          	lh	x13,-60(x8)
    80003674:	418a86b3          	sub	x13,x21,x24
    80003678:	40010f37          	lui	x30,0x40010
    8000367c:	01ef0f33          	add	x30,x30,x30
    80003680:	100f0f13          	addi	x30,x30,256 
    80003684:	f27f2223          	sw	x7,-220(x30)
    80003688:	68908393          	addi	x7,x1,1673
    8000368c:	400104b7          	lui	x9,0x40010
    80003690:	009484b3          	add	x9,x9,x9
    80003694:	10048493          	addi	x9,x9,256 
    80003698:	f3548583          	lb	x11,-203(x9)
    8000369c:	40758d3b          	subw	x26,x11,x7
    800036a0:	40010337          	lui	x6,0x40010
    800036a4:	00630333          	add	x6,x6,x6
    800036a8:	0e833d83          	ld	x27,232(x6) 
    800036ac:	400109b7          	lui	x19,0x40010
    800036b0:	013989b3          	add	x19,x19,x19
    800036b4:	10098993          	addi	x19,x19,256 
    800036b8:	f1e99283          	lh	x5,-226(x19)
    800036bc:	fdc17693          	andi	x13,x2,-36
    800036c0:	be517593          	andi	x11,x2,-1051
    800036c4:	40010337          	lui	x6,0x40010
    800036c8:	00630333          	add	x6,x6,x6
    800036cc:	10030313          	addi	x6,x6,256 
    800036d0:	f6c30823          	sb	x12,-144(x6)
    800036d4:	c7527813          	andi	x16,x4,-907
    800036d8:	40010e37          	lui	x28,0x40010
    800036dc:	01ce0e33          	add	x28,x28,x28
    800036e0:	0c0e3503          	ld	x10,192(x28) 
    800036e4:	40010eb7          	lui	x29,0x40010
    800036e8:	01de8eb3          	add	x29,x29,x29
    800036ec:	022ebc23          	sd	x2,56(x29) 
    800036f0:	52816093          	ori	x1,x2,1320
    800036f4:	40010fb7          	lui	x31,0x40010
    800036f8:	01ff8fb3          	add	x31,x31,x31
    800036fc:	0ccf8f03          	lb	x30,204(x31) 
    80003700:	400106b7          	lui	x13,0x40010
    80003704:	00d686b3          	add	x13,x13,x13
    80003708:	10068693          	addi	x13,x13,256 
    8000370c:	f406b183          	ld	x3,-192(x13)
    80003710:	4081853b          	subw	x10,x3,x8
    80003714:	40230cbb          	subw	x25,x6,x2
    80003718:	014989b3          	add	x19,x19,x20
    8000371c:	40010eb7          	lui	x29,0x40010
    80003720:	01de8eb3          	add	x29,x29,x29
    80003724:	0f0eaf03          	lw	x30,240(x29) 
    80003728:	00e84f33          	xor	x30,x16,x14
    8000372c:	40010fb7          	lui	x31,0x40010
    80003730:	01ff8fb3          	add	x31,x31,x31
    80003734:	0c1f8c03          	lb	x24,193(x31) 
    80003738:	40760c3b          	subw	x24,x12,x7
    8000373c:	0050fa33          	and	x20,x1,x5
    80003740:	60160e13          	addi	x28,x12,1537
    80003744:	40010137          	lui	x2,0x40010
    80003748:	00210133          	add	x2,x2,x2
    8000374c:	03013703          	ld	x14,48(x2) 
    80003750:	400106b7          	lui	x13,0x40010
    80003754:	00d686b3          	add	x13,x13,x13
    80003758:	0206e983          	lwu	x19,32(x13) 
    8000375c:	01324a33          	xor	x20,x4,x19
    80003760:	725a8913          	addi	x18,x21,1829
    80003764:	400107b7          	lui	x15,0x40010
    80003768:	00f787b3          	add	x15,x15,x15
    8000376c:	0927a023          	sw	x18,128(x15) 
    80003770:	400107b7          	lui	x15,0x40010
    80003774:	00f787b3          	add	x15,x15,x15
    80003778:	0087bf83          	ld	x31,8(x15) 
    8000377c:	400105b7          	lui	x11,0x40010
    80003780:	00b585b3          	add	x11,x11,x11
    80003784:	0745a703          	lw	x14,116(x11) 
    80003788:	78977713          	andi	x14,x14,1929
    8000378c:	4164883b          	subw	x16,x9,x22
    80003790:	400103b7          	lui	x7,0x40010
    80003794:	007383b3          	add	x7,x7,x7
    80003798:	10038393          	addi	x7,x7,256 
    8000379c:	f4f38f03          	lb	x30,-177(x7)
    800037a0:	01e60433          	add	x8,x12,x30
    800037a4:	e6c28093          	addi	x1,x5,-404
    800037a8:	40010cb7          	lui	x25,0x40010
    800037ac:	019c8cb3          	add	x25,x25,x25
    800037b0:	0b8ca283          	lw	x5,184(x25) 
    800037b4:	09350b93          	addi	x23,x10,147
    800037b8:	400101b7          	lui	x3,0x40010
    800037bc:	003181b3          	add	x3,x3,x3
    800037c0:	03718aa3          	sb	x23,53(x3) 
    800037c4:	40010837          	lui	x16,0x40010
    800037c8:	01080833          	add	x16,x16,x16
    800037cc:	10080813          	addi	x16,x16,256 
    800037d0:	f8781d23          	sh	x7,-102(x16)
    800037d4:	400102b7          	lui	x5,0x40010
    800037d8:	005282b3          	add	x5,x5,x5
    800037dc:	10028293          	addi	x5,x5,256 
    800037e0:	ffe29303          	lh	x6,-2(x5)
    800037e4:	6020cb13          	xori	x22,x1,1538
    800037e8:	010ff533          	and	x10,x31,x16
    800037ec:	40f783b3          	sub	x7,x15,x15
    800037f0:	400106b7          	lui	x13,0x40010
    800037f4:	00d686b3          	add	x13,x13,x13
    800037f8:	10068693          	addi	x13,x13,256 
    800037fc:	fef6c983          	lbu	x19,-17(x13)
    80003800:	81df041b          	addiw	x8,x30,-2019
    80003804:	05840113          	addi	x2,x8,88
    80003808:	01cd0db3          	add	x27,x26,x28
    8000380c:	40010837          	lui	x16,0x40010
    80003810:	01080833          	add	x16,x16,x16
    80003814:	10080813          	addi	x16,x16,256 
    80003818:	fa082c23          	sw	x0,-72(x16)
    8000381c:	40010b37          	lui	x22,0x40010
    80003820:	016b0b33          	add	x22,x22,x22
    80003824:	05cb0ba3          	sb	x28,87(x22) 
    80003828:	40010837          	lui	x16,0x40010
    8000382c:	01080833          	add	x16,x16,x16
    80003830:	10080813          	addi	x16,x16,256 
    80003834:	fa681823          	sh	x6,-80(x16)
    80003838:	40010db7          	lui	x27,0x40010
    8000383c:	01bd8db3          	add	x27,x27,x27
    80003840:	100d8d93          	addi	x27,x27,256 
    80003844:	f69db823          	sd	x9,-144(x27)
    80003848:	400102b7          	lui	x5,0x40010
    8000384c:	005282b3          	add	x5,x5,x5
    80003850:	0b328323          	sb	x19,166(x5) 
    80003854:	00b6fbb3          	and	x23,x13,x11
    80003858:	40010fb7          	lui	x31,0x40010
    8000385c:	01ff8fb3          	add	x31,x31,x31
    80003860:	100f8f93          	addi	x31,x31,256 
    80003864:	f45fb023          	sd	x5,-192(x31)
    80003868:	a2276c13          	ori	x24,x14,-1502
    8000386c:	400104b7          	lui	x9,0x40010
    80003870:	009484b3          	add	x9,x9,x9
    80003874:	0064cc83          	lbu	x25,6(x9) 
    80003878:	400104b7          	lui	x9,0x40010
    8000387c:	009484b3          	add	x9,x9,x9
    80003880:	0504ba83          	ld	x21,80(x9) 
    80003884:	010ef633          	and	x12,x29,x16
    80003888:	3f31eb93          	ori	x23,x3,1011
    8000388c:	40010bb7          	lui	x23,0x40010
    80003890:	017b8bb3          	add	x23,x23,x23
    80003894:	100b8b93          	addi	x23,x23,256 
    80003898:	f58b8503          	lb	x10,-168(x23)
    8000389c:	40010237          	lui	x4,0x40010
    800038a0:	00420233          	add	x4,x4,x4
    800038a4:	10020213          	addi	x4,x4,256 
    800038a8:	f2821283          	lh	x5,-216(x4) 
    800038ac:	01ad76b3          	and	x13,x26,x26
    800038b0:	004683bb          	addw	x7,x13,x4
    800038b4:	400108b7          	lui	x17,0x40010
    800038b8:	011888b3          	add	x17,x17,x17
    800038bc:	10088893          	addi	x17,x17,256 
    800038c0:	fcd88683          	lb	x13,-51(x17)
    800038c4:	dc168693          	addi	x13,x13,-575
    800038c8:	400109b7          	lui	x19,0x40010
    800038cc:	013989b3          	add	x19,x19,x19
    800038d0:	07c99503          	lh	x10,124(x19) 
    800038d4:	60856513          	ori	x10,x10,1544
    800038d8:	40010f37          	lui	x30,0x40010
    800038dc:	01ef0f33          	add	x30,x30,x30
    800038e0:	100f0f13          	addi	x30,x30,256 
    800038e4:	f7af3823          	sd	x26,-144(x30)
    800038e8:	40010e37          	lui	x28,0x40010
    800038ec:	01ce0e33          	add	x28,x28,x28
    800038f0:	09ce3423          	sd	x28,136(x28) 
    800038f4:	41ad8133          	sub	x2,x27,x26
    800038f8:	400103b7          	lui	x7,0x40010
    800038fc:	007383b3          	add	x7,x7,x7
    80003900:	10038393          	addi	x7,x7,256 
    80003904:	fa83dc03          	lhu	x24,-88(x7)
    80003908:	b0744193          	xori	x3,x8,-1273
    8000390c:	40010d37          	lui	x26,0x40010
    80003910:	01ad0d33          	add	x26,x26,x26
    80003914:	100d0d13          	addi	x26,x26,256 
    80003918:	01fd0023          	sb	x31,0(x26)
    8000391c:	00e0e7b3          	or	x15,x1,x14
    80003920:	017f45b3          	xor	x11,x30,x23
    80003924:	40010ab7          	lui	x21,0x40010
    80003928:	015a8ab3          	add	x21,x21,x21
    8000392c:	100a8a93          	addi	x21,x21,256 
    80003930:	fa7ab023          	sd	x7,-96(x21)
    80003934:	018d8733          	add	x14,x27,x24
    80003938:	40010bb7          	lui	x23,0x40010
    8000393c:	017b8bb3          	add	x23,x23,x23
    80003940:	100b8b93          	addi	x23,x23,256 
    80003944:	fbebc303          	lbu	x6,-66(x23)
    80003948:	40010837          	lui	x16,0x40010
    8000394c:	01080833          	add	x16,x16,x16
    80003950:	04c82623          	sw	x12,76(x16) 
    80003954:	400107b7          	lui	x15,0x40010
    80003958:	00f787b3          	add	x15,x15,x15
    8000395c:	10078793          	addi	x15,x15,256 
    80003960:	f5079283          	lh	x5,-176(x15)
    80003964:	40010e37          	lui	x28,0x40010
    80003968:	01ce0e33          	add	x28,x28,x28
    8000396c:	081e3423          	sd	x1,136(x28) 
    80003970:	3f5f8f93          	addi	x31,x31,1013
    80003974:	01af7633          	and	x12,x30,x26
    80003978:	400102b7          	lui	x5,0x40010
    8000397c:	005282b3          	add	x5,x5,x5
    80003980:	01c2df03          	lhu	x30,28(x5) 
    80003984:	0161e833          	or	x16,x3,x22
    80003988:	40010537          	lui	x10,0x40010
    8000398c:	00a50533          	add	x10,x10,x10
    80003990:	0f255803          	lhu	x16,242(x10) 
    80003994:	00d67833          	and	x16,x12,x13
    80003998:	40010ab7          	lui	x21,0x40010
    8000399c:	015a8ab3          	add	x21,x21,x21
    800039a0:	100a8a93          	addi	x21,x21,256 
    800039a4:	fd8a9803          	lh	x16,-40(x21)
    800039a8:	010bc533          	xor	x10,x23,x16
    800039ac:	40010ab7          	lui	x21,0x40010
    800039b0:	015a8ab3          	add	x21,x21,x21
    800039b4:	100a8a93          	addi	x21,x21,256 
    800039b8:	fe6a9523          	sh	x6,-22(x21)
    800039bc:	41638ab3          	sub	x21,x7,x22
    800039c0:	400109b7          	lui	x19,0x40010
    800039c4:	013989b3          	add	x19,x19,x19
    800039c8:	0c59b423          	sd	x5,200(x19) 
    800039cc:	00f6093b          	addw	x18,x12,x15
    800039d0:	40010e37          	lui	x28,0x40010
    800039d4:	01ce0e33          	add	x28,x28,x28
    800039d8:	100e0e13          	addi	x28,x28,256 
    800039dc:	fa4e2803          	lw	x16,-92(x28)
    800039e0:	00d86c33          	or	x24,x16,x13
    800039e4:	400108b7          	lui	x17,0x40010
    800039e8:	011888b3          	add	x17,x17,x17
    800039ec:	01f88e83          	lb	x29,31(x17) 
    800039f0:	7b2cf113          	andi	x2,x25,1970
    800039f4:	322ae113          	ori	x2,x21,802
    800039f8:	40010ab7          	lui	x21,0x40010
    800039fc:	015a8ab3          	add	x21,x21,x21
    80003a00:	0ccae503          	lwu	x10,204(x21) 
    80003a04:	ad81e713          	ori	x14,x3,-1320
    80003a08:	0038ceb3          	xor	x29,x17,x3
    80003a0c:	01508833          	add	x16,x1,x21
    80003a10:	0092883b          	addw	x16,x5,x9
    80003a14:	0029c933          	xor	x18,x19,x2
    80003a18:	40010bb7          	lui	x23,0x40010
    80003a1c:	017b8bb3          	add	x23,x23,x23
    80003a20:	050bba03          	ld	x20,80(x23) 
    80003a24:	016546b3          	xor	x13,x10,x22
    80003a28:	40010637          	lui	x12,0x40010
    80003a2c:	00c60633          	add	x12,x12,x12
    80003a30:	10060613          	addi	x12,x12,256 
    80003a34:	f7761a23          	sh	x23,-140(x12)
    80003a38:	40010f37          	lui	x30,0x40010
    80003a3c:	01ef0f33          	add	x30,x30,x30
    80003a40:	100f0f13          	addi	x30,x30,256 
    80003a44:	f3af0523          	sb	x26,-214(x30)
    80003a48:	e098fc13          	andi	x24,x17,-503
    80003a4c:	00a18cbb          	addw	x25,x3,x10
    80003a50:	7e814e13          	xori	x28,x2,2024
    80003a54:	bad20093          	addi	x1,x4,-1107 
    80003a58:	400106b7          	lui	x13,0x40010
    80003a5c:	00d686b3          	add	x13,x13,x13
    80003a60:	0016c403          	lbu	x8,1(x13) 
    80003a64:	40010f37          	lui	x30,0x40010
    80003a68:	01ef0f33          	add	x30,x30,x30
    80003a6c:	100f0f13          	addi	x30,x30,256 
    80003a70:	f46f1223          	sh	x6,-188(x30)
    80003a74:	40010237          	lui	x4,0x40010
    80003a78:	00420233          	add	x4,x4,x4
    80003a7c:	08e25f83          	lhu	x31,142(x4) 
    80003a80:	01fff9b3          	and	x19,x31,x31
    80003a84:	400107b7          	lui	x15,0x40010
    80003a88:	00f787b3          	add	x15,x15,x15
    80003a8c:	0687a983          	lw	x19,104(x15) 
    80003a90:	d639f993          	andi	x19,x19,-669
    80003a94:	40010737          	lui	x14,0x40010
    80003a98:	00e70733          	add	x14,x14,x14
    80003a9c:	10070713          	addi	x14,x14,256 
    80003aa0:	f2170e23          	sb	x1,-196(x14)
    80003aa4:	c54bc613          	xori	x12,x23,-940
    80003aa8:	75aeee13          	ori	x28,x29,1882
    80003aac:	01c584b3          	add	x9,x11,x28
    80003ab0:	f99fe893          	ori	x17,x31,-103
    80003ab4:	1959881b          	addiw	x16,x19,405
    80003ab8:	412a87bb          	subw	x15,x21,x18
    80003abc:	400106b7          	lui	x13,0x40010
    80003ac0:	00d686b3          	add	x13,x13,x13
    80003ac4:	10068693          	addi	x13,x13,256 
    80003ac8:	fed6aa23          	sw	x13,-12(x13)
    80003acc:	406b861b          	addiw	x12,x23,1030
    80003ad0:	ae636013          	ori	x0,x6,-1306
    80003ad4:	41db8933          	sub	x18,x23,x29
    80003ad8:	400109b7          	lui	x19,0x40010
    80003adc:	013989b3          	add	x19,x19,x19
    80003ae0:	0209bd83          	ld	x27,32(x19) 
    80003ae4:	400109b7          	lui	x19,0x40010
    80003ae8:	013989b3          	add	x19,x19,x19
    80003aec:	0e69bc23          	sd	x6,248(x19) 
    80003af0:	41c3893b          	subw	x18,x7,x28
    80003af4:	400105b7          	lui	x11,0x40010
    80003af8:	00b585b3          	add	x11,x11,x11
    80003afc:	10058593          	addi	x11,x11,256 
    80003b00:	fa05e683          	lwu	x13,-96(x11)
    80003b04:	000276b3          	and	x13,x4,x0
    80003b08:	400105b7          	lui	x11,0x40010
    80003b0c:	00b585b3          	add	x11,x11,x11
    80003b10:	10058593          	addi	x11,x11,256 
    80003b14:	f505b423          	sd	x16,-184(x11)
    80003b18:	c0078c9b          	addiw	x25,x15,-1024
    80003b1c:	41a381bb          	subw	x3,x7,x26
    80003b20:	40010137          	lui	x2,0x40010
    80003b24:	00210133          	add	x2,x2,x2
    80003b28:	0a812d03          	lw	x26,168(x2) 
    80003b2c:	009e8433          	add	x8,x29,x9
    80003b30:	011acf33          	xor	x30,x21,x17
    80003b34:	008acd33          	xor	x26,x21,x8
    80003b38:	400109b7          	lui	x19,0x40010
    80003b3c:	013989b3          	add	x19,x19,x19
    80003b40:	0289bc83          	ld	x25,40(x19) 
    80003b44:	fe467c93          	andi	x25,x12,-28
    80003b48:	400104b7          	lui	x9,0x40010
    80003b4c:	009484b3          	add	x9,x9,x9
    80003b50:	0a648623          	sb	x6,172(x9) 
    80003b54:	40010137          	lui	x2,0x40010
    80003b58:	00210133          	add	x2,x2,x2
    80003b5c:	05013a03          	ld	x20,80(x2) 
    80003b60:	fe7a4393          	xori	x7,x20,-25
    80003b64:	40010eb7          	lui	x29,0x40010
    80003b68:	01de8eb3          	add	x29,x29,x29
    80003b6c:	100e8e93          	addi	x29,x29,256 
    80003b70:	f2ceec83          	lwu	x25,-212(x29)
    80003b74:	019b0433          	add	x8,x22,x25
    80003b78:	40010b37          	lui	x22,0x40010
    80003b7c:	016b0b33          	add	x22,x22,x22
    80003b80:	100b0b13          	addi	x22,x22,256 
    80003b84:	ffbb4b03          	lbu	x22,-5(x22)
    80003b88:	41800d3b          	negw	x26,x24
    80003b8c:	402e033b          	subw	x6,x28,x2
    80003b90:	40010b37          	lui	x22,0x40010
    80003b94:	016b0b33          	add	x22,x22,x22
    80003b98:	100b0b13          	addi	x22,x22,256 
    80003b9c:	f98b2183          	lw	x3,-104(x22)
    80003ba0:	400104b7          	lui	x9,0x40010
    80003ba4:	009484b3          	add	x9,x9,x9
    80003ba8:	10048493          	addi	x9,x9,256 
    80003bac:	f8a4ce03          	lbu	x28,-118(x9)
    80003bb0:	9d026d93          	ori	x27,x4,-1584
    80003bb4:	0f138293          	addi	x5,x7,241
    80003bb8:	00e87133          	and	x2,x16,x14
    80003bbc:	400103b7          	lui	x7,0x40010
    80003bc0:	007383b3          	add	x7,x7,x7
    80003bc4:	10038393          	addi	x7,x7,256 
    80003bc8:	f343b023          	sd	x20,-224(x7)
    80003bcc:	40010337          	lui	x6,0x40010
    80003bd0:	00630333          	add	x6,x6,x6
    80003bd4:	10030313          	addi	x6,x6,256 
    80003bd8:	f2436803          	lwu	x16,-220(x6)
    80003bdc:	124cc693          	xori	x13,x25,292
    80003be0:	0140043b          	addw	x8,x0,x20
    80003be4:	414b033b          	subw	x6,x22,x20
    80003be8:	40e8833b          	subw	x6,x17,x14
    80003bec:	0189083b          	addw	x16,x18,x24
    80003bf0:	400106b7          	lui	x13,0x40010
    80003bf4:	00d686b3          	add	x13,x13,x13
    80003bf8:	0dc68283          	lb	x5,220(x13) 
    80003bfc:	5781ea13          	ori	x20,x3,1400
    80003c00:	b2626e13          	ori	x28,x4,-1242
    80003c04:	2cce7813          	andi	x16,x28,716
    80003c08:	0090e7b3          	or	x15,x1,x9
    80003c0c:	eb1ce693          	ori	x13,x25,-335
    80003c10:	40010b37          	lui	x22,0x40010
    80003c14:	016b0b33          	add	x22,x22,x22
    80003c18:	100b0b13          	addi	x22,x22,256 
    80003c1c:	f1ab4883          	lbu	x17,-230(x22)
    80003c20:	23e57813          	andi	x16,x10,574
    80003c24:	41d20433          	sub	x8,x4,x29
    80003c28:	40010737          	lui	x14,0x40010
    80003c2c:	00e70733          	add	x14,x14,x14
    80003c30:	10070713          	addi	x14,x14,256 
    80003c34:	fa672a23          	sw	x6,-76(x14)
    80003c38:	400104b7          	lui	x9,0x40010
    80003c3c:	009484b3          	add	x9,x9,x9
    80003c40:	05f4bc23          	sd	x31,88(x9) 
    80003c44:	26ad6f13          	ori	x30,x26,618
    80003c48:	07930093          	addi	x1,x6,121
    80003c4c:	00decb33          	xor	x22,x29,x13
    80003c50:	e0b1fb13          	andi	x22,x3,-501
    80003c54:	01b78f33          	add	x30,x15,x27
    80003c58:	00ec8d3b          	addw	x26,x25,x14
    80003c5c:	400107b7          	lui	x15,0x40010
    80003c60:	00f787b3          	add	x15,x15,x15
    80003c64:	08c78783          	lb	x15,140(x15) 
    80003c68:	401a0cbb          	subw	x25,x20,x1
    80003c6c:	400109b7          	lui	x19,0x40010
    80003c70:	013989b3          	add	x19,x19,x19
    80003c74:	10098993          	addi	x19,x19,256 
    80003c78:	fe89b903          	ld	x18,-24(x19)
    80003c7c:	40010eb7          	lui	x29,0x40010
    80003c80:	01de8eb3          	add	x29,x29,x29
    80003c84:	057e8903          	lb	x18,87(x29) 
    80003c88:	ae15c913          	xori	x18,x11,-1311
    80003c8c:	1a7a7e93          	andi	x29,x20,423
    80003c90:	40010b37          	lui	x22,0x40010
    80003c94:	016b0b33          	add	x22,x22,x22
    80003c98:	088b6783          	lwu	x15,136(x22) 
    80003c9c:	3347869b          	addiw	x13,x15,820
    80003ca0:	40010ab7          	lui	x21,0x40010
    80003ca4:	015a8ab3          	add	x21,x21,x21
    80003ca8:	000aae03          	lw	x28,0(x21) 
    80003cac:	004c6ab3          	or	x21,x24,x4
    80003cb0:	40a686bb          	subw	x13,x13,x10
    80003cb4:	b7a40813          	addi	x16,x8,-1158
    80003cb8:	400100b7          	lui	x1,0x40010
    80003cbc:	001080b3          	add	x1,x1,x1
    80003cc0:	10008093          	addi	x1,x1,256 
    80003cc4:	fb708403          	lb	x8,-73(x1)
    80003cc8:	a5240713          	addi	x14,x8,-1454
    80003ccc:	40010cb7          	lui	x25,0x40010
    80003cd0:	019c8cb3          	add	x25,x25,x25
    80003cd4:	0d2cb823          	sd	x18,208(x25) 
    80003cd8:	40010fb7          	lui	x31,0x40010
    80003cdc:	01ff8fb3          	add	x31,x31,x31
    80003ce0:	080f8403          	lb	x8,128(x31) 
    80003ce4:	40010237          	lui	x4,0x40010
    80003ce8:	00420233          	add	x4,x4,x4
    80003cec:	04422583          	lw	x11,68(x4) 
    80003cf0:	01b5e933          	or	x18,x11,x27
    80003cf4:	40010e37          	lui	x28,0x40010
    80003cf8:	01ce0e33          	add	x28,x28,x28
    80003cfc:	100e0e13          	addi	x28,x28,256 
    80003d00:	fa6e4b83          	lbu	x23,-90(x28)
    80003d04:	456bfc93          	andi	x25,x23,1110
    80003d08:	40010437          	lui	x8,0x40010
    80003d0c:	00840433          	add	x8,x8,x8
    80003d10:	10040413          	addi	x8,x8,256 
    80003d14:	fa042b83          	lw	x23,-96(x8)
    80003d18:	ae76f413          	andi	x8,x13,-1305
    80003d1c:	40010e37          	lui	x28,0x40010
    80003d20:	01ce0e33          	add	x28,x28,x28
    80003d24:	0fce1383          	lh	x7,252(x28) 
    80003d28:	c6c3f393          	andi	x7,x7,-916
    80003d2c:	000a6ab3          	or	x21,x20,x0
    80003d30:	40010937          	lui	x18,0x40010
    80003d34:	01290933          	add	x18,x18,x18
    80003d38:	04891803          	lh	x16,72(x18) 
    80003d3c:	4149013b          	subw	x2,x18,x20
    80003d40:	40010237          	lui	x4,0x40010
    80003d44:	00420233          	add	x4,x4,x4
    80003d48:	01e21883          	lh	x17,30(x4) 
    80003d4c:	00206bb3          	or	x23,x0,x2
    80003d50:	01b9ef33          	or	x30,x19,x27
    80003d54:	400105b7          	lui	x11,0x40010
    80003d58:	00b585b3          	add	x11,x11,x11
    80003d5c:	10058593          	addi	x11,x11,256 
    80003d60:	f5958c03          	lb	x24,-167(x11)
    80003d64:	0093f833          	and	x16,x7,x9
    80003d68:	49874493          	xori	x9,x14,1176
    80003d6c:	40010137          	lui	x2,0x40010
    80003d70:	00210133          	add	x2,x2,x2
    80003d74:	00412283          	lw	x5,4(x2) 
    80003d78:	012b65b3          	or	x11,x22,x18
    80003d7c:	40010a37          	lui	x20,0x40010
    80003d80:	014a0a33          	add	x20,x20,x20
    80003d84:	020a2283          	lw	x5,32(x20) 
    80003d88:	2b16c813          	xori	x16,x13,689
    80003d8c:	00d24633          	xor	x12,x4,x13
    80003d90:	40010cb7          	lui	x25,0x40010
    80003d94:	019c8cb3          	add	x25,x25,x25
    80003d98:	0dcca883          	lw	x17,220(x25) 
    80003d9c:	40b88d33          	sub	x26,x17,x11
    80003da0:	32926393          	ori	x7,x4,809
    80003da4:	00e06e33          	or	x28,x0,x14
    80003da8:	b9034513          	xori	x10,x6,-1136
    80003dac:	400102b7          	lui	x5,0x40010
    80003db0:	005282b3          	add	x5,x5,x5
    80003db4:	02228d23          	sb	x2,58(x5) 
    80003db8:	400103b7          	lui	x7,0x40010
    80003dbc:	007383b3          	add	x7,x7,x7
    80003dc0:	0683a083          	lw	x1,104(x7) 
    80003dc4:	84dcc793          	xori	x15,x25,-1971
    80003dc8:	40010eb7          	lui	x29,0x40010
    80003dcc:	01de8eb3          	add	x29,x29,x29
    80003dd0:	100e8e93          	addi	x29,x29,256 
    80003dd4:	f76eda83          	lhu	x21,-138(x29)
    80003dd8:	400103b7          	lui	x7,0x40010
    80003ddc:	007383b3          	add	x7,x7,x7
    80003de0:	0a93a223          	sw	x9,164(x7) 
    80003de4:	400102b7          	lui	x5,0x40010
    80003de8:	005282b3          	add	x5,x5,x5
    80003dec:	0cd2b023          	sd	x13,192(x5) 
    80003df0:	40010fb7          	lui	x31,0x40010
    80003df4:	01ff8fb3          	add	x31,x31,x31
    80003df8:	100f8f93          	addi	x31,x31,256 
    80003dfc:	f2efb023          	sd	x14,-224(x31)
    80003e00:	0171fd33          	and	x26,x3,x23
    80003e04:	00d709bb          	addw	x19,x14,x13
    80003e08:	01fcffb3          	and	x31,x25,x31
    80003e0c:	23b5c893          	xori	x17,x11,571
    80003e10:	8221041b          	addiw	x8,x2,-2014
    80003e14:	41d08233          	sub	x4,x1,x29
    80003e18:	40010a37          	lui	x20,0x40010
    80003e1c:	014a0a33          	add	x20,x20,x20
    80003e20:	0faa0e23          	sb	x26,252(x20) 
    80003e24:	41510c33          	sub	x24,x2,x21
    80003e28:	40010737          	lui	x14,0x40010
    80003e2c:	00e70733          	add	x14,x14,x14
    80003e30:	10070713          	addi	x14,x14,256 
    80003e34:	f9472a03          	lw	x20,-108(x14)
    80003e38:	40010cb7          	lui	x25,0x40010
    80003e3c:	019c8cb3          	add	x25,x25,x25
    80003e40:	05dcc183          	lbu	x3,93(x25) 
    80003e44:	00a6c1b3          	xor	x3,x13,x10
    80003e48:	ce28871b          	addiw	x14,x17,-798
    80003e4c:	400108b7          	lui	x17,0x40010
    80003e50:	011888b3          	add	x17,x17,x17
    80003e54:	0c88a083          	lw	x1,200(x17) 
    80003e58:	400109b7          	lui	x19,0x40010
    80003e5c:	013989b3          	add	x19,x19,x19
    80003e60:	10098993          	addi	x19,x19,256 
    80003e64:	f309ed83          	lwu	x27,-208(x19)
    80003e68:	01bdc333          	xor	x6,x27,x27
    80003e6c:	40010337          	lui	x6,0x40010
    80003e70:	00630333          	add	x6,x6,x6
    80003e74:	10030313          	addi	x6,x6,256 
    80003e78:	f9c36a83          	lwu	x21,-100(x6)
    80003e7c:	400109b7          	lui	x19,0x40010
    80003e80:	013989b3          	add	x19,x19,x19
    80003e84:	10098993          	addi	x19,x19,256 
    80003e88:	f989b083          	ld	x1,-104(x19)
    80003e8c:	001a8db3          	add	x27,x21,x1
    80003e90:	01267333          	and	x6,x12,x18
    80003e94:	b6fce813          	ori	x16,x25,-1169
    80003e98:	012ff2b3          	and	x5,x31,x18
    80003e9c:	40010d37          	lui	x26,0x40010
    80003ea0:	01ad0d33          	add	x26,x26,x26
    80003ea4:	100d0d13          	addi	x26,x26,256 
    80003ea8:	f7dd05a3          	sb	x29,-149(x26)
    80003eac:	400106b7          	lui	x13,0x40010
    80003eb0:	00d686b3          	add	x13,x13,x13
    80003eb4:	03168fa3          	sb	x17,63(x13) 
    80003eb8:	400107b7          	lui	x15,0x40010
    80003ebc:	00f787b3          	add	x15,x15,x15
    80003ec0:	04a7a223          	sw	x10,68(x15) 
    80003ec4:	00418c3b          	addw	x24,x3,x4
    80003ec8:	400103b7          	lui	x7,0x40010
    80003ecc:	007383b3          	add	x7,x7,x7
    80003ed0:	10038393          	addi	x7,x7,256 
    80003ed4:	f373a623          	sw	x23,-212(x7)
    80003ed8:	3c51ff13          	andi	x30,x3,965
    80003edc:	40010937          	lui	x18,0x40010
    80003ee0:	01290933          	add	x18,x18,x18
    80003ee4:	0d093503          	ld	x10,208(x18) 
    80003ee8:	400106b7          	lui	x13,0x40010
    80003eec:	00d686b3          	add	x13,x13,x13
    80003ef0:	0496b423          	sd	x9,72(x13) 
    80003ef4:	b416ef93          	ori	x31,x13,-1215
    80003ef8:	40010837          	lui	x16,0x40010
    80003efc:	01080833          	add	x16,x16,x16
    80003f00:	0c882483          	lw	x9,200(x16) 
    80003f04:	1fd97d13          	andi	x26,x18,509
    80003f08:	01d28333          	add	x6,x5,x29
    80003f0c:	40010a37          	lui	x20,0x40010
    80003f10:	014a0a33          	add	x20,x20,x20
    80003f14:	100a0a13          	addi	x20,x20,256 
    80003f18:	f48a6483          	lwu	x9,-184(x20)
    80003f1c:	401184b3          	sub	x9,x3,x1
    80003f20:	017ffa33          	and	x20,x31,x23
    80003f24:	400108b7          	lui	x17,0x40010
    80003f28:	011888b3          	add	x17,x17,x17
    80003f2c:	10088893          	addi	x17,x17,256 
    80003f30:	fa08b503          	ld	x10,-96(x17)
    80003f34:	72abe593          	ori	x11,x23,1834
    80003f38:	0046c133          	xor	x2,x13,x4
    80003f3c:	758d7093          	andi	x1,x26,1880
    80003f40:	40010f37          	lui	x30,0x40010
    80003f44:	01ef0f33          	add	x30,x30,x30
    80003f48:	0e4f2083          	lw	x1,228(x30) 
    80003f4c:	400105b7          	lui	x11,0x40010
    80003f50:	00b585b3          	add	x11,x11,x11
    80003f54:	10058593          	addi	x11,x11,256 
    80003f58:	fc259503          	lh	x10,-62(x11)
    80003f5c:	400101b7          	lui	x3,0x40010
    80003f60:	003181b3          	add	x3,x3,x3
    80003f64:	0d41e183          	lwu	x3,212(x3) 
    80003f68:	00d545b3          	xor	x11,x10,x13
    80003f6c:	00ff4133          	xor	x2,x30,x15
    80003f70:	40010137          	lui	x2,0x40010
    80003f74:	00210133          	add	x2,x2,x2
    80003f78:	0bc11823          	sh	x28,176(x2) 
    80003f7c:	3fe4e993          	ori	x19,x9,1022
    80003f80:	40448fb3          	sub	x31,x9,x4
    80003f84:	01ce4233          	xor	x4,x28,x28
    80003f88:	40010537          	lui	x10,0x40010
    80003f8c:	00a50533          	add	x10,x10,x10
    80003f90:	10050513          	addi	x10,x10,256 
    80003f94:	f1855683          	lhu	x13,-232(x10)
    80003f98:	40d68433          	sub	x8,x13,x13
    80003f9c:	40010fb7          	lui	x31,0x40010
    80003fa0:	01ff8fb3          	add	x31,x31,x31
    80003fa4:	100f8f93          	addi	x31,x31,256 
    80003fa8:	fcbf8b03          	lb	x22,-53(x31)
    80003fac:	d10f6713          	ori	x14,x30,-752
    80003fb0:	013480b3          	add	x1,x9,x19
    80003fb4:	00c00abb          	addw	x21,x0,x12
    80003fb8:	001c4733          	xor	x14,x24,x1
    80003fbc:	40010737          	lui	x14,0x40010
    80003fc0:	00e70733          	add	x14,x14,x14
    80003fc4:	04b71523          	sh	x11,74(x14) 
    80003fc8:	40990ebb          	subw	x29,x18,x9
    80003fcc:	b495c193          	xori	x3,x11,-1207
    80003fd0:	86c6ef13          	ori	x30,x13,-1940
    80003fd4:	403c0d33          	sub	x26,x24,x3
    80003fd8:	40010137          	lui	x2,0x40010
    80003fdc:	00210133          	add	x2,x2,x2
    80003fe0:	10010113          	addi	x2,x2,256 
    80003fe4:	fab14903          	lbu	x18,-85(x2)
    80003fe8:	e9094913          	xori	x18,x18,-368
    80003fec:	00e30333          	add	x6,x6,x14
    80003ff0:	40010737          	lui	x14,0x40010
    80003ff4:	00e70733          	add	x14,x14,x14
    80003ff8:	08c75983          	lhu	x19,140(x14) 
    80003ffc:	013ac8b3          	xor	x17,x21,x19
    80004000:	0b200f1b          	addiw	x30,x0,178
    80004004:	40010a37          	lui	x20,0x40010
    80004008:	014a0a33          	add	x20,x20,x20
    8000400c:	100a0a13          	addi	x20,x20,256 
    80004010:	fcca6603          	lwu	x12,-52(x20)
    80004014:	400103b7          	lui	x7,0x40010
    80004018:	007383b3          	add	x7,x7,x7
    8000401c:	10038393          	addi	x7,x7,256 
    80004020:	f3639303          	lh	x6,-202(x7)
    80004024:	400109b7          	lui	x19,0x40010
    80004028:	013989b3          	add	x19,x19,x19
    8000402c:	09298ca3          	sb	x18,153(x19) 
    80004030:	019745b3          	xor	x11,x14,x25
    80004034:	41e08233          	sub	x4,x1,x30
    80004038:	6e857b93          	andi	x23,x10,1768
    8000403c:	40010b37          	lui	x22,0x40010
    80004040:	016b0b33          	add	x22,x22,x22
    80004044:	05fb4183          	lbu	x3,95(x22) 
    80004048:	01db87b3          	add	x15,x23,x29
    8000404c:	d467e893          	ori	x17,x15,-698
    80004050:	c7046f13          	ori	x30,x8,-912
    80004054:	52998213          	addi	x4,x19,1321
    80004058:	40010db7          	lui	x27,0x40010
    8000405c:	01bd8db3          	add	x27,x27,x27
    80004060:	082dd383          	lhu	x7,130(x27) 
    80004064:	008388b3          	add	x17,x7,x8
    80004068:	400107b7          	lui	x15,0x40010
    8000406c:	00f787b3          	add	x15,x15,x15
    80004070:	0e47a403          	lw	x8,228(x15) 
    80004074:	17c14413          	xori	x8,x2,380
    80004078:	40010437          	lui	x8,0x40010
    8000407c:	00840433          	add	x8,x8,x8
    80004080:	10040413          	addi	x8,x8,256 
    80004084:	f4542223          	sw	x5,-188(x8)
    80004088:	40010937          	lui	x18,0x40010
    8000408c:	01290933          	add	x18,x18,x18
    80004090:	10090913          	addi	x18,x18,256 
    80004094:	f0690903          	lb	x18,-250(x18)
    80004098:	41240c33          	sub	x24,x8,x18
    8000409c:	01e00e33          	add	x28,x0,x30
    800040a0:	24707e93          	andi	x29,x0,583
    800040a4:	d1c1cc13          	xori	x24,x3,-740
    800040a8:	4022053b          	subw	x10,x4,x2
    800040ac:	40010e37          	lui	x28,0x40010
    800040b0:	01ce0e33          	add	x28,x28,x28
    800040b4:	0fae1483          	lh	x9,250(x28) 
    800040b8:	8ec00a9b          	addiw	x21,x0,-1812
    800040bc:	834eed13          	ori	x26,x29,-1996
    800040c0:	400100b7          	lui	x1,0x40010
    800040c4:	001080b3          	add	x1,x1,x1
    800040c8:	0fc086a3          	sb	x28,237(x1) 
    800040cc:	01adec33          	or	x24,x27,x26
    800040d0:	40010a37          	lui	x20,0x40010
    800040d4:	014a0a33          	add	x20,x20,x20
    800040d8:	100a0a13          	addi	x20,x20,256 
    800040dc:	f57a1223          	sh	x23,-188(x20)
    800040e0:	69c20113          	addi	x2,x4,1692 
    800040e4:	40010f37          	lui	x30,0x40010
    800040e8:	01ef0f33          	add	x30,x30,x30
    800040ec:	100f0f13          	addi	x30,x30,256 
    800040f0:	fe0f5f03          	lhu	x30,-32(x30)
    800040f4:	40010c37          	lui	x24,0x40010
    800040f8:	018c0c33          	add	x24,x24,x24
    800040fc:	074c2623          	sw	x20,108(x24) 
    80004100:	902f829b          	addiw	x5,x31,-1790
    80004104:	405f05bb          	subw	x11,x30,x5
    80004108:	40010eb7          	lui	x29,0x40010
    8000410c:	01de8eb3          	add	x29,x29,x29
    80004110:	0beea823          	sw	x30,176(x29) 
    80004114:	400106b7          	lui	x13,0x40010
    80004118:	00d686b3          	add	x13,x13,x13
    8000411c:	0fa6bc23          	sd	x26,248(x13) 
    80004120:	005cfcb3          	and	x25,x25,x5
    80004124:	4028093b          	subw	x18,x16,x2
    80004128:	40010237          	lui	x4,0x40010
    8000412c:	00420233          	add	x4,x4,x4
    80004130:	08c22003          	lw	x0,140(x4) 
    80004134:	40010a37          	lui	x20,0x40010
    80004138:	014a0a33          	add	x20,x20,x20
    8000413c:	0d8a5083          	lhu	x1,216(x20) 
    80004140:	40010f37          	lui	x30,0x40010
    80004144:	01ef0f33          	add	x30,x30,x30
    80004148:	100f0f13          	addi	x30,x30,256 
    8000414c:	f16f1e23          	sh	x22,-228(x30)
    80004150:	40010737          	lui	x14,0x40010
    80004154:	00e70733          	add	x14,x14,x14
    80004158:	10070713          	addi	x14,x14,256 
    8000415c:	f8675603          	lhu	x12,-122(x14)
    80004160:	74b4861b          	addiw	x12,x9,1867
    80004164:	018bceb3          	xor	x29,x23,x24
    80004168:	630d6193          	ori	x3,x26,1584
    8000416c:	400108b7          	lui	x17,0x40010
    80004170:	011888b3          	add	x17,x17,x17
    80004174:	0108bb03          	ld	x22,16(x17) 
    80004178:	417285bb          	subw	x11,x5,x23
    8000417c:	40010c37          	lui	x24,0x40010
    80004180:	018c0c33          	add	x24,x24,x24
    80004184:	100c0c13          	addi	x24,x24,256 
    80004188:	f4dc2e23          	sw	x13,-164(x24)
    8000418c:	3aa20493          	addi	x9,x4,938 
    80004190:	00a284b3          	add	x9,x5,x10
    80004194:	41a9073b          	subw	x14,x18,x26
    80004198:	5f54811b          	addiw	x2,x9,1525
    8000419c:	40010ab7          	lui	x21,0x40010
    800041a0:	015a8ab3          	add	x21,x21,x21
    800041a4:	100a8a93          	addi	x21,x21,256 
    800041a8:	f7aa8e83          	lb	x29,-134(x21)
    800041ac:	001eff33          	and	x30,x29,x1
    800041b0:	0144cb33          	xor	x22,x9,x20
    800041b4:	400109b7          	lui	x19,0x40010
    800041b8:	013989b3          	add	x19,x19,x19
    800041bc:	10098993          	addi	x19,x19,256 
    800041c0:	ffc9e583          	lwu	x11,-4(x19)
    800041c4:	005c05bb          	addw	x11,x24,x5
    800041c8:	0155053b          	addw	x10,x10,x21
    800041cc:	a101871b          	addiw	x14,x3,-1520
    800041d0:	c2208a13          	addi	x20,x1,-990
    800041d4:	40010eb7          	lui	x29,0x40010
    800041d8:	01de8eb3          	add	x29,x29,x29
    800041dc:	100e8e93          	addi	x29,x29,256 
    800041e0:	f31eca03          	lbu	x20,-207(x29)
    800041e4:	aeca6a13          	ori	x20,x20,-1300
    800041e8:	40010437          	lui	x8,0x40010
    800041ec:	00840433          	add	x8,x8,x8
    800041f0:	03645c83          	lhu	x25,54(x8) 
    800041f4:	41ff0cbb          	subw	x25,x30,x31
    800041f8:	13626c93          	ori	x25,x4,310
    800041fc:	d08f0b93          	addi	x23,x30,-760
    80004200:	400103b7          	lui	x7,0x40010
    80004204:	007383b3          	add	x7,x7,x7
    80004208:	0183a083          	lw	x1,24(x7) 
    8000420c:	400104b7          	lui	x9,0x40010
    80004210:	009484b3          	add	x9,x9,x9
    80004214:	10048493          	addi	x9,x9,256 
    80004218:	f2c49303          	lh	x6,-212(x9)
    8000421c:	017062b3          	or	x5,x0,x23
    80004220:	c513851b          	addiw	x10,x7,-943
    80004224:	400103b7          	lui	x7,0x40010
    80004228:	007383b3          	add	x7,x7,x7
    8000422c:	10038393          	addi	x7,x7,256 
    80004230:	fec3e783          	lwu	x15,-20(x7)
    80004234:	3e298593          	addi	x11,x19,994
    80004238:	00280db3          	add	x27,x16,x2
    8000423c:	1b4f0093          	addi	x1,x30,436
    80004240:	400109b7          	lui	x19,0x40010
    80004244:	013989b3          	add	x19,x19,x19
    80004248:	10098993          	addi	x19,x19,256 
    8000424c:	f719c003          	lbu	x0,-143(x19)
    80004250:	00b0c6b3          	xor	x13,x1,x11
    80004254:	00648013          	addi	x0,x9,6
    80004258:	40010637          	lui	x12,0x40010
    8000425c:	00c60633          	add	x12,x12,x12
    80004260:	10060613          	addi	x12,x12,256 
    80004264:	fb462b03          	lw	x22,-76(x12)
    80004268:	40010437          	lui	x8,0x40010
    8000426c:	00840433          	add	x8,x8,x8
    80004270:	10040413          	addi	x8,x8,256 
    80004274:	faa40023          	sb	x10,-96(x8)
    80004278:	0b0cfc13          	andi	x24,x25,176
    8000427c:	40010db7          	lui	x27,0x40010
    80004280:	01bd8db3          	add	x27,x27,x27
    80004284:	023d8083          	lb	x1,35(x27) 
    80004288:	40010a37          	lui	x20,0x40010
    8000428c:	014a0a33          	add	x20,x20,x20
    80004290:	100a0a13          	addi	x20,x20,256 
    80004294:	fd5a1e23          	sh	x21,-36(x20)
    80004298:	47884193          	xori	x3,x16,1144
    8000429c:	59706493          	ori	x9,x0,1431
    800042a0:	40010ab7          	lui	x21,0x40010
    800042a4:	015a8ab3          	add	x21,x21,x21
    800042a8:	100a8a93          	addi	x21,x21,256 
    800042ac:	fa8ab423          	sd	x8,-88(x21)
    800042b0:	400101b7          	lui	x3,0x40010
    800042b4:	003181b3          	add	x3,x3,x3
    800042b8:	10018193          	addi	x3,x3,256 
    800042bc:	f801aa23          	sw	x0,-108(x3)
    800042c0:	a2fe4513          	xori	x10,x28,-1489
    800042c4:	400100b7          	lui	x1,0x40010
    800042c8:	001080b3          	add	x1,x1,x1
    800042cc:	0560d283          	lhu	x5,86(x1) 
    800042d0:	005662b3          	or	x5,x12,x5
    800042d4:	977c0c93          	addi	x25,x24,-1673
    800042d8:	cd868293          	addi	x5,x13,-808
    800042dc:	d89d881b          	addiw	x16,x27,-631
    800042e0:	400103b7          	lui	x7,0x40010
    800042e4:	007383b3          	add	x7,x7,x7
    800042e8:	10038393          	addi	x7,x7,256 
    800042ec:	f003bd03          	ld	x26,-256(x7)
    800042f0:	00900d3b          	addw	x26,x0,x9
    800042f4:	66728e9b          	addiw	x29,x5,1639
    800042f8:	c8a46393          	ori	x7,x8,-886
    800042fc:	af707393          	andi	x7,x0,-1289
    80004300:	40010137          	lui	x2,0x40010
    80004304:	00210133          	add	x2,x2,x2
    80004308:	10010113          	addi	x2,x2,256 
    8000430c:	fa510c03          	lb	x24,-91(x2)
    80004310:	06cc7393          	andi	x7,x24,108
    80004314:	40010637          	lui	x12,0x40010
    80004318:	00c60633          	add	x12,x12,x12
    8000431c:	10060613          	addi	x12,x12,256 
    80004320:	f1c65903          	lhu	x18,-228(x12)
    80004324:	400109b7          	lui	x19,0x40010
    80004328:	013989b3          	add	x19,x19,x19
    8000432c:	01599e23          	sh	x21,28(x19) 
    80004330:	40010437          	lui	x8,0x40010
    80004334:	00840433          	add	x8,x8,x8
    80004338:	05743823          	sd	x23,80(x8) 
    8000433c:	40010a37          	lui	x20,0x40010
    80004340:	014a0a33          	add	x20,x20,x20
    80004344:	004a2823          	sw	x4,16(x20) 
    80004348:	018b79b3          	and	x19,x22,x24
    8000434c:	40010ab7          	lui	x21,0x40010
    80004350:	015a8ab3          	add	x21,x21,x21
    80004354:	100a8a93          	addi	x21,x21,256 
    80004358:	f94aa223          	sw	x20,-124(x21)
    8000435c:	019f7cb3          	and	x25,x30,x25
    80004360:	01298a33          	add	x20,x19,x18
    80004364:	400108b7          	lui	x17,0x40010
    80004368:	011888b3          	add	x17,x17,x17
    8000436c:	10088893          	addi	x17,x17,256 
    80004370:	ff288e03          	lb	x28,-14(x17)
    80004374:	40de7e13          	andi	x28,x28,1037
    80004378:	40598c3b          	subw	x24,x19,x5
    8000437c:	40010537          	lui	x10,0x40010
    80004380:	00a50533          	add	x10,x10,x10
    80004384:	10050513          	addi	x10,x10,256 
    80004388:	f2856103          	lwu	x2,-216(x10)
    8000438c:	400107b7          	lui	x15,0x40010
    80004390:	00f787b3          	add	x15,x15,x15
    80004394:	0e079723          	sh	x0,238(x15) 
    80004398:	01618f3b          	addw	x30,x3,x22
    8000439c:	40010537          	lui	x10,0x40010
    800043a0:	00a50533          	add	x10,x10,x10
    800043a4:	0f651983          	lh	x19,246(x10) 
    800043a8:	400103b7          	lui	x7,0x40010
    800043ac:	007383b3          	add	x7,x7,x7
    800043b0:	0003b703          	ld	x14,0(x7) 
    800043b4:	2b8f8f93          	addi	x31,x31,696
    800043b8:	9c11c393          	xori	x7,x3,-1599
    800043bc:	400103b7          	lui	x7,0x40010
    800043c0:	007383b3          	add	x7,x7,x7
    800043c4:	0623a623          	sw	x2,108(x7) 
    800043c8:	40010cb7          	lui	x25,0x40010
    800043cc:	019c8cb3          	add	x25,x25,x25
    800043d0:	100c8c93          	addi	x25,x25,256 
    800043d4:	f06cb023          	sd	x6,-256(x25)
    800043d8:	400106b7          	lui	x13,0x40010
    800043dc:	00d686b3          	add	x13,x13,x13
    800043e0:	06869c03          	lh	x24,104(x13) 
    800043e4:	40010db7          	lui	x27,0x40010
    800043e8:	01bd8db3          	add	x27,x27,x27
    800043ec:	100d8d93          	addi	x27,x27,256 
    800043f0:	fbcd8883          	lb	x17,-68(x27)
    800043f4:	006308bb          	addw	x17,x6,x6
    800043f8:	f28a809b          	addiw	x1,x21,-216
    800043fc:	400106b7          	lui	x13,0x40010
    80004400:	00d686b3          	add	x13,x13,x13
    80004404:	02668203          	lb	x4,38(x13) 
    80004408:	404d843b          	subw	x8,x27,x4
    8000440c:	400109b7          	lui	x19,0x40010
    80004410:	013989b3          	add	x19,x19,x19
    80004414:	0f09ec83          	lwu	x25,240(x19) 
    80004418:	400102b7          	lui	x5,0x40010
    8000441c:	005282b3          	add	x5,x5,x5
    80004420:	0aa2dc83          	lhu	x25,170(x5) 
    80004424:	42d87593          	andi	x11,x16,1069
    80004428:	92a9c613          	xori	x12,x19,-1750
    8000442c:	b5120993          	addi	x19,x4,-1199 
    80004430:	40010237          	lui	x4,0x40010
    80004434:	00420233          	add	x4,x4,x4
    80004438:	10020213          	addi	x4,x4,256 
    8000443c:	f0022003          	lw	x0,-256(x4) 
    80004440:	01e9033b          	addw	x6,x18,x30
    80004444:	40c989b3          	sub	x19,x19,x12
    80004448:	40010837          	lui	x16,0x40010
    8000444c:	01080833          	add	x16,x16,x16
    80004450:	0dc86503          	lwu	x10,220(x16) 
    80004454:	15004793          	xori	x15,x0,336
    80004458:	40010237          	lui	x4,0x40010
    8000445c:	00420233          	add	x4,x4,x4
    80004460:	0f823c23          	sd	x24,248(x4) 
    80004464:	410380bb          	subw	x1,x7,x16
    80004468:	40e08733          	sub	x14,x1,x14
    8000446c:	c8f44a93          	xori	x21,x8,-881
    80004470:	0136feb3          	and	x29,x13,x19
    80004474:	016888b3          	add	x17,x17,x22
    80004478:	40148133          	sub	x2,x9,x1
    8000447c:	8f3f8c1b          	addiw	x24,x31,-1805
    80004480:	22986993          	ori	x19,x16,553
    80004484:	0282fb13          	andi	x22,x5,40
    80004488:	00fe79b3          	and	x19,x28,x15
    8000448c:	400107b7          	lui	x15,0x40010
    80004490:	00f787b3          	add	x15,x15,x15
    80004494:	09d78203          	lb	x4,157(x15) 
    80004498:	541e0b1b          	addiw	x22,x28,1345
    8000449c:	400105b7          	lui	x11,0x40010
    800044a0:	00b585b3          	add	x11,x11,x11
    800044a4:	10058593          	addi	x11,x11,256 
    800044a8:	f9b5a423          	sw	x27,-120(x11)
    800044ac:	96978493          	addi	x9,x15,-1687
    800044b0:	41d1063b          	subw	x12,x2,x29
    800044b4:	01a34a33          	xor	x20,x6,x26
    800044b8:	2c19f013          	andi	x0,x19,705
    800044bc:	400105b7          	lui	x11,0x40010
    800044c0:	00b585b3          	add	x11,x11,x11
    800044c4:	10058593          	addi	x11,x11,256 
    800044c8:	fb958203          	lb	x4,-71(x11)
    800044cc:	01d40233          	add	x4,x8,x29
    800044d0:	400107b7          	lui	x15,0x40010
    800044d4:	00f787b3          	add	x15,x15,x15
    800044d8:	10078793          	addi	x15,x15,256 
    800044dc:	ff97b823          	sd	x25,-16(x15)
    800044e0:	40010c37          	lui	x24,0x40010
    800044e4:	018c0c33          	add	x24,x24,x24
    800044e8:	100c0c13          	addi	x24,x24,256 
    800044ec:	f2ec0603          	lb	x12,-210(x24)
    800044f0:	0061c133          	xor	x2,x3,x6
    800044f4:	3bfb4313          	xori	x6,x22,959
    800044f8:	00c4eab3          	or	x21,x9,x12
    800044fc:	d1d1cd13          	xori	x26,x3,-739
    80004500:	002f0cb3          	add	x25,x30,x2
    80004504:	01388bbb          	addw	x23,x17,x19
    80004508:	40010137          	lui	x2,0x40010
    8000450c:	00210133          	add	x2,x2,x2
    80004510:	10010113          	addi	x2,x2,256 
    80004514:	f5012e23          	sw	x16,-164(x2)
    80004518:	0b6d0313          	addi	x6,x26,182
    8000451c:	cd2ce613          	ori	x12,x25,-814
    80004520:	40010537          	lui	x10,0x40010
    80004524:	00a50533          	add	x10,x10,x10
    80004528:	10050513          	addi	x10,x10,256 
    8000452c:	f0454483          	lbu	x9,-252(x10)
    80004530:	00864b33          	xor	x22,x12,x8
    80004534:	400107b7          	lui	x15,0x40010
    80004538:	00f787b3          	add	x15,x15,x15
    8000453c:	10078793          	addi	x15,x15,256 
    80004540:	f477b823          	sd	x7,-176(x15)
    80004544:	67338313          	addi	x6,x7,1651
    80004548:	40010237          	lui	x4,0x40010
    8000454c:	00420233          	add	x4,x4,x4
    80004550:	10020213          	addi	x4,x4,256 
    80004554:	f3f23023          	sd	x31,-224(x4) 
    80004558:	40010ab7          	lui	x21,0x40010
    8000455c:	015a8ab3          	add	x21,x21,x21
    80004560:	03aacd03          	lbu	x26,58(x21) 
    80004564:	8a2d6d13          	ori	x26,x26,-1886
    80004568:	717b6113          	ori	x2,x22,1815
    8000456c:	c81f7013          	andi	x0,x30,-895
    80004570:	40010c37          	lui	x24,0x40010
    80004574:	018c0c33          	add	x24,x24,x24
    80004578:	100c0c13          	addi	x24,x24,256 
    8000457c:	fbcc5703          	lhu	x14,-68(x24)
    80004580:	efc24393          	xori	x7,x4,-260
    80004584:	400108b7          	lui	x17,0x40010
    80004588:	011888b3          	add	x17,x17,x17
    8000458c:	10088893          	addi	x17,x17,256 
    80004590:	f648d203          	lhu	x4,-156(x17)
    80004594:	4044023b          	subw	x4,x8,x4
    80004598:	400104b7          	lui	x9,0x40010
    8000459c:	009484b3          	add	x9,x9,x9
    800045a0:	10048493          	addi	x9,x9,256 
    800045a4:	f0c49c03          	lh	x24,-244(x9)
    800045a8:	227c6d93          	ori	x27,x24,551
    800045ac:	40010e37          	lui	x28,0x40010
    800045b0:	01ce0e33          	add	x28,x28,x28
    800045b4:	100e0e13          	addi	x28,x28,256 
    800045b8:	fe2e4803          	lbu	x16,-30(x28)
    800045bc:	40010137          	lui	x2,0x40010
    800045c0:	00210133          	add	x2,x2,x2
    800045c4:	10010113          	addi	x2,x2,256 
    800045c8:	f1016e83          	lwu	x29,-240(x2)
    800045cc:	405d8ebb          	subw	x29,x27,x5
    800045d0:	9f14e893          	ori	x17,x9,-1551
    800045d4:	40010ab7          	lui	x21,0x40010
    800045d8:	015a8ab3          	add	x21,x21,x21
    800045dc:	100a8a93          	addi	x21,x21,256 
    800045e0:	f97ab023          	sd	x23,-128(x21)
    800045e4:	40010b37          	lui	x22,0x40010
    800045e8:	016b0b33          	add	x22,x22,x22
    800045ec:	100b0b13          	addi	x22,x22,256 
    800045f0:	f37b2623          	sw	x23,-212(x22)
    800045f4:	48a54013          	xori	x0,x10,1162
    800045f8:	005bc6b3          	xor	x13,x23,x5
    800045fc:	0014cc33          	xor	x24,x9,x1
    80004600:	107de413          	ori	x8,x27,263
    80004604:	00b48d33          	add	x26,x9,x11
    80004608:	19008e13          	addi	x28,x1,400
    8000460c:	400103b7          	lui	x7,0x40010
    80004610:	007383b3          	add	x7,x7,x7
    80004614:	0553a223          	sw	x21,68(x7) 
    80004618:	40010d37          	lui	x26,0x40010
    8000461c:	01ad0d33          	add	x26,x26,x26
    80004620:	0a1d08a3          	sb	x1,177(x26) 
    80004624:	400105b7          	lui	x11,0x40010
    80004628:	00b585b3          	add	x11,x11,x11
    8000462c:	10058593          	addi	x11,x11,256 
    80004630:	f5c59383          	lh	x7,-164(x11)
    80004634:	40010ab7          	lui	x21,0x40010
    80004638:	015a8ab3          	add	x21,x21,x21
    8000463c:	008ae683          	lwu	x13,8(x21) 
    80004640:	0090f233          	and	x4,x1,x9
    80004644:	40010437          	lui	x8,0x40010
    80004648:	00840433          	add	x8,x8,x8
    8000464c:	08443823          	sd	x4,144(x8) 
    80004650:	6c0b819b          	addiw	x3,x23,1728
    80004654:	0005e7b3          	or	x15,x11,x0
    80004658:	00ebf533          	and	x10,x23,x14
    8000465c:	65b34693          	xori	x13,x6,1627
    80004660:	40010a37          	lui	x20,0x40010
    80004664:	014a0a33          	add	x20,x20,x20
    80004668:	100a0a13          	addi	x20,x20,256 
    8000466c:	f17a0f23          	sb	x23,-226(x20)
    80004670:	400105b7          	lui	x11,0x40010
    80004674:	00b585b3          	add	x11,x11,x11
    80004678:	10058593          	addi	x11,x11,256 
    8000467c:	f2a58a03          	lb	x20,-214(x11)
    80004680:	dd708f13          	addi	x30,x1,-553
    80004684:	40010a37          	lui	x20,0x40010
    80004688:	014a0a33          	add	x20,x20,x20
    8000468c:	100a0a13          	addi	x20,x20,256 
    80004690:	fe0a1c03          	lh	x24,-32(x20)
    80004694:	547a4493          	xori	x9,x20,1351
    80004698:	40010137          	lui	x2,0x40010
    8000469c:	00210133          	add	x2,x2,x2
    800046a0:	10010113          	addi	x2,x2,256 
    800046a4:	f09100a3          	sb	x9,-255(x2)
    800046a8:	2894c893          	xori	x17,x9,649
    800046ac:	41528733          	sub	x14,x5,x21
    800046b0:	400100b7          	lui	x1,0x40010
    800046b4:	001080b3          	add	x1,x1,x1
    800046b8:	10008093          	addi	x1,x1,256 
    800046bc:	f0809523          	sh	x8,-246(x1)
    800046c0:	14d54e13          	xori	x28,x10,333
    800046c4:	2ce86713          	ori	x14,x16,718
    800046c8:	40010937          	lui	x18,0x40010
    800046cc:	01290933          	add	x18,x18,x18
    800046d0:	0c496803          	lwu	x16,196(x18) 
    800046d4:	14786f13          	ori	x30,x16,327
    800046d8:	400101b7          	lui	x3,0x40010
    800046dc:	003181b3          	add	x3,x3,x3
    800046e0:	10018193          	addi	x3,x3,256 
    800046e4:	f7219b23          	sh	x18,-138(x3)
    800046e8:	e7827b93          	andi	x23,x4,-392
    800046ec:	400106b7          	lui	x13,0x40010
    800046f0:	00d686b3          	add	x13,x13,x13
    800046f4:	10068693          	addi	x13,x13,256 
    800046f8:	f0c6eb83          	lwu	x23,-244(x13)
    800046fc:	40010c37          	lui	x24,0x40010
    80004700:	018c0c33          	add	x24,x24,x24
    80004704:	100c0c13          	addi	x24,x24,256 
    80004708:	fc2c1603          	lh	x12,-62(x24)
    8000470c:	6ea4c393          	xori	x7,x9,1770
    80004710:	41b184b3          	sub	x9,x3,x27
    80004714:	2ade6413          	ori	x8,x28,685
    80004718:	400106b7          	lui	x13,0x40010
    8000471c:	00d686b3          	add	x13,x13,x13
    80004720:	01a6a823          	sw	x26,16(x13) 
    80004724:	00437493          	andi	x9,x6,4
    80004728:	01e7c933          	xor	x18,x15,x30
    8000472c:	40010737          	lui	x14,0x40010
    80004730:	00e70733          	add	x14,x14,x14
    80004734:	10070713          	addi	x14,x14,256 
    80004738:	f4a70183          	lb	x3,-182(x14)
    8000473c:	40010eb7          	lui	x29,0x40010
    80004740:	01de8eb3          	add	x29,x29,x29
    80004744:	0c4e8c83          	lb	x25,196(x29) 
    80004748:	40010db7          	lui	x27,0x40010
    8000474c:	01bd8db3          	add	x27,x27,x27
    80004750:	082d9f03          	lh	x30,130(x27) 
    80004754:	01338633          	add	x12,x7,x19
    80004758:	9be3ca93          	xori	x21,x7,-1602
    8000475c:	01a84fb3          	xor	x31,x16,x26
    80004760:	40010bb7          	lui	x23,0x40010
    80004764:	017b8bb3          	add	x23,x23,x23
    80004768:	048be903          	lwu	x18,72(x23) 
    8000476c:	a0b18d93          	addi	x27,x3,-1525
    80004770:	00a57d33          	and	x26,x10,x10
    80004774:	01fa8eb3          	add	x29,x21,x31
    80004778:	40010eb7          	lui	x29,0x40010
    8000477c:	01de8eb3          	add	x29,x29,x29
    80004780:	02cead03          	lw	x26,44(x29) 
    80004784:	01fd6933          	or	x18,x26,x31
    80004788:	417f8fbb          	subw	x31,x31,x23
    8000478c:	40010937          	lui	x18,0x40010
    80004790:	01290933          	add	x18,x18,x18
    80004794:	02092f83          	lw	x31,32(x18) 
    80004798:	419a06b3          	sub	x13,x20,x25
    8000479c:	40010eb7          	lui	x29,0x40010
    800047a0:	01de8eb3          	add	x29,x29,x29
    800047a4:	000e8603          	lb	x12,0(x29) 
    800047a8:	40010d37          	lui	x26,0x40010
    800047ac:	01ad0d33          	add	x26,x26,x26
    800047b0:	100d0d13          	addi	x26,x26,256 
    800047b4:	f44d2983          	lw	x19,-188(x26)
    800047b8:	01d289b3          	add	x19,x5,x29
    800047bc:	40010fb7          	lui	x31,0x40010
    800047c0:	01ff8fb3          	add	x31,x31,x31
    800047c4:	0d0fa183          	lw	x3,208(x31) 
    800047c8:	40b281bb          	subw	x3,x5,x11
    800047cc:	0cb4c993          	xori	x19,x9,203
    800047d0:	40010137          	lui	x2,0x40010
    800047d4:	00210133          	add	x2,x2,x2
    800047d8:	10010113          	addi	x2,x2,256 
    800047dc:	f9514d03          	lbu	x26,-107(x2)
    800047e0:	c8aa8c1b          	addiw	x24,x21,-886
    800047e4:	00508233          	add	x4,x1,x5
    800047e8:	400105b7          	lui	x11,0x40010
    800047ec:	00b585b3          	add	x11,x11,x11
    800047f0:	10058593          	addi	x11,x11,256 
    800047f4:	f785a183          	lw	x3,-136(x11)
    800047f8:	400107b7          	lui	x15,0x40010
    800047fc:	00f787b3          	add	x15,x15,x15
    80004800:	0bc7b023          	sd	x28,160(x15) 
    80004804:	80666893          	ori	x17,x12,-2042
    80004808:	41890933          	sub	x18,x18,x24
    8000480c:	40010e37          	lui	x28,0x40010
    80004810:	01ce0e33          	add	x28,x28,x28
    80004814:	0cce4883          	lbu	x17,204(x28) 
    80004818:	011ff233          	and	x4,x31,x17
    8000481c:	40010537          	lui	x10,0x40010
    80004820:	00a50533          	add	x10,x10,x10
    80004824:	10050513          	addi	x10,x10,256 
    80004828:	f1853483          	ld	x9,-232(x10)
    8000482c:	b7488493          	addi	x9,x17,-1164
    80004830:	400103b7          	lui	x7,0x40010
    80004834:	007383b3          	add	x7,x7,x7
    80004838:	0f13b023          	sd	x17,224(x7) 
    8000483c:	40010bb7          	lui	x23,0x40010
    80004840:	017b8bb3          	add	x23,x23,x23
    80004844:	100b8b93          	addi	x23,x23,256 
    80004848:	fd1bcf03          	lbu	x30,-47(x23)
    8000484c:	00b70eb3          	add	x29,x14,x11
    80004850:	40010db7          	lui	x27,0x40010
    80004854:	01bd8db3          	add	x27,x27,x27
    80004858:	022d9923          	sh	x2,50(x27) 
    8000485c:	00dd4033          	xor	x0,x26,x13
    80004860:	007e4c33          	xor	x24,x28,x7
    80004864:	b7dcf593          	andi	x11,x25,-1155
    80004868:	40010837          	lui	x16,0x40010
    8000486c:	01080833          	add	x16,x16,x16
    80004870:	0fc83023          	sd	x28,224(x16) 
    80004874:	40010937          	lui	x18,0x40010
    80004878:	01290933          	add	x18,x18,x18
    8000487c:	06b93c23          	sd	x11,120(x18) 
    80004880:	dc008893          	addi	x17,x1,-576
    80004884:	400100b7          	lui	x1,0x40010
    80004888:	001080b3          	add	x1,x1,x1
    8000488c:	10008093          	addi	x1,x1,256 
    80004890:	f840e203          	lwu	x4,-124(x1)
    80004894:	400105b7          	lui	x11,0x40010
    80004898:	00b585b3          	add	x11,x11,x11
    8000489c:	10058593          	addi	x11,x11,256 
    800048a0:	f385a583          	lw	x11,-200(x11)
    800048a4:	0165ea33          	or	x20,x11,x22
    800048a8:	012b8f3b          	addw	x30,x23,x18
    800048ac:	400106b7          	lui	x13,0x40010
    800048b0:	00d686b3          	add	x13,x13,x13
    800048b4:	08e69383          	lh	x7,142(x13) 
    800048b8:	009f0b3b          	addw	x22,x30,x9
    800048bc:	40010637          	lui	x12,0x40010
    800048c0:	00c60633          	add	x12,x12,x12
    800048c4:	10060613          	addi	x12,x12,256 
    800048c8:	f2960303          	lb	x6,-215(x12)
    800048cc:	01f0e333          	or	x6,x1,x31
    800048d0:	e2ffe413          	ori	x8,x31,-465
    800048d4:	400106b7          	lui	x13,0x40010
    800048d8:	00d686b3          	add	x13,x13,x13
    800048dc:	03769523          	sh	x23,42(x13) 
    800048e0:	400105b7          	lui	x11,0x40010
    800048e4:	00b585b3          	add	x11,x11,x11
    800048e8:	0d45b023          	sd	x20,192(x11) 
    800048ec:	fd634293          	xori	x5,x6,-42
    800048f0:	40010fb7          	lui	x31,0x40010
    800048f4:	01ff8fb3          	add	x31,x31,x31
    800048f8:	100f8f93          	addi	x31,x31,256 
    800048fc:	fb8f8f03          	lb	x30,-72(x31)
    80004900:	400104b7          	lui	x9,0x40010
    80004904:	009484b3          	add	x9,x9,x9
    80004908:	10048493          	addi	x9,x9,256 
    8000490c:	f804e103          	lwu	x2,-128(x9)
    80004910:	01b2f133          	and	x2,x5,x27
    80004914:	41020733          	sub	x14,x4,x16
    80004918:	abbfc593          	xori	x11,x31,-1349
    8000491c:	41ff023b          	subw	x4,x30,x31
    80004920:	003ccf33          	xor	x30,x25,x3
    80004924:	400103b7          	lui	x7,0x40010
    80004928:	007383b3          	add	x7,x7,x7
    8000492c:	08639c03          	lh	x24,134(x7) 
    80004930:	b43c4513          	xori	x10,x24,-1213
    80004934:	01716133          	or	x2,x2,x23
    80004938:	00478bbb          	addw	x23,x15,x4
    8000493c:	400103b7          	lui	x7,0x40010
    80004940:	007383b3          	add	x7,x7,x7
    80004944:	0a53b823          	sd	x5,176(x7) 
    80004948:	40010937          	lui	x18,0x40010
    8000494c:	01290933          	add	x18,x18,x18
    80004950:	10090913          	addi	x18,x18,256 
    80004954:	f6792423          	sw	x7,-152(x18)
    80004958:	400100b7          	lui	x1,0x40010
    8000495c:	001080b3          	add	x1,x1,x1
    80004960:	10008093          	addi	x1,x1,256 
    80004964:	ffa09383          	lh	x7,-6(x1)
    80004968:	40010137          	lui	x2,0x40010
    8000496c:	00210133          	add	x2,x2,x2
    80004970:	0c013423          	sd	x0,200(x2) 
    80004974:	d2114593          	xori	x11,x2,-735
    80004978:	2edafb13          	andi	x22,x21,749
    8000497c:	400102b7          	lui	x5,0x40010
    80004980:	005282b3          	add	x5,x5,x5
    80004984:	0fb28e03          	lb	x28,251(x5) 
    80004988:	06cbfe13          	andi	x28,x23,108
    8000498c:	dc558d93          	addi	x27,x11,-571
    80004990:	40010137          	lui	x2,0x40010
    80004994:	00210133          	add	x2,x2,x2
    80004998:	10010113          	addi	x2,x2,256 
    8000499c:	feb13823          	sd	x11,-16(x2)
    800049a0:	01ff86b3          	add	x13,x31,x31
    800049a4:	40010ab7          	lui	x21,0x40010
    800049a8:	015a8ab3          	add	x21,x21,x21
    800049ac:	0a1aaa23          	sw	x1,180(x21) 
    800049b0:	400104b7          	lui	x9,0x40010
    800049b4:	009484b3          	add	x9,x9,x9
    800049b8:	10048493          	addi	x9,x9,256 
    800049bc:	f7248283          	lb	x5,-142(x9)
    800049c0:	40010c37          	lui	x24,0x40010
    800049c4:	018c0c33          	add	x24,x24,x24
    800049c8:	100c0c13          	addi	x24,x24,256 
    800049cc:	f32c5883          	lhu	x17,-206(x24)
    800049d0:	00507333          	and	x6,x0,x5
    800049d4:	40010937          	lui	x18,0x40010
    800049d8:	01290933          	add	x18,x18,x18
    800049dc:	10090913          	addi	x18,x18,256 
    800049e0:	fe094e03          	lbu	x28,-32(x18)
    800049e4:	01c50933          	add	x18,x10,x28
    800049e8:	c03e8f93          	addi	x31,x29,-1021
    800049ec:	145fc013          	xori	x0,x31,325
    800049f0:	40010f37          	lui	x30,0x40010
    800049f4:	01ef0f33          	add	x30,x30,x30
    800049f8:	0a4f2a83          	lw	x21,164(x30) 
    800049fc:	00e17bb3          	and	x23,x2,x14
    80004a00:	0056e2b3          	or	x5,x13,x5
    80004a04:	01897f33          	and	x30,x18,x24
    80004a08:	40010537          	lui	x10,0x40010
    80004a0c:	00a50533          	add	x10,x10,x10
    80004a10:	10050513          	addi	x10,x10,256 
    80004a14:	f3653823          	sd	x22,-208(x10)
    80004a18:	400104b7          	lui	x9,0x40010
    80004a1c:	009484b3          	add	x9,x9,x9
    80004a20:	0484da03          	lhu	x20,72(x9) 
    80004a24:	40010cb7          	lui	x25,0x40010
    80004a28:	019c8cb3          	add	x25,x25,x25
    80004a2c:	100c8c93          	addi	x25,x25,256 
    80004a30:	f0ec9283          	lh	x5,-242(x25)
    80004a34:	400103b7          	lui	x7,0x40010
    80004a38:	007383b3          	add	x7,x7,x7
    80004a3c:	0313a223          	sw	x17,36(x7) 
    80004a40:	40010c37          	lui	x24,0x40010
    80004a44:	018c0c33          	add	x24,x24,x24
    80004a48:	0a6c5883          	lhu	x17,166(x24) 
    80004a4c:	01f678b3          	and	x17,x12,x31
    80004a50:	40010537          	lui	x10,0x40010
    80004a54:	00a50533          	add	x10,x10,x10
    80004a58:	0bb51a23          	sh	x27,180(x10) 
    80004a5c:	400101b7          	lui	x3,0x40010
    80004a60:	003181b3          	add	x3,x3,x3
    80004a64:	10018193          	addi	x3,x3,256 
    80004a68:	f7619f03          	lh	x30,-138(x3)
    80004a6c:	004b0f33          	add	x30,x22,x4
    80004a70:	8ccc0193          	addi	x3,x24,-1844
    80004a74:	a90ee393          	ori	x7,x29,-1392
    80004a78:	40010e37          	lui	x28,0x40010
    80004a7c:	01ce0e33          	add	x28,x28,x28
    80004a80:	0e4e3023          	sd	x4,224(x28) 
    80004a84:	008172b3          	and	x5,x2,x8
    80004a88:	40010537          	lui	x10,0x40010
    80004a8c:	00a50533          	add	x10,x10,x10
    80004a90:	10050513          	addi	x10,x10,256 
    80004a94:	fec56303          	lwu	x6,-20(x10)
    80004a98:	40010bb7          	lui	x23,0x40010
    80004a9c:	017b8bb3          	add	x23,x23,x23
    80004aa0:	100b8b93          	addi	x23,x23,256 
    80004aa4:	f60b9523          	sh	x0,-150(x23)
    80004aa8:	40010a37          	lui	x20,0x40010
    80004aac:	014a0a33          	add	x20,x20,x20
    80004ab0:	045a0703          	lb	x14,69(x20) 
    80004ab4:	29316b13          	ori	x22,x2,659
    80004ab8:	40010a37          	lui	x20,0x40010
    80004abc:	014a0a33          	add	x20,x20,x20
    80004ac0:	100a0a13          	addi	x20,x20,256 
    80004ac4:	fd0a3e03          	ld	x28,-48(x20)
    80004ac8:	01c50e3b          	addw	x28,x10,x28
    80004acc:	98b56e13          	ori	x28,x10,-1653
    80004ad0:	00b60233          	add	x4,x12,x11
    80004ad4:	40010137          	lui	x2,0x40010
    80004ad8:	00210133          	add	x2,x2,x2
    80004adc:	01a11883          	lh	x17,26(x2) 
    80004ae0:	40010237          	lui	x4,0x40010
    80004ae4:	00420233          	add	x4,x4,x4
    80004ae8:	0ca20d83          	lb	x27,202(x4) 
    80004aec:	173ded93          	ori	x27,x27,371
    80004af0:	177b7613          	andi	x12,x22,375
    80004af4:	005b09bb          	addw	x19,x22,x5
    80004af8:	40010c37          	lui	x24,0x40010
    80004afc:	018c0c33          	add	x24,x24,x24
    80004b00:	100c0c13          	addi	x24,x24,256 
    80004b04:	fb0c6883          	lwu	x17,-80(x24)
    80004b08:	4128813b          	subw	x2,x17,x18
    80004b0c:	40010737          	lui	x14,0x40010
    80004b10:	00e70733          	add	x14,x14,x14
    80004b14:	10070713          	addi	x14,x14,256 
    80004b18:	f8471703          	lh	x14,-124(x14)
    80004b1c:	003c873b          	addw	x14,x25,x3
    80004b20:	35d30013          	addi	x0,x6,861
    80004b24:	40010b37          	lui	x22,0x40010
    80004b28:	016b0b33          	add	x22,x22,x22
    80004b2c:	100b0b13          	addi	x22,x22,256 
    80004b30:	ffcb1883          	lh	x17,-4(x22)
    80004b34:	19b1c393          	xori	x7,x3,411
    80004b38:	46f78813          	addi	x16,x15,1135
    80004b3c:	053de693          	ori	x13,x27,83
    80004b40:	00914a33          	xor	x20,x2,x9
    80004b44:	40608533          	sub	x10,x1,x6
    80004b48:	400103b7          	lui	x7,0x40010
    80004b4c:	007383b3          	add	x7,x7,x7
    80004b50:	10038393          	addi	x7,x7,256 
    80004b54:	f123d903          	lhu	x18,-238(x7)
    80004b58:	83e90f9b          	addiw	x31,x18,-1986
    80004b5c:	00218f3b          	addw	x30,x3,x2
    80004b60:	9a00c293          	xori	x5,x1,-1632
    80004b64:	400107b7          	lui	x15,0x40010
    80004b68:	00f787b3          	add	x15,x15,x15
    80004b6c:	10078793          	addi	x15,x15,256 
    80004b70:	f567bc23          	sd	x22,-168(x15)
    80004b74:	e6cbc693          	xori	x13,x23,-404
    80004b78:	400107b7          	lui	x15,0x40010
    80004b7c:	00f787b3          	add	x15,x15,x15
    80004b80:	04e7a623          	sw	x14,76(x15) 
    80004b84:	01da09b3          	add	x19,x20,x29
    80004b88:	45c18d1b          	addiw	x26,x3,1116
    80004b8c:	40010fb7          	lui	x31,0x40010
    80004b90:	01ff8fb3          	add	x31,x31,x31
    80004b94:	100f8f93          	addi	x31,x31,256 
    80004b98:	f30fa983          	lw	x19,-208(x31)
    80004b9c:	f8cd0d13          	addi	x26,x26,-116
    80004ba0:	40010737          	lui	x14,0x40010
    80004ba4:	00e70733          	add	x14,x14,x14
    80004ba8:	10070713          	addi	x14,x14,256 
    80004bac:	f4670da3          	sb	x6,-165(x14)
    80004bb0:	a20f0f9b          	addiw	x31,x30,-1504
    80004bb4:	40fe07bb          	subw	x15,x28,x15
    80004bb8:	40010337          	lui	x6,0x40010
    80004bbc:	00630333          	add	x6,x6,x6
    80004bc0:	10030313          	addi	x6,x6,256 
    80004bc4:	f4231823          	sh	x2,-176(x6)
    80004bc8:	40010b37          	lui	x22,0x40010
    80004bcc:	016b0b33          	add	x22,x22,x22
    80004bd0:	0fbb1a23          	sh	x27,244(x22) 
    80004bd4:	40010db7          	lui	x27,0x40010
    80004bd8:	01bd8db3          	add	x27,x27,x27
    80004bdc:	0a8d9323          	sh	x8,166(x27) 
    80004be0:	01330cb3          	add	x25,x6,x19
    80004be4:	017e6ab3          	or	x21,x28,x23
    80004be8:	40010eb7          	lui	x29,0x40010
    80004bec:	01de8eb3          	add	x29,x29,x29
    80004bf0:	100e8e93          	addi	x29,x29,256 
    80004bf4:	f79ea223          	sw	x25,-156(x29)
    80004bf8:	400100b7          	lui	x1,0x40010
    80004bfc:	001080b3          	add	x1,x1,x1
    80004c00:	10008093          	addi	x1,x1,256 
    80004c04:	f4409183          	lh	x3,-188(x1)
    80004c08:	0101e9b3          	or	x19,x3,x16
    80004c0c:	3d56e813          	ori	x16,x13,981
    80004c10:	40010fb7          	lui	x31,0x40010
    80004c14:	01ff8fb3          	add	x31,x31,x31
    80004c18:	09cf9c23          	sh	x28,152(x31) 
    80004c1c:	009e6ab3          	or	x21,x28,x9
    80004c20:	40010cb7          	lui	x25,0x40010
    80004c24:	019c8cb3          	add	x25,x25,x25
    80004c28:	100c8c93          	addi	x25,x25,256 
    80004c2c:	fb9cca83          	lbu	x21,-71(x25)
    80004c30:	40010137          	lui	x2,0x40010
    80004c34:	00210133          	add	x2,x2,x2
    80004c38:	08713023          	sd	x7,128(x2) 
    80004c3c:	40010137          	lui	x2,0x40010
    80004c40:	00210133          	add	x2,x2,x2
    80004c44:	0a611103          	lh	x2,166(x2) 
    80004c48:	40010537          	lui	x10,0x40010
    80004c4c:	00a50533          	add	x10,x10,x10
    80004c50:	10050513          	addi	x10,x10,256 
    80004c54:	f9853183          	ld	x3,-104(x10)
    80004c58:	17f56193          	ori	x3,x10,383
    80004c5c:	47c24e93          	xori	x29,x4,1148
    80004c60:	40fd0ab3          	sub	x21,x26,x15
    80004c64:	131b7913          	andi	x18,x22,305
    80004c68:	416ee013          	ori	x0,x29,1046
    80004c6c:	40010c37          	lui	x24,0x40010
    80004c70:	018c0c33          	add	x24,x24,x24
    80004c74:	100c0c13          	addi	x24,x24,256 
    80004c78:	ff6c0623          	sb	x22,-20(x24)
    80004c7c:	01c38bb3          	add	x23,x7,x28
    80004c80:	78d88413          	addi	x8,x17,1933
    80004c84:	40010b37          	lui	x22,0x40010
    80004c88:	016b0b33          	add	x22,x22,x22
    80004c8c:	100b0b13          	addi	x22,x22,256 
    80004c90:	f60b3a03          	ld	x20,-160(x22)
    80004c94:	4d0d849b          	addiw	x9,x27,1232
    80004c98:	400105b7          	lui	x11,0x40010
    80004c9c:	00b585b3          	add	x11,x11,x11
    80004ca0:	05c5d283          	lhu	x5,92(x11) 
    80004ca4:	405d883b          	subw	x16,x27,x5
    80004ca8:	400107b7          	lui	x15,0x40010
    80004cac:	00f787b3          	add	x15,x15,x15
    80004cb0:	10078793          	addi	x15,x15,256 
    80004cb4:	fa87af03          	lw	x30,-88(x15)
    80004cb8:	01a54333          	xor	x6,x10,x26
    80004cbc:	0026c5b3          	xor	x11,x13,x2
    80004cc0:	400103b7          	lui	x7,0x40010
    80004cc4:	007383b3          	add	x7,x7,x7
    80004cc8:	0603d903          	lhu	x18,96(x7) 
    80004ccc:	01cf6933          	or	x18,x30,x28
    80004cd0:	400104b7          	lui	x9,0x40010
    80004cd4:	009484b3          	add	x9,x9,x9
    80004cd8:	10048493          	addi	x9,x9,256 
    80004cdc:	f604ee03          	lwu	x28,-160(x9)
    80004ce0:	40010bb7          	lui	x23,0x40010
    80004ce4:	017b8bb3          	add	x23,x23,x23
    80004ce8:	054b8083          	lb	x1,84(x23) 
    80004cec:	0016f2b3          	and	x5,x13,x1
    80004cf0:	2a37f413          	andi	x8,x15,675
    80004cf4:	fea2e393          	ori	x7,x5,-22
    80004cf8:	40010a37          	lui	x20,0x40010
    80004cfc:	014a0a33          	add	x20,x20,x20
    80004d00:	100a0a13          	addi	x20,x20,256 
    80004d04:	f3fa0683          	lb	x13,-193(x20)
    80004d08:	40010d37          	lui	x26,0x40010
    80004d0c:	01ad0d33          	add	x26,x26,x26
    80004d10:	0a8d6603          	lwu	x12,168(x26) 
    80004d14:	01857333          	and	x6,x10,x24
    80004d18:	400105b7          	lui	x11,0x40010
    80004d1c:	00b585b3          	add	x11,x11,x11
    80004d20:	04e589a3          	sb	x14,83(x11) 
    80004d24:	40010237          	lui	x4,0x40010
    80004d28:	00420233          	add	x4,x4,x4
    80004d2c:	0b823403          	ld	x8,184(x4) 
    80004d30:	290d8813          	addi	x16,x27,656
    80004d34:	40010537          	lui	x10,0x40010
    80004d38:	00a50533          	add	x10,x10,x10
    80004d3c:	10050513          	addi	x10,x10,256 
    80004d40:	f2456f03          	lwu	x30,-220(x10)
    80004d44:	01e5893b          	addw	x18,x11,x30
    80004d48:	40010137          	lui	x2,0x40010
    80004d4c:	00210133          	add	x2,x2,x2
    80004d50:	01811a23          	sh	x24,20(x2) 
    80004d54:	00454533          	xor	x10,x10,x4
    80004d58:	406006b3          	neg	x13,x6
    80004d5c:	40010737          	lui	x14,0x40010
    80004d60:	00e70733          	add	x14,x14,x14
    80004d64:	10070713          	addi	x14,x14,256 
    80004d68:	f4076983          	lwu	x19,-192(x14)
    80004d6c:	40010437          	lui	x8,0x40010
    80004d70:	00840433          	add	x8,x8,x8
    80004d74:	10040413          	addi	x8,x8,256 
    80004d78:	fd443c23          	sd	x20,-40(x8)
    80004d7c:	40010937          	lui	x18,0x40010
    80004d80:	01290933          	add	x18,x18,x18
    80004d84:	06893683          	ld	x13,104(x18) 
    80004d88:	4f868393          	addi	x7,x13,1272
    80004d8c:	40010e37          	lui	x28,0x40010
    80004d90:	01ce0e33          	add	x28,x28,x28
    80004d94:	100e0e13          	addi	x28,x28,256 
    80004d98:	fe8e0d23          	sb	x8,-6(x28)
    80004d9c:	40010f37          	lui	x30,0x40010
    80004da0:	01ef0f33          	add	x30,x30,x30
    80004da4:	100f0f13          	addi	x30,x30,256 
    80004da8:	ff8f6f83          	lwu	x31,-8(x30)
    80004dac:	01fe7a33          	and	x20,x28,x31
    80004db0:	09380213          	addi	x4,x16,147
    80004db4:	40010637          	lui	x12,0x40010
    80004db8:	00c60633          	add	x12,x12,x12
    80004dbc:	00461723          	sh	x4,14(x12) 
    80004dc0:	40010eb7          	lui	x29,0x40010
    80004dc4:	01de8eb3          	add	x29,x29,x29
    80004dc8:	0bceaa23          	sw	x28,180(x29) 
    80004dcc:	003c4633          	xor	x12,x24,x3
    80004dd0:	330e8893          	addi	x17,x29,816
    80004dd4:	b98d089b          	addiw	x17,x26,-1128
    80004dd8:	019a0cb3          	add	x25,x20,x25
    80004ddc:	0196e333          	or	x6,x13,x25
    80004de0:	40010eb7          	lui	x29,0x40010
    80004de4:	01de8eb3          	add	x29,x29,x29
    80004de8:	056ecb03          	lbu	x22,86(x29) 
    80004dec:	797c8e9b          	addiw	x29,x25,1943
    80004df0:	4057863b          	subw	x12,x15,x5
    80004df4:	afa48713          	addi	x14,x9,-1286
    80004df8:	038a4793          	xori	x15,x20,56
    80004dfc:	400109b7          	lui	x19,0x40010
    80004e00:	013989b3          	add	x19,x19,x19
    80004e04:	10098993          	addi	x19,x19,256 
    80004e08:	fe89b083          	ld	x1,-24(x19)
    80004e0c:	400104b7          	lui	x9,0x40010
    80004e10:	009484b3          	add	x9,x9,x9
    80004e14:	10048493          	addi	x9,x9,256 
    80004e18:	f6d4cc83          	lbu	x25,-147(x9)
    80004e1c:	40010eb7          	lui	x29,0x40010
    80004e20:	01de8eb3          	add	x29,x29,x29
    80004e24:	100e8e93          	addi	x29,x29,256 
    80004e28:	fa2ec483          	lbu	x9,-94(x29)
    80004e2c:	0097e6b3          	or	x13,x15,x9
    80004e30:	41788133          	sub	x2,x17,x23
    80004e34:	0101ce33          	xor	x28,x3,x16
    80004e38:	40870b3b          	subw	x22,x14,x8
    80004e3c:	40010337          	lui	x6,0x40010
    80004e40:	00630333          	add	x6,x6,x6
    80004e44:	10030313          	addi	x6,x6,256 
    80004e48:	f2c32803          	lw	x16,-212(x6)
    80004e4c:	b1794993          	xori	x19,x18,-1257
    80004e50:	00d1c633          	xor	x12,x3,x13
    80004e54:	400101b7          	lui	x3,0x40010
    80004e58:	003181b3          	add	x3,x3,x3
    80004e5c:	07618023          	sb	x22,96(x3) 
    80004e60:	40010ab7          	lui	x21,0x40010
    80004e64:	015a8ab3          	add	x21,x21,x21
    80004e68:	004aa303          	lw	x6,4(x21) 
    80004e6c:	c4d34313          	xori	x6,x6,-947
    80004e70:	40010637          	lui	x12,0x40010
    80004e74:	00c60633          	add	x12,x12,x12
    80004e78:	01362423          	sw	x19,8(x12) 
    80004e7c:	40010b37          	lui	x22,0x40010
    80004e80:	016b0b33          	add	x22,x22,x22
    80004e84:	100b0b13          	addi	x22,x22,256 
    80004e88:	f09b4f03          	lbu	x30,-247(x22)
    80004e8c:	00470f3b          	addw	x30,x14,x4
    80004e90:	40010ab7          	lui	x21,0x40010
    80004e94:	015a8ab3          	add	x21,x21,x21
    80004e98:	100a8a93          	addi	x21,x21,256 
    80004e9c:	fb3aae23          	sw	x19,-68(x21)
    80004ea0:	40010337          	lui	x6,0x40010
    80004ea4:	00630333          	add	x6,x6,x6
    80004ea8:	10030313          	addi	x6,x6,256 
    80004eac:	f7430083          	lb	x1,-140(x6)
    80004eb0:	016d8f33          	add	x30,x27,x22
    80004eb4:	400106b7          	lui	x13,0x40010
    80004eb8:	00d686b3          	add	x13,x13,x13
    80004ebc:	0c66b023          	sd	x6,192(x13) 
    80004ec0:	00aff8b3          	and	x17,x31,x10
    80004ec4:	41780533          	sub	x10,x16,x23
    80004ec8:	400106b7          	lui	x13,0x40010
    80004ecc:	00d686b3          	add	x13,x13,x13
    80004ed0:	10068693          	addi	x13,x13,256 
    80004ed4:	fbd6c883          	lbu	x17,-67(x13)
    80004ed8:	adf8eb93          	ori	x23,x17,-1313
    80004edc:	40010937          	lui	x18,0x40010
    80004ee0:	01290933          	add	x18,x18,x18
    80004ee4:	09a90f83          	lb	x31,154(x18) 
    80004ee8:	018e0fbb          	addw	x31,x28,x24
    80004eec:	538b7013          	andi	x0,x22,1336
    80004ef0:	017dc933          	xor	x18,x27,x23
    80004ef4:	40ff00b3          	sub	x1,x30,x15
    80004ef8:	01ace133          	or	x2,x25,x26
    80004efc:	40010537          	lui	x10,0x40010
    80004f00:	00a50533          	add	x10,x10,x10
    80004f04:	0eb50003          	lb	x0,235(x10) 
    80004f08:	5877e793          	ori	x15,x15,1415
    80004f0c:	00006333          	or	x6,x0,x0
    80004f10:	400108b7          	lui	x17,0x40010
    80004f14:	011888b3          	add	x17,x17,x17
    80004f18:	10088893          	addi	x17,x17,256 
    80004f1c:	fbd89323          	sh	x29,-90(x17)
    80004f20:	400107b7          	lui	x15,0x40010
    80004f24:	00f787b3          	add	x15,x15,x15
    80004f28:	10078793          	addi	x15,x15,256 
    80004f2c:	f547e283          	lwu	x5,-172(x15)
    80004f30:	40010cb7          	lui	x25,0x40010
    80004f34:	019c8cb3          	add	x25,x25,x25
    80004f38:	100c8c93          	addi	x25,x25,256 
    80004f3c:	f48cb003          	ld	x0,-184(x25)
    80004f40:	40f00b33          	neg	x22,x15
    80004f44:	009dcd33          	xor	x26,x27,x9
    80004f48:	014603b3          	add	x7,x12,x20
    80004f4c:	40010537          	lui	x10,0x40010
    80004f50:	00a50533          	add	x10,x10,x10
    80004f54:	00953c23          	sd	x9,24(x10) 
    80004f58:	40010437          	lui	x8,0x40010
    80004f5c:	00840433          	add	x8,x8,x8
    80004f60:	04841603          	lh	x12,72(x8) 
    80004f64:	79964613          	xori	x12,x12,1945
    80004f68:	0177e133          	or	x2,x15,x23
    80004f6c:	a54b881b          	addiw	x16,x23,-1452
    80004f70:	40010d37          	lui	x26,0x40010
    80004f74:	01ad0d33          	add	x26,x26,x26
    80004f78:	095d4a03          	lbu	x20,149(x26) 
    80004f7c:	414b80b3          	sub	x1,x23,x20
    80004f80:	40010db7          	lui	x27,0x40010
    80004f84:	01bd8db3          	add	x27,x27,x27
    80004f88:	058db883          	ld	x17,88(x27) 
    80004f8c:	0138803b          	addw	x0,x17,x19
    80004f90:	40010fb7          	lui	x31,0x40010
    80004f94:	01ff8fb3          	add	x31,x31,x31
    80004f98:	0aafb423          	sd	x10,168(x31) 
    80004f9c:	40010c37          	lui	x24,0x40010
    80004fa0:	018c0c33          	add	x24,x24,x24
    80004fa4:	100c0c13          	addi	x24,x24,256 
    80004fa8:	f48c1a03          	lh	x20,-184(x24)
    80004fac:	400100b7          	lui	x1,0x40010
