
lab3-extra-test.elf:     file format elf64-littleriscv


Disassembly of section .text:

0000000080000000 <_binary_lab4_test_bin_start>:
    80000000:	00a000b7          	lui	x1,0xa00
    80000004:	0440809b          	addiw	x1,x1,68 # a00044 <_binary_lab4_test_bin_size+0x9dff38>
    80000008:	30009073          	csrw	mstatus,x1
    8000000c:	40010437          	lui	x8,0x40010
    80000010:	00840433          	add	x8,x8,x8
    80000014:	0ae40923          	sb	x14,178(x8) # 400100b2 <_binary_lab4_test_bin_size+0x3ffeffa6>
    80000018:	400102b7          	lui	x5,0x40010
    8000001c:	005282b3          	add	x5,x5,x5
    80000020:	0952cb83          	lbu	x23,149(x5) # 40010095 <_binary_lab4_test_bin_size+0x3ffeff89>
    80000024:	017e06bb          	addw	x13,x28,x23
    80000028:	3436e773          	csrrsi	x14,mtval,13
    8000002c:	2bb28013          	addi	x0,x5,699
    80000030:	40010137          	lui	x2,0x40010
    80000034:	00210133          	add	x2,x2,x2
    80000038:	10010113          	addi	x2,x2,256 # 40010100 <_binary_lab4_test_bin_size+0x3ffefff4>
    8000003c:	fad12423          	sw	x13,-88(x2)
    80000040:	015280bb          	addw	x1,x5,x21
    80000044:	96964313          	xori	x6,x12,-1687
    80000048:	400104b7          	lui	x9,0x40010
    8000004c:	009484b3          	add	x9,x9,x9
    80000050:	10048493          	addi	x9,x9,256 # 40010100 <_binary_lab4_test_bin_size+0x3ffefff4>
    80000054:	ff148fa3          	sb	x17,-1(x9)
    80000058:	3057e573          	csrrsi	x10,mtvec,15
    8000005c:	40690633          	sub	x12,x18,x6
    80000060:	3c5a8c93          	addi	x25,x21,965
    80000064:	015cc233          	xor	x4,x25,x21
    80000068:	400107b7          	lui	x15,0x40010
    8000006c:	00f787b3          	add	x15,x15,x15
    80000070:	10078793          	addi	x15,x15,256 # 40010100 <_binary_lab4_test_bin_size+0x3ffefff4>
    80000074:	f867aa23          	sw	x6,-108(x15)
    80000078:	40010db7          	lui	x27,0x40010
    8000007c:	01bd8db3          	add	x27,x27,x27
    80000080:	100d8d93          	addi	x27,x27,256 # 40010100 <_binary_lab4_test_bin_size+0x3ffefff4>
    80000084:	fb4d8323          	sb	x20,-90(x27)
    80000088:	40010cb7          	lui	x25,0x40010
    8000008c:	019c8cb3          	add	x25,x25,x25
    80000090:	001cac23          	sw	x1,24(x25) # 40010018 <_binary_lab4_test_bin_size+0x3ffeff0c>
    80000094:	40010e37          	lui	x28,0x40010
    80000098:	01ce0e33          	add	x28,x28,x28
    8000009c:	100e0e13          	addi	x28,x28,256 # 40010100 <_binary_lab4_test_bin_size+0x3ffefff4>
    800000a0:	f3ce1e03          	lh	x28,-196(x28)
    800000a4:	01da8e33          	add	x28,x21,x29
    800000a8:	0176fa33          	and	x20,x13,x23
    800000ac:	400105b7          	lui	x11,0x40010
    800000b0:	00b585b3          	add	x11,x11,x11
    800000b4:	05759223          	sh	x23,68(x11) # 40010044 <_binary_lab4_test_bin_size+0x3ffeff38>
    800000b8:	40010cb7          	lui	x25,0x40010
    800000bc:	019c8cb3          	add	x25,x25,x25
    800000c0:	0a0cba03          	ld	x20,160(x25) # 400100a0 <_binary_lab4_test_bin_size+0x3ffeff94>
    800000c4:	412a0fb3          	sub	x31,x20,x18
    800000c8:	40010437          	lui	x8,0x40010
    800000cc:	00840433          	add	x8,x8,x8
    800000d0:	10040413          	addi	x8,x8,256 # 40010100 <_binary_lab4_test_bin_size+0x3ffefff4>
    800000d4:	fad41123          	sh	x13,-94(x8)
    800000d8:	40010137          	lui	x2,0x40010
    800000dc:	00210133          	add	x2,x2,x2
    800000e0:	10010113          	addi	x2,x2,256 # 40010100 <_binary_lab4_test_bin_size+0x3ffefff4>
    800000e4:	f6910e83          	lb	x29,-151(x2)
    800000e8:	40010437          	lui	x8,0x40010
    800000ec:	00840433          	add	x8,x8,x8
    800000f0:	03f40323          	sb	x31,38(x8) # 40010026 <_binary_lab4_test_bin_size+0x3ffeff1a>
    800000f4:	3b0a8b9b          	addiw	x23,x21,944
    800000f8:	40010cb7          	lui	x25,0x40010
    800000fc:	019c8cb3          	add	x25,x25,x25
    80000100:	100c8c93          	addi	x25,x25,256 # 40010100 <_binary_lab4_test_bin_size+0x3ffefff4>
    80000104:	fefc8d23          	sb	x15,-6(x25)
    80000108:	11180d13          	addi	x26,x16,273
    8000010c:	34495b73          	csrrwi	x22,mip,18
    80000110:	341010f3          	csrrw	x1,mepc,x0
    80000114:	40010db7          	lui	x27,0x40010
    80000118:	01bd8db3          	add	x27,x27,x27
    8000011c:	100d8d93          	addi	x27,x27,256 # 40010100 <_binary_lab4_test_bin_size+0x3ffefff4>
    80000120:	fc0dab83          	lw	x23,-64(x27)
    80000124:	417f0f3b          	subw	x30,x30,x23
    80000128:	40010137          	lui	x2,0x40010
    8000012c:	00210133          	add	x2,x2,x2
    80000130:	0c811523          	sh	x8,202(x2) # 400100ca <_binary_lab4_test_bin_size+0x3ffeffbe>
    80000134:	41b885bb          	subw	x11,x17,x27
    80000138:	40010237          	lui	x4,0x40010
    8000013c:	00420233          	add	x4,x4,x4
    80000140:	10020213          	addi	x4,x4,256 # 40010100 <_binary_lab4_test_bin_size+0x3ffefff4>
    80000144:	f9224503          	lbu	x10,-110(x4) # ffffffffffffff92 <_binary_lab4_test_bin_end+0xffffffff7ffdfe86>
    80000148:	00957ab3          	and	x21,x10,x9
    8000014c:	a56f8f93          	addi	x31,x31,-1450
    80000150:	400100b7          	lui	x1,0x40010
    80000154:	001080b3          	add	x1,x1,x1
    80000158:	10008093          	addi	x1,x1,256 # 40010100 <_binary_lab4_test_bin_size+0x3ffefff4>
    8000015c:	f1e0a223          	sw	x30,-252(x1)
    80000160:	40010d37          	lui	x26,0x40010
    80000164:	01ad0d33          	add	x26,x26,x26
    80000168:	021d0823          	sb	x1,48(x26) # 40010030 <_binary_lab4_test_bin_size+0x3ffeff24>
    8000016c:	400106b7          	lui	x13,0x40010
    80000170:	00d686b3          	add	x13,x13,x13
    80000174:	10068693          	addi	x13,x13,256 # 40010100 <_binary_lab4_test_bin_size+0x3ffefff4>
    80000178:	f5a6d783          	lhu	x15,-166(x13)
    8000017c:	5b07f613          	andi	x12,x15,1456
    80000180:	3413e673          	csrrsi	x12,mepc,7
    80000184:	40010bb7          	lui	x23,0x40010
    80000188:	017b8bb3          	add	x23,x23,x23
    8000018c:	100b8b93          	addi	x23,x23,256 # 40010100 <_binary_lab4_test_bin_size+0x3ffefff4>
    80000190:	f18b9203          	lh	x4,-232(x23)
    80000194:	400105b7          	lui	x11,0x40010
    80000198:	00b585b3          	add	x11,x11,x11
    8000019c:	10058593          	addi	x11,x11,256 # 40010100 <_binary_lab4_test_bin_size+0x3ffefff4>
    800001a0:	fe059d23          	sh	x0,-6(x11)
    800001a4:	40b90abb          	subw	x21,x18,x11
    800001a8:	9f8c7e93          	andi	x29,x24,-1544
    800001ac:	b0b1c713          	xori	x14,x3,-1269
    800001b0:	40348433          	sub	x8,x9,x3
    800001b4:	30515a73          	csrrwi	x20,mtvec,2
    800001b8:	400105b7          	lui	x11,0x40010
    800001bc:	00b585b3          	add	x11,x11,x11
    800001c0:	0245e183          	lwu	x3,36(x11) # 40010024 <_binary_lab4_test_bin_size+0x3ffeff18>
    800001c4:	001c01b3          	add	x3,x24,x1
    800001c8:	400107b7          	lui	x15,0x40010
    800001cc:	00f787b3          	add	x15,x15,x15
    800001d0:	0447dd03          	lhu	x26,68(x15) # 40010044 <_binary_lab4_test_bin_size+0x3ffeff38>
    800001d4:	a57d6d13          	ori	x26,x26,-1449
    800001d8:	400104b7          	lui	x9,0x40010
    800001dc:	009484b3          	add	x9,x9,x9
    800001e0:	0d049d03          	lh	x26,208(x9) # 400100d0 <_binary_lab4_test_bin_size+0x3ffeffc4>
    800001e4:	002a0bb3          	add	x23,x20,x2
    800001e8:	304b1473          	csrrw	x8,mie,x22
    800001ec:	40010637          	lui	x12,0x40010
    800001f0:	00c60633          	add	x12,x12,x12
    800001f4:	08c63023          	sd	x12,128(x12) # 40010080 <_binary_lab4_test_bin_size+0x3ffeff74>
    800001f8:	404f0c33          	sub	x24,x30,x4
    800001fc:	40010d37          	lui	x26,0x40010
    80000200:	01ad0d33          	add	x26,x26,x26
    80000204:	0b4d4a83          	lbu	x21,180(x26) # 400100b4 <_binary_lab4_test_bin_size+0x3ffeffa8>
    80000208:	416a89bb          	subw	x19,x21,x22
    8000020c:	408f0b33          	sub	x22,x30,x8
    80000210:	4e3d0f93          	addi	x31,x26,1251
    80000214:	40010d37          	lui	x26,0x40010
    80000218:	01ad0d33          	add	x26,x26,x26
    8000021c:	0b1d0983          	lb	x19,177(x26) # 400100b1 <_binary_lab4_test_bin_size+0x3ffeffa5>
    80000220:	009afc33          	and	x24,x21,x9
    80000224:	06206793          	ori	x15,x0,98
    80000228:	3043f273          	csrrci	x4,mie,7
    8000022c:	400107b7          	lui	x15,0x40010
    80000230:	00f787b3          	add	x15,x15,x15
    80000234:	0c87b683          	ld	x13,200(x15) # 400100c8 <_binary_lab4_test_bin_size+0x3ffeffbc>
    80000238:	40010337          	lui	x6,0x40010
    8000023c:	00630333          	add	x6,x6,x6
    80000240:	10030313          	addi	x6,x6,256 # 40010100 <_binary_lab4_test_bin_size+0x3ffefff4>
    80000244:	f8031083          	lh	x1,-128(x6)
    80000248:	0110f933          	and	x18,x1,x17
    8000024c:	400109b7          	lui	x19,0x40010
    80000250:	013989b3          	add	x19,x19,x19
    80000254:	00499d23          	sh	x4,26(x19) # 4001001a <_binary_lab4_test_bin_size+0x3ffeff0e>
    80000258:	400101b7          	lui	x3,0x40010
    8000025c:	003181b3          	add	x3,x3,x3
    80000260:	0b81b423          	sd	x24,168(x3) # 400100a8 <_binary_lab4_test_bin_size+0x3ffeff9c>
    80000264:	41348f3b          	subw	x30,x9,x19
    80000268:	40010ab7          	lui	x21,0x40010
    8000026c:	015a8ab3          	add	x21,x21,x21
    80000270:	100a8a93          	addi	x21,x21,256 # 40010100 <_binary_lab4_test_bin_size+0x3ffefff4>
    80000274:	fe1a86a3          	sb	x1,-19(x21)
    80000278:	525ec193          	xori	x3,x29,1317
    8000027c:	40010237          	lui	x4,0x40010
    80000280:	00420233          	add	x4,x4,x4
    80000284:	01d20023          	sb	x29,0(x4) # 40010000 <_binary_lab4_test_bin_size+0x3ffefef4>
    80000288:	0195c033          	xor	x0,x11,x25
    8000028c:	34101e73          	csrrw	x28,mepc,x0
    80000290:	01d18c3b          	addw	x24,x3,x29
    80000294:	400105b7          	lui	x11,0x40010
    80000298:	00b585b3          	add	x11,x11,x11
    8000029c:	0205b683          	ld	x13,32(x11) # 40010020 <_binary_lab4_test_bin_size+0x3ffeff14>
    800002a0:	40010a37          	lui	x20,0x40010
    800002a4:	014a0a33          	add	x20,x20,x20
    800002a8:	100a0a13          	addi	x20,x20,256 # 40010100 <_binary_lab4_test_bin_size+0x3ffefff4>
    800002ac:	f3ea5903          	lhu	x18,-194(x20)
    800002b0:	01064933          	xor	x18,x12,x16
    800002b4:	40010cb7          	lui	x25,0x40010
    800002b8:	019c8cb3          	add	x25,x25,x25
    800002bc:	09ecb823          	sd	x30,144(x25) # 40010090 <_binary_lab4_test_bin_size+0x3ffeff84>
    800002c0:	013442b3          	xor	x5,x8,x19
    800002c4:	e0234793          	xori	x15,x6,-510
    800002c8:	400108b7          	lui	x17,0x40010
    800002cc:	011888b3          	add	x17,x17,x17
    800002d0:	10088893          	addi	x17,x17,256 # 40010100 <_binary_lab4_test_bin_size+0x3ffefff4>
    800002d4:	f1e89023          	sh	x30,-256(x17)
    800002d8:	40010db7          	lui	x27,0x40010
    800002dc:	01bd8db3          	add	x27,x27,x27
    800002e0:	100d8d93          	addi	x27,x27,256 # 40010100 <_binary_lab4_test_bin_size+0x3ffefff4>
    800002e4:	f44d9e23          	sh	x4,-164(x27)
    800002e8:	005b4a33          	xor	x20,x22,x5
    800002ec:	f2c3ee13          	ori	x28,x7,-212
    800002f0:	003e82b3          	add	x5,x29,x3
    800002f4:	40010237          	lui	x4,0x40010
    800002f8:	00420233          	add	x4,x4,x4
    800002fc:	10020213          	addi	x4,x4,256 # 40010100 <_binary_lab4_test_bin_size+0x3ffefff4>
    80000300:	f8424303          	lbu	x6,-124(x4) # ffffffffffffff84 <_binary_lab4_test_bin_end+0xffffffff7ffdfe78>
    80000304:	400106b7          	lui	x13,0x40010
    80000308:	00d686b3          	add	x13,x13,x13
    8000030c:	059683a3          	sb	x25,71(x13) # 40010047 <_binary_lab4_test_bin_size+0x3ffeff3b>
    80000310:	41d506bb          	subw	x13,x10,x29
    80000314:	01a30fb3          	add	x31,x6,x26
    80000318:	40010b37          	lui	x22,0x40010
    8000031c:	016b0b33          	add	x22,x22,x22
    80000320:	0f8b6203          	lwu	x4,248(x22) # 400100f8 <_binary_lab4_test_bin_size+0x3ffeffec>
    80000324:	5ca26913          	ori	x18,x4,1482
    80000328:	0122e8b3          	or	x17,x5,x18
    8000032c:	1aeec713          	xori	x14,x29,430
    80000330:	40010e37          	lui	x28,0x40010
    80000334:	01ce0e33          	add	x28,x28,x28
    80000338:	100e0e13          	addi	x28,x28,256 # 40010100 <_binary_lab4_test_bin_size+0x3ffefff4>
    8000033c:	f65e3823          	sd	x5,-144(x28)
    80000340:	40010637          	lui	x12,0x40010
    80000344:	00c60633          	add	x12,x12,x12
    80000348:	10060613          	addi	x12,x12,256 # 40010100 <_binary_lab4_test_bin_size+0x3ffefff4>
    8000034c:	ffe605a3          	sb	x30,-21(x12)
    80000350:	6bcbfc13          	andi	x24,x23,1724
    80000354:	40010d37          	lui	x26,0x40010
    80000358:	01ad0d33          	add	x26,x26,x26
    8000035c:	100d0d13          	addi	x26,x26,256 # 40010100 <_binary_lab4_test_bin_size+0x3ffefff4>
    80000360:	f70d2183          	lw	x3,-144(x26)
    80000364:	41a409b3          	sub	x19,x8,x26
    80000368:	402b8db3          	sub	x27,x23,x2
    8000036c:	813ec213          	xori	x4,x29,-2029
    80000370:	40010337          	lui	x6,0x40010
    80000374:	00630333          	add	x6,x6,x6
    80000378:	09831503          	lh	x10,152(x6) # 40010098 <_binary_lab4_test_bin_size+0x3ffeff8c>
    8000037c:	ff6d7513          	andi	x10,x26,-10
    80000380:	343b9b73          	csrrw	x22,mtval,x23
    80000384:	077f7593          	andi	x11,x30,119
    80000388:	b9a7ec93          	ori	x25,x15,-1126
    8000038c:	30489c73          	csrrw	x24,mie,x17
    80000390:	34235d73          	csrrwi	x26,mcause,6
    80000394:	002a82bb          	addw	x5,x21,x2
    80000398:	0025ce33          	xor	x28,x11,x2
    8000039c:	34109073          	csrw	mepc,x1
    800003a0:	410f8f33          	sub	x30,x31,x16
    800003a4:	400106b7          	lui	x13,0x40010
    800003a8:	00d686b3          	add	x13,x13,x13
    800003ac:	0c269f03          	lh	x30,194(x13) # 400100c2 <_binary_lab4_test_bin_size+0x3ffeffb6>
    800003b0:	047e8993          	addi	x19,x29,71
    800003b4:	40010e37          	lui	x28,0x40010
    800003b8:	01ce0e33          	add	x28,x28,x28
    800003bc:	033e3823          	sd	x19,48(x28) # 40010030 <_binary_lab4_test_bin_size+0x3ffeff24>
    800003c0:	40010eb7          	lui	x29,0x40010
    800003c4:	01de8eb3          	add	x29,x29,x29
    800003c8:	100e8e93          	addi	x29,x29,256 # 40010100 <_binary_lab4_test_bin_size+0x3ffefff4>
    800003cc:	f37e9923          	sh	x23,-206(x29)
    800003d0:	400102b7          	lui	x5,0x40010
    800003d4:	005282b3          	add	x5,x5,x5
    800003d8:	0042bc23          	sd	x4,24(x5) # 40010018 <_binary_lab4_test_bin_size+0x3ffeff0c>
    800003dc:	40010cb7          	lui	x25,0x40010
    800003e0:	019c8cb3          	add	x25,x25,x25
    800003e4:	100c8c93          	addi	x25,x25,256 # 40010100 <_binary_lab4_test_bin_size+0x3ffefff4>
    800003e8:	fc0ca903          	lw	x18,-64(x25)
    800003ec:	412c07b3          	sub	x15,x24,x18
    800003f0:	34109cf3          	csrrw	x25,mepc,x1
    800003f4:	400103b7          	lui	x7,0x40010
    800003f8:	007383b3          	add	x7,x7,x7
    800003fc:	0c13b423          	sd	x1,200(x7) # 400100c8 <_binary_lab4_test_bin_size+0x3ffeffbc>
    80000400:	343c16f3          	csrrw	x13,mtval,x24
    80000404:	e9f64d93          	xori	x27,x12,-353
    80000408:	400106b7          	lui	x13,0x40010
    8000040c:	00d686b3          	add	x13,x13,x13
    80000410:	10068693          	addi	x13,x13,256 # 40010100 <_binary_lab4_test_bin_size+0x3ffefff4>
    80000414:	f366ae23          	sw	x22,-196(x13)
    80000418:	7b888a13          	addi	x20,x17,1976
    8000041c:	00fe4cb3          	xor	x25,x28,x15
    80000420:	40010337          	lui	x6,0x40010
    80000424:	00630333          	add	x6,x6,x6
    80000428:	10030313          	addi	x6,x6,256 # 40010100 <_binary_lab4_test_bin_size+0x3ffefff4>
    8000042c:	fc833083          	ld	x1,-56(x6)
    80000430:	ee860b9b          	addiw	x23,x12,-280
    80000434:	00e48333          	add	x6,x9,x14
    80000438:	00c1c3b3          	xor	x7,x3,x12
    8000043c:	002aedb3          	or	x27,x21,x2
    80000440:	0068ef33          	or	x30,x17,x6
    80000444:	40918db3          	sub	x27,x3,x9
    80000448:	342693f3          	csrrw	x7,mcause,x13
    8000044c:	013c00bb          	addw	x1,x24,x19
    80000450:	bca17913          	andi	x18,x2,-1078
    80000454:	40010b37          	lui	x22,0x40010
    80000458:	016b0b33          	add	x22,x22,x22
    8000045c:	0d8b6a83          	lwu	x21,216(x22) # 400100d8 <_binary_lab4_test_bin_size+0x3ffeffcc>
    80000460:	419a853b          	subw	x10,x21,x25
    80000464:	40010f37          	lui	x30,0x40010
    80000468:	01ef0f33          	add	x30,x30,x30
    8000046c:	100f0f13          	addi	x30,x30,256 # 40010100 <_binary_lab4_test_bin_size+0x3ffefff4>
    80000470:	fc0f3a83          	ld	x21,-64(x30)
    80000474:	f1daea93          	ori	x21,x21,-227
    80000478:	400104b7          	lui	x9,0x40010
    8000047c:	009484b3          	add	x9,x9,x9
    80000480:	0a14aa23          	sw	x1,180(x9) # 400100b4 <_binary_lab4_test_bin_size+0x3ffeffa8>
    80000484:	40010637          	lui	x12,0x40010
    80000488:	00c60633          	add	x12,x12,x12
    8000048c:	10060613          	addi	x12,x12,256 # 40010100 <_binary_lab4_test_bin_size+0x3ffefff4>
    80000490:	f4862823          	sw	x8,-176(x12)
    80000494:	341f70f3          	csrrci	x1,mepc,30
    80000498:	400104b7          	lui	x9,0x40010
    8000049c:	009484b3          	add	x9,x9,x9
    800004a0:	10048493          	addi	x9,x9,256 # 40010100 <_binary_lab4_test_bin_size+0x3ffefff4>
    800004a4:	f3048f23          	sb	x16,-194(x9)
    800004a8:	34167d73          	csrrci	x26,mepc,12
    800004ac:	40010d37          	lui	x26,0x40010
    800004b0:	01ad0d33          	add	x26,x26,x26
    800004b4:	100d0d13          	addi	x26,x26,256 # 40010100 <_binary_lab4_test_bin_size+0x3ffefff4>
    800004b8:	f38d1103          	lh	x2,-200(x26)
    800004bc:	56280093          	addi	x1,x16,1378
    800004c0:	001a8dbb          	addw	x27,x21,x1
    800004c4:	00b20e33          	add	x28,x4,x11
    800004c8:	88dd8e9b          	addiw	x29,x27,-1907
    800004cc:	40010db7          	lui	x27,0x40010
    800004d0:	01bd8db3          	add	x27,x27,x27
    800004d4:	080db603          	ld	x12,128(x27) # 40010080 <_binary_lab4_test_bin_size+0x3ffeff74>
    800004d8:	e9b77493          	andi	x9,x14,-357
    800004dc:	a5da0a93          	addi	x21,x20,-1443
    800004e0:	40010a37          	lui	x20,0x40010
    800004e4:	014a0a33          	add	x20,x20,x20
    800004e8:	0cca2303          	lw	x6,204(x20) # 400100cc <_binary_lab4_test_bin_size+0x3ffeffc0>
    800004ec:	01070e33          	add	x28,x14,x16
    800004f0:	014c77b3          	and	x15,x24,x20
    800004f4:	57e2cc13          	xori	x24,x5,1406
    800004f8:	343d5073          	csrwi	mtval,26
    800004fc:	40010c37          	lui	x24,0x40010
    80000500:	018c0c33          	add	x24,x24,x24
    80000504:	078c3283          	ld	x5,120(x24) # 40010078 <_binary_lab4_test_bin_size+0x3ffeff6c>
    80000508:	005701bb          	addw	x3,x14,x5
    8000050c:	ee64091b          	addiw	x18,x8,-282
    80000510:	3ca17893          	andi	x17,x2,970
    80000514:	a85e7293          	andi	x5,x28,-1403
    80000518:	01098db3          	add	x27,x19,x16
    8000051c:	40010237          	lui	x4,0x40010
    80000520:	00420233          	add	x4,x4,x4
    80000524:	10020213          	addi	x4,x4,256 # 40010100 <_binary_lab4_test_bin_size+0x3ffefff4>
    80000528:	f7024703          	lbu	x14,-144(x4) # ffffffffffffff70 <_binary_lab4_test_bin_end+0xffffffff7ffdfe64>
    8000052c:	400107b7          	lui	x15,0x40010
    80000530:	00f787b3          	add	x15,x15,x15
    80000534:	00879423          	sh	x8,8(x15) # 40010008 <_binary_lab4_test_bin_size+0x3ffefefc>
    80000538:	343cf473          	csrrci	x8,mtval,25
    8000053c:	40010337          	lui	x6,0x40010
    80000540:	00630333          	add	x6,x6,x6
    80000544:	10030313          	addi	x6,x6,256 # 40010100 <_binary_lab4_test_bin_size+0x3ffefff4>
    80000548:	fd534083          	lbu	x1,-43(x6)
    8000054c:	bde38a9b          	addiw	x21,x7,-1058
    80000550:	56188f1b          	addiw	x30,x17,1377
    80000554:	400107b7          	lui	x15,0x40010
    80000558:	00f787b3          	add	x15,x15,x15
    8000055c:	0c679b23          	sh	x6,214(x15) # 400100d6 <_binary_lab4_test_bin_size+0x3ffeffca>
    80000560:	48948c9b          	addiw	x25,x9,1161
    80000564:	ba9d8b1b          	addiw	x22,x27,-1111
    80000568:	34958993          	addi	x19,x11,841
    8000056c:	40010837          	lui	x16,0x40010
    80000570:	01080833          	add	x16,x16,x16
    80000574:	10080813          	addi	x16,x16,256 # 40010100 <_binary_lab4_test_bin_size+0x3ffefff4>
    80000578:	f0083583          	ld	x11,-256(x16)
    8000057c:	40010937          	lui	x18,0x40010
    80000580:	01290933          	add	x18,x18,x18
    80000584:	04c95a83          	lhu	x21,76(x18) # 4001004c <_binary_lab4_test_bin_size+0x3ffeff40>
    80000588:	303b7e13          	andi	x28,x22,771
    8000058c:	bd2e6513          	ori	x10,x28,-1070
    80000590:	40010237          	lui	x4,0x40010
    80000594:	00420233          	add	x4,x4,x4
    80000598:	10020213          	addi	x4,x4,256 # 40010100 <_binary_lab4_test_bin_size+0x3ffefff4>
    8000059c:	f4c207a3          	sb	x12,-177(x4) # ffffffffffffff4f <_binary_lab4_test_bin_end+0xffffffff7ffdfe43>
    800005a0:	00cc81b3          	add	x3,x25,x12
    800005a4:	00287233          	and	x4,x16,x2
    800005a8:	00f987bb          	addw	x15,x19,x15
    800005ac:	34255f73          	csrrwi	x30,mcause,10
    800005b0:	306c069b          	addiw	x13,x24,774
    800005b4:	03a3089b          	addiw	x17,x6,58
    800005b8:	400102b7          	lui	x5,0x40010
    800005bc:	005282b3          	add	x5,x5,x5
    800005c0:	10028293          	addi	x5,x5,256 # 40010100 <_binary_lab4_test_bin_size+0x3ffefff4>
    800005c4:	f562a223          	sw	x22,-188(x5)
    800005c8:	40010c37          	lui	x24,0x40010
    800005cc:	018c0c33          	add	x24,x24,x24
    800005d0:	066c5103          	lhu	x2,102(x24) # 40010066 <_binary_lab4_test_bin_size+0x3ffeff5a>
    800005d4:	305d5bf3          	csrrwi	x23,mtvec,26
    800005d8:	40010b37          	lui	x22,0x40010
    800005dc:	016b0b33          	add	x22,x22,x22
    800005e0:	048b3403          	ld	x8,72(x22) # 40010048 <_binary_lab4_test_bin_size+0x3ffeff3c>
    800005e4:	01614433          	xor	x8,x2,x22
    800005e8:	40010737          	lui	x14,0x40010
    800005ec:	00e70733          	add	x14,x14,x14
    800005f0:	10070713          	addi	x14,x14,256 # 40010100 <_binary_lab4_test_bin_size+0x3ffefff4>
    800005f4:	fde708a3          	sb	x30,-47(x14)
    800005f8:	40010b37          	lui	x22,0x40010
    800005fc:	016b0b33          	add	x22,x22,x22
    80000600:	100b0b13          	addi	x22,x22,256 # 40010100 <_binary_lab4_test_bin_size+0x3ffefff4>
    80000604:	f30b2583          	lw	x11,-208(x22)
    80000608:	400108b7          	lui	x17,0x40010
    8000060c:	011888b3          	add	x17,x17,x17
    80000610:	10088893          	addi	x17,x17,256 # 40010100 <_binary_lab4_test_bin_size+0x3ffefff4>
    80000614:	ffc8b823          	sd	x28,-16(x17)
    80000618:	011875b3          	and	x11,x16,x17
    8000061c:	400100b7          	lui	x1,0x40010
    80000620:	001080b3          	add	x1,x1,x1
    80000624:	08c09323          	sh	x12,134(x1) # 40010086 <_binary_lab4_test_bin_size+0x3ffeff7a>
    80000628:	01280f33          	add	x30,x16,x18
    8000062c:	e063e213          	ori	x4,x7,-506
    80000630:	00460bb3          	add	x23,x12,x4
    80000634:	3041d673          	csrrwi	x12,mie,3
    80000638:	400105b7          	lui	x11,0x40010
    8000063c:	00b585b3          	add	x11,x11,x11
    80000640:	10058593          	addi	x11,x11,256 # 40010100 <_binary_lab4_test_bin_size+0x3ffefff4>
    80000644:	f3659903          	lh	x18,-202(x11)
    80000648:	00a901b3          	add	x3,x18,x10
    8000064c:	40010db7          	lui	x27,0x40010
    80000650:	01bd8db3          	add	x27,x27,x27
    80000654:	100d8d93          	addi	x27,x27,256 # 40010100 <_binary_lab4_test_bin_size+0x3ffefff4>
    80000658:	f5bdb023          	sd	x27,-192(x27)
    8000065c:	beb70193          	addi	x3,x14,-1045
    80000660:	01a662b3          	or	x5,x12,x26
    80000664:	40010e37          	lui	x28,0x40010
    80000668:	01ce0e33          	add	x28,x28,x28
    8000066c:	100e0e13          	addi	x28,x28,256 # 40010100 <_binary_lab4_test_bin_size+0x3ffefff4>
    80000670:	f7ee0623          	sb	x30,-148(x28)
    80000674:	305fd0f3          	csrrwi	x1,mtvec,31
    80000678:	40010db7          	lui	x27,0x40010
    8000067c:	01bd8db3          	add	x27,x27,x27
    80000680:	074de903          	lwu	x18,116(x27) # 40010074 <_binary_lab4_test_bin_size+0x3ffeff68>
    80000684:	40010b37          	lui	x22,0x40010
    80000688:	016b0b33          	add	x22,x22,x22
    8000068c:	06cb0e83          	lb	x29,108(x22) # 4001006c <_binary_lab4_test_bin_size+0x3ffeff60>
    80000690:	a01e8e9b          	addiw	x29,x29,-1535
    80000694:	400106b7          	lui	x13,0x40010
    80000698:	00d686b3          	add	x13,x13,x13
    8000069c:	10068693          	addi	x13,x13,256 # 40010100 <_binary_lab4_test_bin_size+0x3ffefff4>
    800006a0:	feb68703          	lb	x14,-21(x13)
    800006a4:	40010637          	lui	x12,0x40010
    800006a8:	00c60633          	add	x12,x12,x12
    800006ac:	0d760ba3          	sb	x23,215(x12) # 400100d7 <_binary_lab4_test_bin_size+0x3ffeffcb>
    800006b0:	344b6cf3          	csrrsi	x25,mip,22
    800006b4:	f5004813          	xori	x16,x0,-176
    800006b8:	8bc84413          	xori	x8,x16,-1860
    800006bc:	40010c37          	lui	x24,0x40010
    800006c0:	018c0c33          	add	x24,x24,x24
    800006c4:	060c4d83          	lbu	x27,96(x24) # 40010060 <_binary_lab4_test_bin_size+0x3ffeff54>
    800006c8:	f6864a93          	xori	x21,x12,-152
    800006cc:	40010637          	lui	x12,0x40010
    800006d0:	00c60633          	add	x12,x12,x12
    800006d4:	10060613          	addi	x12,x12,256 # 40010100 <_binary_lab4_test_bin_size+0x3ffefff4>
    800006d8:	f7a64b83          	lbu	x23,-134(x12)
    800006dc:	017603bb          	addw	x7,x12,x23
    800006e0:	343d1673          	csrrw	x12,mtval,x26
    800006e4:	400108b7          	lui	x17,0x40010
    800006e8:	011888b3          	add	x17,x17,x17
    800006ec:	10088893          	addi	x17,x17,256 # 40010100 <_binary_lab4_test_bin_size+0x3ffefff4>
    800006f0:	ffe8c083          	lbu	x1,-2(x17)
    800006f4:	0016863b          	addw	x12,x13,x1
    800006f8:	0632e393          	ori	x7,x5,99
    800006fc:	40fb853b          	subw	x10,x23,x15
    80000700:	40010237          	lui	x4,0x40010
    80000704:	00420233          	add	x4,x4,x4
    80000708:	10020213          	addi	x4,x4,256 # 40010100 <_binary_lab4_test_bin_size+0x3ffefff4>
    8000070c:	f7b21123          	sh	x27,-158(x4) # ffffffffffffff62 <_binary_lab4_test_bin_end+0xffffffff7ffdfe56>
    80000710:	341f73f3          	csrrci	x7,mepc,30
    80000714:	400108b7          	lui	x17,0x40010
    80000718:	011888b3          	add	x17,x17,x17
    8000071c:	0318c483          	lbu	x9,49(x17) # 40010031 <_binary_lab4_test_bin_size+0x3ffeff25>
    80000720:	34406e73          	csrrsi	x28,mip,0
    80000724:	97378113          	addi	x2,x15,-1677
    80000728:	400106b7          	lui	x13,0x40010
    8000072c:	00d686b3          	add	x13,x13,x13
    80000730:	0926c703          	lbu	x14,146(x13) # 40010092 <_binary_lab4_test_bin_size+0x3ffeff86>
    80000734:	009ecab3          	xor	x21,x29,x9
    80000738:	82c64893          	xori	x17,x12,-2004
    8000073c:	0444fd93          	andi	x27,x9,68
    80000740:	40010a37          	lui	x20,0x40010
    80000744:	014a0a33          	add	x20,x20,x20
    80000748:	042a4403          	lbu	x8,66(x20) # 40010042 <_binary_lab4_test_bin_size+0x3ffeff36>
    8000074c:	78a40413          	addi	x8,x8,1930
    80000750:	4010003b          	negw	x0,x1
    80000754:	40010eb7          	lui	x29,0x40010
    80000758:	01de8eb3          	add	x29,x29,x29
    8000075c:	100e8e93          	addi	x29,x29,256 # 40010100 <_binary_lab4_test_bin_size+0x3ffefff4>
    80000760:	f05ebc23          	sd	x5,-232(x29)
    80000764:	014f47b3          	xor	x15,x30,x20
    80000768:	40010837          	lui	x16,0x40010
    8000076c:	01080833          	add	x16,x16,x16
    80000770:	05680383          	lb	x7,86(x16) # 40010056 <_binary_lab4_test_bin_size+0x3ffeff4a>
    80000774:	01caf3b3          	and	x7,x21,x28
    80000778:	400108b7          	lui	x17,0x40010
    8000077c:	011888b3          	add	x17,x17,x17
    80000780:	10088893          	addi	x17,x17,256 # 40010100 <_binary_lab4_test_bin_size+0x3ffefff4>
    80000784:	f3889923          	sh	x24,-206(x17)
    80000788:	400104b7          	lui	x9,0x40010
    8000078c:	009484b3          	add	x9,x9,x9
    80000790:	10048493          	addi	x9,x9,256 # 40010100 <_binary_lab4_test_bin_size+0x3ffefff4>
    80000794:	ffb48783          	lb	x15,-5(x9)
    80000798:	58e7f793          	andi	x15,x15,1422
    8000079c:	27046e13          	ori	x28,x8,624
    800007a0:	3423e6f3          	csrrsi	x13,mcause,7
    800007a4:	40010db7          	lui	x27,0x40010
    800007a8:	01bd8db3          	add	x27,x27,x27
    800007ac:	0c9dbc23          	sd	x9,216(x27) # 400100d8 <_binary_lab4_test_bin_size+0x3ffeffcc>
    800007b0:	40010337          	lui	x6,0x40010
    800007b4:	00630333          	add	x6,x6,x6
    800007b8:	09431323          	sh	x20,134(x6) # 40010086 <_binary_lab4_test_bin_size+0x3ffeff7a>
    800007bc:	de668113          	addi	x2,x13,-538
    800007c0:	3416fff3          	csrrci	x31,mepc,13
    800007c4:	400107b7          	lui	x15,0x40010
    800007c8:	00f787b3          	add	x15,x15,x15
    800007cc:	10078793          	addi	x15,x15,256 # 40010100 <_binary_lab4_test_bin_size+0x3ffefff4>
    800007d0:	f507b283          	ld	x5,-176(x15)
    800007d4:	6f12f293          	andi	x5,x5,1777
    800007d8:	400102b7          	lui	x5,0x40010
    800007dc:	005282b3          	add	x5,x5,x5
    800007e0:	10028293          	addi	x5,x5,256 # 40010100 <_binary_lab4_test_bin_size+0x3ffefff4>
    800007e4:	f302c983          	lbu	x19,-208(x5)
    800007e8:	40298cb3          	sub	x25,x19,x2
    800007ec:	40010637          	lui	x12,0x40010
    800007f0:	00c60633          	add	x12,x12,x12
    800007f4:	04c61a23          	sh	x12,84(x12) # 40010054 <_binary_lab4_test_bin_size+0x3ffeff48>
    800007f8:	695f891b          	addiw	x18,x31,1685
    800007fc:	40d5043b          	subw	x8,x10,x13
    80000800:	00b3f733          	and	x14,x7,x11
    80000804:	400104b7          	lui	x9,0x40010
    80000808:	009484b3          	add	x9,x9,x9
    8000080c:	10048493          	addi	x9,x9,256 # 40010100 <_binary_lab4_test_bin_size+0x3ffefff4>
    80000810:	fe14b423          	sd	x1,-24(x9)
    80000814:	40b08f33          	sub	x30,x1,x11
    80000818:	40010b37          	lui	x22,0x40010
    8000081c:	016b0b33          	add	x22,x22,x22
    80000820:	100b0b13          	addi	x22,x22,256 # 40010100 <_binary_lab4_test_bin_size+0x3ffefff4>
    80000824:	f02b2023          	sw	x2,-256(x22)
    80000828:	2f87fc93          	andi	x25,x15,760
    8000082c:	304ee773          	csrrsi	x14,mie,29
    80000830:	00c38733          	add	x14,x7,x12
    80000834:	40010a37          	lui	x20,0x40010
    80000838:	014a0a33          	add	x20,x20,x20
    8000083c:	100a0a13          	addi	x20,x20,256 # 40010100 <_binary_lab4_test_bin_size+0x3ffefff4>
    80000840:	ff0a6403          	lwu	x8,-16(x20)
    80000844:	019ffb33          	and	x22,x31,x25
    80000848:	e1defc13          	andi	x24,x29,-483
    8000084c:	0d5be193          	ori	x3,x23,213
    80000850:	40010837          	lui	x16,0x40010
    80000854:	01080833          	add	x16,x16,x16
    80000858:	0bf83423          	sd	x31,168(x16) # 400100a8 <_binary_lab4_test_bin_size+0x3ffeff9c>
    8000085c:	3ed6ef13          	ori	x30,x13,1005
    80000860:	304d69f3          	csrrsi	x19,mie,26
    80000864:	5b587713          	andi	x14,x16,1461
    80000868:	40010a37          	lui	x20,0x40010
    8000086c:	014a0a33          	add	x20,x20,x20
    80000870:	100a0a13          	addi	x20,x20,256 # 40010100 <_binary_lab4_test_bin_size+0x3ffefff4>
    80000874:	fc8a2103          	lw	x2,-56(x20)
    80000878:	305069f3          	csrrsi	x19,mtvec,0
    8000087c:	400103b7          	lui	x7,0x40010
    80000880:	007383b3          	add	x7,x7,x7
    80000884:	10038393          	addi	x7,x7,256 # 40010100 <_binary_lab4_test_bin_size+0x3ffefff4>
    80000888:	f4f3c483          	lbu	x9,-177(x7)
    8000088c:	400102b7          	lui	x5,0x40010
    80000890:	005282b3          	add	x5,x5,x5
    80000894:	10028293          	addi	x5,x5,256 # 40010100 <_binary_lab4_test_bin_size+0x3ffefff4>
    80000898:	f402ed03          	lwu	x26,-192(x5)
    8000089c:	9cab8d13          	addi	x26,x23,-1590
    800008a0:	527a0593          	addi	x11,x20,1319
    800008a4:	40010cb7          	lui	x25,0x40010
    800008a8:	019c8cb3          	add	x25,x25,x25
    800008ac:	100c8c93          	addi	x25,x25,256 # 40010100 <_binary_lab4_test_bin_size+0x3ffefff4>
    800008b0:	fe7c9e23          	sh	x7,-4(x25)
    800008b4:	00160db3          	add	x27,x12,x1
    800008b8:	003286bb          	addw	x13,x5,x3
    800008bc:	3438fdf3          	csrrci	x27,mtval,17
    800008c0:	40010937          	lui	x18,0x40010
    800008c4:	01290933          	add	x18,x18,x18
    800008c8:	08f90da3          	sb	x15,155(x18) # 4001009b <_binary_lab4_test_bin_size+0x3ffeff8f>
    800008cc:	40010337          	lui	x6,0x40010
    800008d0:	00630333          	add	x6,x6,x6
    800008d4:	0ac33c23          	sd	x12,184(x6) # 400100b8 <_binary_lab4_test_bin_size+0x3ffeffac>
    800008d8:	01d806bb          	addw	x13,x16,x29
    800008dc:	40010637          	lui	x12,0x40010
    800008e0:	00c60633          	add	x12,x12,x12
    800008e4:	10060613          	addi	x12,x12,256 # 40010100 <_binary_lab4_test_bin_size+0x3ffefff4>
    800008e8:	fb862c83          	lw	x25,-72(x12)
    800008ec:	004c8d3b          	addw	x26,x25,x4
    800008f0:	012e4bb3          	xor	x23,x28,x18
    800008f4:	3444edf3          	csrrsi	x27,mip,9
    800008f8:	40010137          	lui	x2,0x40010
    800008fc:	00210133          	add	x2,x2,x2
    80000900:	09b14483          	lbu	x9,155(x2) # 4001009b <_binary_lab4_test_bin_size+0x3ffeff8f>
    80000904:	6396fb13          	andi	x22,x13,1593
    80000908:	400104b7          	lui	x9,0x40010
    8000090c:	009484b3          	add	x9,x9,x9
    80000910:	10048493          	addi	x9,x9,256 # 40010100 <_binary_lab4_test_bin_size+0x3ffefff4>
    80000914:	f004af83          	lw	x31,-256(x9)
    80000918:	019d0bb3          	add	x23,x26,x25
    8000091c:	344a6e73          	csrrsi	x28,mip,20
    80000920:	40010ab7          	lui	x21,0x40010
    80000924:	015a8ab3          	add	x21,x21,x21
    80000928:	100a8a93          	addi	x21,x21,256 # 40010100 <_binary_lab4_test_bin_size+0x3ffefff4>
    8000092c:	fefa8d03          	lb	x26,-17(x21)
    80000930:	00ed0f33          	add	x30,x26,x14
    80000934:	1aa6c013          	xori	x0,x13,426
    80000938:	342962f3          	csrrsi	x5,mcause,18
    8000093c:	40010bb7          	lui	x23,0x40010
    80000940:	017b8bb3          	add	x23,x23,x23
    80000944:	100b8b93          	addi	x23,x23,256 # 40010100 <_binary_lab4_test_bin_size+0x3ffefff4>
    80000948:	fa6bd483          	lhu	x9,-90(x23)
    8000094c:	40010637          	lui	x12,0x40010
    80000950:	00c60633          	add	x12,x12,x12
    80000954:	09a62c23          	sw	x26,152(x12) # 40010098 <_binary_lab4_test_bin_size+0x3ffeff8c>
    80000958:	40010ab7          	lui	x21,0x40010
    8000095c:	015a8ab3          	add	x21,x21,x21
    80000960:	100a8a93          	addi	x21,x21,256 # 40010100 <_binary_lab4_test_bin_size+0x3ffefff4>
    80000964:	fdeadd03          	lhu	x26,-34(x21)
    80000968:	01a900bb          	addw	x1,x18,x26
    8000096c:	40f58b3b          	subw	x22,x11,x15
    80000970:	34285cf3          	csrrwi	x25,mcause,16
    80000974:	40fb0eb3          	sub	x29,x22,x15
    80000978:	0017053b          	addw	x10,x14,x1
    8000097c:	b185ea93          	ori	x21,x11,-1256
    80000980:	009eca33          	xor	x20,x29,x9
    80000984:	006bf3b3          	and	x7,x23,x6
    80000988:	00be03bb          	addw	x7,x28,x11
    8000098c:	01adf3b3          	and	x7,x27,x26
    80000990:	41d30933          	sub	x18,x6,x29
    80000994:	010967b3          	or	x15,x18,x16
    80000998:	004240b3          	xor	x1,x4,x4
    8000099c:	400101b7          	lui	x3,0x40010
    800009a0:	003181b3          	add	x3,x3,x3
    800009a4:	10018193          	addi	x3,x3,256 # 40010100 <_binary_lab4_test_bin_size+0x3ffefff4>
    800009a8:	fa7185a3          	sb	x7,-85(x3)
    800009ac:	400107b7          	lui	x15,0x40010
    800009b0:	00f787b3          	add	x15,x15,x15
    800009b4:	10078793          	addi	x15,x15,256 # 40010100 <_binary_lab4_test_bin_size+0x3ffefff4>
    800009b8:	fe47a903          	lw	x18,-28(x15)
    800009bc:	404b87bb          	subw	x15,x23,x4
    800009c0:	1b910c93          	addi	x25,x2,441
    800009c4:	00207fb3          	and	x31,x0,x2
    800009c8:	ff43e393          	ori	x7,x7,-12
    800009cc:	40010437          	lui	x8,0x40010
    800009d0:	00840433          	add	x8,x8,x8
    800009d4:	10040413          	addi	x8,x8,256 # 40010100 <_binary_lab4_test_bin_size+0x3ffefff4>
    800009d8:	fb343423          	sd	x19,-88(x8)
    800009dc:	00877133          	and	x2,x14,x8
    800009e0:	400103b7          	lui	x7,0x40010
    800009e4:	007383b3          	add	x7,x7,x7
    800009e8:	0c63aa23          	sw	x6,212(x7) # 400100d4 <_binary_lab4_test_bin_size+0x3ffeffc8>
    800009ec:	7dbc0993          	addi	x19,x24,2011
    800009f0:	40010bb7          	lui	x23,0x40010
    800009f4:	017b8bb3          	add	x23,x23,x23
    800009f8:	050bc483          	lbu	x9,80(x23) # 40010050 <_binary_lab4_test_bin_size+0x3ffeff44>
    800009fc:	41f501b3          	sub	x3,x10,x31
    80000a00:	40a287bb          	subw	x15,x5,x10
    80000a04:	40010437          	lui	x8,0x40010
    80000a08:	00840433          	add	x8,x8,x8
    80000a0c:	00841f23          	sh	x8,30(x8) # 4001001e <_binary_lab4_test_bin_size+0x3ffeff12>
    80000a10:	3439fbf3          	csrrci	x23,mtval,19
    80000a14:	40010b37          	lui	x22,0x40010
    80000a18:	016b0b33          	add	x22,x22,x22
    80000a1c:	100b0b13          	addi	x22,x22,256 # 40010100 <_binary_lab4_test_bin_size+0x3ffefff4>
    80000a20:	f0bb3c23          	sd	x11,-232(x22)
    80000a24:	40010eb7          	lui	x29,0x40010
    80000a28:	01de8eb3          	add	x29,x29,x29
    80000a2c:	100e8e93          	addi	x29,x29,256 # 40010100 <_binary_lab4_test_bin_size+0x3ffefff4>
    80000a30:	f78eaa83          	lw	x21,-136(x29)
    80000a34:	74dafd93          	andi	x27,x21,1869
    80000a38:	40010cb7          	lui	x25,0x40010
    80000a3c:	019c8cb3          	add	x25,x25,x25
    80000a40:	0fdc84a3          	sb	x29,233(x25) # 400100e9 <_binary_lab4_test_bin_size+0x3ffeffdd>
    80000a44:	400105b7          	lui	x11,0x40010
    80000a48:	00b585b3          	add	x11,x11,x11
    80000a4c:	0b85b503          	ld	x10,184(x11) # 400100b8 <_binary_lab4_test_bin_size+0x3ffeffac>
    80000a50:	01f501b3          	add	x3,x10,x31
    80000a54:	40010eb7          	lui	x29,0x40010
    80000a58:	01de8eb3          	add	x29,x29,x29
    80000a5c:	100e8e93          	addi	x29,x29,256 # 40010100 <_binary_lab4_test_bin_size+0x3ffefff4>
    80000a60:	fc3ea223          	sw	x3,-60(x29)
    80000a64:	400104b7          	lui	x9,0x40010
    80000a68:	009484b3          	add	x9,x9,x9
    80000a6c:	10048493          	addi	x9,x9,256 # 40010100 <_binary_lab4_test_bin_size+0x3ffefff4>
    80000a70:	f744e583          	lwu	x11,-140(x9)
    80000a74:	a80d7893          	andi	x17,x26,-1408
    80000a78:	88da0d93          	addi	x27,x20,-1907
    80000a7c:	002acab3          	xor	x21,x21,x2
    80000a80:	400105b7          	lui	x11,0x40010
    80000a84:	00b585b3          	add	x11,x11,x11
    80000a88:	0c35bc23          	sd	x3,216(x11) # 400100d8 <_binary_lab4_test_bin_size+0x3ffeffcc>
    80000a8c:	001180bb          	addw	x1,x3,x1
    80000a90:	40010cb7          	lui	x25,0x40010
    80000a94:	019c8cb3          	add	x25,x25,x25
    80000a98:	0ebcc603          	lbu	x12,235(x25) # 400100eb <_binary_lab4_test_bin_size+0x3ffeffdf>
    80000a9c:	a4307613          	andi	x12,x0,-1469
    80000aa0:	40010db7          	lui	x27,0x40010
    80000aa4:	01bd8db3          	add	x27,x27,x27
    80000aa8:	030de903          	lwu	x18,48(x27) # 40010030 <_binary_lab4_test_bin_size+0x3ffeff24>
    80000aac:	5d308513          	addi	x10,x1,1491
    80000ab0:	400105b7          	lui	x11,0x40010
    80000ab4:	00b585b3          	add	x11,x11,x11
    80000ab8:	10058593          	addi	x11,x11,256 # 40010100 <_binary_lab4_test_bin_size+0x3ffefff4>
    80000abc:	fde59823          	sh	x30,-48(x11)
    80000ac0:	1c6e0293          	addi	x5,x28,454
    80000ac4:	40010237          	lui	x4,0x40010
    80000ac8:	00420233          	add	x4,x4,x4
    80000acc:	0c826803          	lwu	x16,200(x4) # 400100c8 <_binary_lab4_test_bin_size+0x3ffeffbc>
    80000ad0:	2b38081b          	addiw	x16,x16,691
    80000ad4:	93e98193          	addi	x3,x19,-1730
    80000ad8:	344af2f3          	csrrci	x5,mip,21
    80000adc:	400108b7          	lui	x17,0x40010
    80000ae0:	011888b3          	add	x17,x17,x17
    80000ae4:	10088893          	addi	x17,x17,256 # 40010100 <_binary_lab4_test_bin_size+0x3ffefff4>
    80000ae8:	f6988da3          	sb	x9,-133(x17)
    80000aec:	400103b7          	lui	x7,0x40010
    80000af0:	007383b3          	add	x7,x7,x7
    80000af4:	10038393          	addi	x7,x7,256 # 40010100 <_binary_lab4_test_bin_size+0x3ffefff4>
    80000af8:	0043a023          	sw	x4,0(x7)
    80000afc:	400106b7          	lui	x13,0x40010
    80000b00:	00d686b3          	add	x13,x13,x13
    80000b04:	0a16cf83          	lbu	x31,161(x13) # 400100a1 <_binary_lab4_test_bin_size+0x3ffeff95>
    80000b08:	01f2fc33          	and	x24,x5,x31
    80000b0c:	81a47613          	andi	x12,x8,-2022
    80000b10:	4bffc993          	xori	x19,x31,1215
    80000b14:	40010ab7          	lui	x21,0x40010
    80000b18:	015a8ab3          	add	x21,x21,x21
    80000b1c:	100a8a93          	addi	x21,x21,256 # 40010100 <_binary_lab4_test_bin_size+0x3ffefff4>
    80000b20:	f4aad083          	lhu	x1,-182(x21)
    80000b24:	4011043b          	subw	x8,x2,x1
    80000b28:	400100b7          	lui	x1,0x40010
    80000b2c:	001080b3          	add	x1,x1,x1
    80000b30:	10008093          	addi	x1,x1,256 # 40010100 <_binary_lab4_test_bin_size+0x3ffefff4>
    80000b34:	fe00d483          	lhu	x9,-32(x1)
    80000b38:	40010ab7          	lui	x21,0x40010
    80000b3c:	015a8ab3          	add	x21,x21,x21
    80000b40:	100a8a93          	addi	x21,x21,256 # 40010100 <_binary_lab4_test_bin_size+0x3ffefff4>
    80000b44:	fd2a9f23          	sh	x18,-34(x21)
    80000b48:	007d46b3          	xor	x13,x26,x7
    80000b4c:	400101b7          	lui	x3,0x40010
    80000b50:	003181b3          	add	x3,x3,x3
    80000b54:	10018193          	addi	x3,x3,256 # 40010100 <_binary_lab4_test_bin_size+0x3ffefff4>
    80000b58:	fb71b423          	sd	x23,-88(x3)
    80000b5c:	fafd851b          	addiw	x10,x27,-81
    80000b60:	40010137          	lui	x2,0x40010
    80000b64:	00210133          	add	x2,x2,x2
    80000b68:	10010113          	addi	x2,x2,256 # 40010100 <_binary_lab4_test_bin_size+0x3ffefff4>
    80000b6c:	f8d13823          	sd	x13,-112(x2)
    80000b70:	a7a78a93          	addi	x21,x15,-1414
    80000b74:	400103b7          	lui	x7,0x40010
    80000b78:	007383b3          	add	x7,x7,x7
    80000b7c:	10038393          	addi	x7,x7,256 # 40010100 <_binary_lab4_test_bin_size+0x3ffefff4>
    80000b80:	fc83a983          	lw	x19,-56(x7)
    80000b84:	837d851b          	addiw	x10,x27,-1993
    80000b88:	34327973          	csrrci	x18,mtval,4
    80000b8c:	40010537          	lui	x10,0x40010
    80000b90:	00a50533          	add	x10,x10,x10
    80000b94:	10050513          	addi	x10,x10,256 # 40010100 <_binary_lab4_test_bin_size+0x3ffefff4>
    80000b98:	f7d52c23          	sw	x29,-136(x10)
    80000b9c:	00318d33          	add	x26,x3,x3
    80000ba0:	17950b9b          	addiw	x23,x10,377
    80000ba4:	0c1a011b          	addiw	x2,x20,193
    80000ba8:	304694f3          	csrrw	x9,mie,x13
    80000bac:	400108b7          	lui	x17,0x40010
    80000bb0:	011888b3          	add	x17,x17,x17
    80000bb4:	10088893          	addi	x17,x17,256 # 40010100 <_binary_lab4_test_bin_size+0x3ffefff4>
    80000bb8:	f4588b23          	sb	x5,-170(x17)
    80000bbc:	41cc07bb          	subw	x15,x24,x28
    80000bc0:	ab847693          	andi	x13,x8,-1352
    80000bc4:	8f4dcb93          	xori	x23,x27,-1804
    80000bc8:	342ef6f3          	csrrci	x13,mcause,29
    80000bcc:	343df0f3          	csrrci	x1,mtval,27
    80000bd0:	01de7c33          	and	x24,x28,x29
    80000bd4:	40010d37          	lui	x26,0x40010
    80000bd8:	01ad0d33          	add	x26,x26,x26
    80000bdc:	0c8d6f83          	lwu	x31,200(x26) # 400100c8 <_binary_lab4_test_bin_size+0x3ffeffbc>
    80000be0:	41f184b3          	sub	x9,x3,x31
    80000be4:	003fc833          	xor	x16,x31,x3
    80000be8:	015067b3          	or	x15,x0,x21
    80000bec:	40010337          	lui	x6,0x40010
    80000bf0:	00630333          	add	x6,x6,x6
    80000bf4:	10030313          	addi	x6,x6,256 # 40010100 <_binary_lab4_test_bin_size+0x3ffefff4>
    80000bf8:	f8e31823          	sh	x14,-112(x6)
    80000bfc:	40010337          	lui	x6,0x40010
    80000c00:	00630333          	add	x6,x6,x6
    80000c04:	08a31f23          	sh	x10,158(x6) # 4001009e <_binary_lab4_test_bin_size+0x3ffeff92>
    80000c08:	00da85bb          	addw	x11,x21,x13
    80000c0c:	40010a37          	lui	x20,0x40010
    80000c10:	014a0a33          	add	x20,x20,x20
    80000c14:	0aca02a3          	sb	x12,165(x20) # 400100a5 <_binary_lab4_test_bin_size+0x3ffeff99>
    80000c18:	4041883b          	subw	x16,x3,x4
    80000c1c:	305cfe73          	csrrci	x28,mtvec,25
    80000c20:	d7b64f93          	xori	x31,x12,-645
    80000c24:	0182ceb3          	xor	x29,x5,x24
    80000c28:	ba738093          	addi	x1,x7,-1113
    80000c2c:	40010d37          	lui	x26,0x40010
    80000c30:	01ad0d33          	add	x26,x26,x26
    80000c34:	100d0d13          	addi	x26,x26,256 # 40010100 <_binary_lab4_test_bin_size+0x3ffefff4>
    80000c38:	f40d0583          	lb	x11,-192(x26)
    80000c3c:	c536811b          	addiw	x2,x13,-941
    80000c40:	40010737          	lui	x14,0x40010
    80000c44:	00e70733          	add	x14,x14,x14
    80000c48:	10070713          	addi	x14,x14,256 # 40010100 <_binary_lab4_test_bin_size+0x3ffefff4>
    80000c4c:	fac75103          	lhu	x2,-84(x14)
    80000c50:	40010837          	lui	x16,0x40010
    80000c54:	01080833          	add	x16,x16,x16
    80000c58:	10080813          	addi	x16,x16,256 # 40010100 <_binary_lab4_test_bin_size+0x3ffefff4>
    80000c5c:	f7885a83          	lhu	x21,-136(x16)
    80000c60:	400103b7          	lui	x7,0x40010
    80000c64:	007383b3          	add	x7,x7,x7
    80000c68:	10038393          	addi	x7,x7,256 # 40010100 <_binary_lab4_test_bin_size+0x3ffefff4>
    80000c6c:	f5a3d083          	lhu	x1,-166(x7)
    80000c70:	66ede093          	ori	x1,x27,1646
    80000c74:	40010437          	lui	x8,0x40010
    80000c78:	00840433          	add	x8,x8,x8
    80000c7c:	0b840823          	sb	x24,176(x8) # 400100b0 <_binary_lab4_test_bin_size+0x3ffeffa4>
    80000c80:	40010637          	lui	x12,0x40010
    80000c84:	00c60633          	add	x12,x12,x12
    80000c88:	04e65283          	lhu	x5,78(x12) # 4001004e <_binary_lab4_test_bin_size+0x3ffeff42>
    80000c8c:	0073c0b3          	xor	x1,x7,x7
    80000c90:	342f56f3          	csrrwi	x13,mcause,30
    80000c94:	40010637          	lui	x12,0x40010
    80000c98:	00c60633          	add	x12,x12,x12
    80000c9c:	10060613          	addi	x12,x12,256 # 40010100 <_binary_lab4_test_bin_size+0x3ffefff4>
    80000ca0:	fd1608a3          	sb	x17,-47(x12)
    80000ca4:	40010737          	lui	x14,0x40010
    80000ca8:	00e70733          	add	x14,x14,x14
    80000cac:	10070713          	addi	x14,x14,256 # 40010100 <_binary_lab4_test_bin_size+0x3ffefff4>
    80000cb0:	fa272c23          	sw	x2,-72(x14)
    80000cb4:	400103b7          	lui	x7,0x40010
    80000cb8:	007383b3          	add	x7,x7,x7
    80000cbc:	10038393          	addi	x7,x7,256 # 40010100 <_binary_lab4_test_bin_size+0x3ffefff4>
    80000cc0:	ffd38403          	lb	x8,-3(x7)
    80000cc4:	01df8b33          	add	x22,x31,x29
    80000cc8:	3443d5f3          	csrrwi	x11,mip,7
    80000ccc:	40010337          	lui	x6,0x40010
    80000cd0:	00630333          	add	x6,x6,x6
    80000cd4:	10030313          	addi	x6,x6,256 # 40010100 <_binary_lab4_test_bin_size+0x3ffefff4>
    80000cd8:	fb132623          	sw	x17,-84(x6)
    80000cdc:	40010337          	lui	x6,0x40010
    80000ce0:	00630333          	add	x6,x6,x6
    80000ce4:	06f33823          	sd	x15,112(x6) # 40010070 <_binary_lab4_test_bin_size+0x3ffeff64>
    80000ce8:	40010cb7          	lui	x25,0x40010
    80000cec:	019c8cb3          	add	x25,x25,x25
    80000cf0:	100c8c93          	addi	x25,x25,256 # 40010100 <_binary_lab4_test_bin_size+0x3ffefff4>
    80000cf4:	fecce983          	lwu	x19,-20(x25)
    80000cf8:	00398633          	add	x12,x19,x3
    80000cfc:	79207e93          	andi	x29,x0,1938
    80000d00:	400103b7          	lui	x7,0x40010
    80000d04:	007383b3          	add	x7,x7,x7
    80000d08:	10038393          	addi	x7,x7,256 # 40010100 <_binary_lab4_test_bin_size+0x3ffefff4>
    80000d0c:	f193c003          	lbu	x0,-231(x7)
    80000d10:	40080333          	sub	x6,x16,x0
    80000d14:	f87f0a93          	addi	x21,x30,-121
    80000d18:	344c71f3          	csrrci	x3,mip,24
    80000d1c:	00daf3b3          	and	x7,x21,x13
    80000d20:	40010137          	lui	x2,0x40010
    80000d24:	00210133          	add	x2,x2,x2
    80000d28:	0d914883          	lbu	x17,217(x2) # 400100d9 <_binary_lab4_test_bin_size+0x3ffeffcd>
    80000d2c:	400100b7          	lui	x1,0x40010
    80000d30:	001080b3          	add	x1,x1,x1
    80000d34:	10008093          	addi	x1,x1,256 # 40010100 <_binary_lab4_test_bin_size+0x3ffefff4>
    80000d38:	fba0d503          	lhu	x10,-70(x1)
    80000d3c:	004d8bbb          	addw	x23,x27,x4
    80000d40:	95687c13          	andi	x24,x16,-1706
    80000d44:	40010bb7          	lui	x23,0x40010
    80000d48:	017b8bb3          	add	x23,x23,x23
    80000d4c:	046ba223          	sw	x6,68(x23) # 40010044 <_binary_lab4_test_bin_size+0x3ffeff38>
    80000d50:	41be073b          	subw	x14,x28,x27
    80000d54:	40010537          	lui	x10,0x40010
    80000d58:	00a50533          	add	x10,x10,x10
    80000d5c:	10050513          	addi	x10,x10,256 # 40010100 <_binary_lab4_test_bin_size+0x3ffefff4>
    80000d60:	fc650583          	lb	x11,-58(x10)
    80000d64:	003f7eb3          	and	x29,x30,x3
    80000d68:	403d0fbb          	subw	x31,x26,x3
    80000d6c:	30455373          	csrrwi	x6,mie,10
    80000d70:	01f345b3          	xor	x11,x6,x31
    80000d74:	417203b3          	sub	x7,x4,x23
    80000d78:	40010bb7          	lui	x23,0x40010
    80000d7c:	017b8bb3          	add	x23,x23,x23
    80000d80:	0b0bb823          	sd	x16,176(x23) # 400100b0 <_binary_lab4_test_bin_size+0x3ffeffa4>
    80000d84:	00aceeb3          	or	x29,x25,x10
    80000d88:	3d9f849b          	addiw	x9,x31,985
    80000d8c:	dc300f93          	li	x31,-573
    80000d90:	416006b3          	neg	x13,x22
    80000d94:	87fc869b          	addiw	x13,x25,-1921
    80000d98:	40010737          	lui	x14,0x40010
    80000d9c:	00e70733          	add	x14,x14,x14
    80000da0:	02e70b83          	lb	x23,46(x14) # 4001002e <_binary_lab4_test_bin_size+0x3ffeff22>
    80000da4:	304054f3          	csrrwi	x9,mie,0
    80000da8:	b3ccc993          	xori	x19,x25,-1220
    80000dac:	007a71b3          	and	x3,x20,x7
    80000db0:	3444ddf3          	csrrwi	x27,mip,9
    80000db4:	40010eb7          	lui	x29,0x40010
    80000db8:	01de8eb3          	add	x29,x29,x29
    80000dbc:	100e8e93          	addi	x29,x29,256 # 40010100 <_binary_lab4_test_bin_size+0x3ffefff4>
    80000dc0:	fd8eb083          	ld	x1,-40(x29)
    80000dc4:	00b0f0b3          	and	x1,x1,x11
    80000dc8:	001c4cb3          	xor	x25,x24,x1
    80000dcc:	00be85bb          	addw	x11,x29,x11
    80000dd0:	01228833          	add	x16,x5,x18
    80000dd4:	00000933          	add	x18,x0,x0
    80000dd8:	40010cb7          	lui	x25,0x40010
    80000ddc:	019c8cb3          	add	x25,x25,x25
    80000de0:	100c8c93          	addi	x25,x25,256 # 40010100 <_binary_lab4_test_bin_size+0x3ffefff4>
    80000de4:	f50ca203          	lw	x4,-176(x25)
    80000de8:	0c11cd93          	xori	x27,x3,193
    80000dec:	40010fb7          	lui	x31,0x40010
    80000df0:	01ff8fb3          	add	x31,x31,x31
    80000df4:	100f8f93          	addi	x31,x31,256 # 40010100 <_binary_lab4_test_bin_size+0x3ffefff4>
    80000df8:	f82fcc03          	lbu	x24,-126(x31)
    80000dfc:	41ac0233          	sub	x4,x24,x26
    80000e00:	419e86bb          	subw	x13,x29,x25
    80000e04:	40d70d33          	sub	x26,x14,x13
    80000e08:	40010c37          	lui	x24,0x40010
    80000e0c:	018c0c33          	add	x24,x24,x24
    80000e10:	02cc6b03          	lwu	x22,44(x24) # 4001002c <_binary_lab4_test_bin_size+0x3ffeff20>
    80000e14:	cc126613          	ori	x12,x4,-831
    80000e18:	400100b7          	lui	x1,0x40010
    80000e1c:	001080b3          	add	x1,x1,x1
    80000e20:	0180de03          	lhu	x28,24(x1) # 40010018 <_binary_lab4_test_bin_size+0x3ffeff0c>
    80000e24:	0049883b          	addw	x16,x19,x4
    80000e28:	01927d33          	and	x26,x4,x25
    80000e2c:	400108b7          	lui	x17,0x40010
    80000e30:	011888b3          	add	x17,x17,x17
    80000e34:	10088893          	addi	x17,x17,256 # 40010100 <_binary_lab4_test_bin_size+0x3ffefff4>
    80000e38:	f188b203          	ld	x4,-232(x17)
    80000e3c:	40010f37          	lui	x30,0x40010
    80000e40:	01ef0f33          	add	x30,x30,x30
    80000e44:	00cf1f23          	sh	x12,30(x30) # 4001001e <_binary_lab4_test_bin_size+0x3ffeff12>
    80000e48:	40010db7          	lui	x27,0x40010
    80000e4c:	01bd8db3          	add	x27,x27,x27
    80000e50:	100d8d93          	addi	x27,x27,256 # 40010100 <_binary_lab4_test_bin_size+0x3ffefff4>
    80000e54:	f5bd8023          	sb	x27,-192(x27)
    80000e58:	008089bb          	addw	x19,x1,x8
    80000e5c:	0155c5b3          	xor	x11,x11,x21
    80000e60:	40010b37          	lui	x22,0x40010
    80000e64:	016b0b33          	add	x22,x22,x22
    80000e68:	0e3b1723          	sh	x3,238(x22) # 400100ee <_binary_lab4_test_bin_size+0x3ffeffe2>
    80000e6c:	ff4ff313          	andi	x6,x31,-12
    80000e70:	400101b7          	lui	x3,0x40010
    80000e74:	003181b3          	add	x3,x3,x3
    80000e78:	02b19523          	sh	x11,42(x3) # 4001002a <_binary_lab4_test_bin_size+0x3ffeff1e>
    80000e7c:	0088e6b3          	or	x13,x17,x8
    80000e80:	01d86b33          	or	x22,x16,x29
    80000e84:	000f4333          	xor	x6,x30,x0
    80000e88:	40010937          	lui	x18,0x40010
    80000e8c:	01290933          	add	x18,x18,x18
    80000e90:	0b394183          	lbu	x3,179(x18) # 400100b3 <_binary_lab4_test_bin_size+0x3ffeffa7>
    80000e94:	0035e0b3          	or	x1,x11,x3
    80000e98:	305673f3          	csrrci	x7,mtvec,12
    80000e9c:	40010737          	lui	x14,0x40010
    80000ea0:	00e70733          	add	x14,x14,x14
    80000ea4:	10070713          	addi	x14,x14,256 # 40010100 <_binary_lab4_test_bin_size+0x3ffefff4>
    80000ea8:	f2872983          	lw	x19,-216(x14)
    80000eac:	9634029b          	addiw	x5,x8,-1693
    80000eb0:	343b7cf3          	csrrci	x25,mtval,22
    80000eb4:	3418f873          	csrrci	x16,mepc,17
    80000eb8:	3426d3f3          	csrrwi	x7,mcause,13
    80000ebc:	40010637          	lui	x12,0x40010
    80000ec0:	00c60633          	add	x12,x12,x12
    80000ec4:	10060613          	addi	x12,x12,256 # 40010100 <_binary_lab4_test_bin_size+0x3ffefff4>
    80000ec8:	f5764883          	lbu	x17,-169(x12)
    80000ecc:	00ac8ab3          	add	x21,x25,x10
    80000ed0:	40010a37          	lui	x20,0x40010
    80000ed4:	014a0a33          	add	x20,x20,x20
    80000ed8:	100a0a13          	addi	x20,x20,256 # 40010100 <_binary_lab4_test_bin_size+0x3ffefff4>
    80000edc:	f74a0b03          	lb	x22,-140(x20)
    80000ee0:	00dee2b3          	or	x5,x29,x13
    80000ee4:	400101b7          	lui	x3,0x40010
    80000ee8:	003181b3          	add	x3,x3,x3
    80000eec:	0321b423          	sd	x18,40(x3) # 40010028 <_binary_lab4_test_bin_size+0x3ffeff1c>
    80000ef0:	304d7df3          	csrrci	x27,mie,26
    80000ef4:	40010237          	lui	x4,0x40010
    80000ef8:	00420233          	add	x4,x4,x4
    80000efc:	0e522623          	sw	x5,236(x4) # 400100ec <_binary_lab4_test_bin_size+0x3ffeffe0>
    80000f00:	01f366b3          	or	x13,x6,x31
    80000f04:	00cc07bb          	addw	x15,x24,x12
    80000f08:	000b71b3          	and	x3,x22,x0
    80000f0c:	01dbe733          	or	x14,x23,x29
    80000f10:	00286b33          	or	x22,x16,x2
    80000f14:	40ec833b          	subw	x6,x25,x14
    80000f18:	344198f3          	csrrw	x17,mip,x3
    80000f1c:	40010737          	lui	x14,0x40010
    80000f20:	00e70733          	add	x14,x14,x14
    80000f24:	10070713          	addi	x14,x14,256 # 40010100 <_binary_lab4_test_bin_size+0x3ffefff4>
    80000f28:	f6572623          	sw	x5,-148(x14)
    80000f2c:	2a3be413          	ori	x8,x23,675
    80000f30:	b16c7c93          	andi	x25,x24,-1258
    80000f34:	01d085b3          	add	x11,x1,x29
    80000f38:	400104b7          	lui	x9,0x40010
    80000f3c:	009484b3          	add	x9,x9,x9
    80000f40:	0404e503          	lwu	x10,64(x9) # 40010040 <_binary_lab4_test_bin_size+0x3ffeff34>
    80000f44:	41370533          	sub	x10,x14,x19
    80000f48:	305b9773          	csrrw	x14,mtvec,x23
    80000f4c:	01967db3          	and	x27,x12,x25
    80000f50:	3692ed13          	ori	x26,x5,873
    80000f54:	304ed8f3          	csrrwi	x17,mie,29
    80000f58:	400103b7          	lui	x7,0x40010
    80000f5c:	007383b3          	add	x7,x7,x7
    80000f60:	0c03e583          	lwu	x11,192(x7) # 400100c0 <_binary_lab4_test_bin_size+0x3ffeffb4>
    80000f64:	610ce593          	ori	x11,x25,1552
    80000f68:	400100b7          	lui	x1,0x40010
    80000f6c:	001080b3          	add	x1,x1,x1
    80000f70:	10008093          	addi	x1,x1,256 # 40010100 <_binary_lab4_test_bin_size+0x3ffefff4>
    80000f74:	f5208b03          	lb	x22,-174(x1)
    80000f78:	0184fb33          	and	x22,x9,x24
    80000f7c:	01598733          	add	x14,x19,x21
    80000f80:	34307bf3          	csrrci	x23,mtval,0
    80000f84:	40010a37          	lui	x20,0x40010
    80000f88:	014a0a33          	add	x20,x20,x20
    80000f8c:	0d8a6f03          	lwu	x30,216(x20) # 400100d8 <_binary_lab4_test_bin_size+0x3ffeffcc>
    80000f90:	341a1e73          	csrrw	x28,mepc,x20
    80000f94:	41b28c33          	sub	x24,x5,x27
    80000f98:	40010837          	lui	x16,0x40010
    80000f9c:	01080833          	add	x16,x16,x16
    80000fa0:	10080813          	addi	x16,x16,256 # 40010100 <_binary_lab4_test_bin_size+0x3ffefff4>
    80000fa4:	f8b81023          	sh	x11,-128(x16)
    80000fa8:	40010137          	lui	x2,0x40010
    80000fac:	00210133          	add	x2,x2,x2
    80000fb0:	0b312823          	sw	x19,176(x2) # 400100b0 <_binary_lab4_test_bin_size+0x3ffeffa4>
    80000fb4:	400103b7          	lui	x7,0x40010
    80000fb8:	007383b3          	add	x7,x7,x7
    80000fbc:	10038393          	addi	x7,x7,256 # 40010100 <_binary_lab4_test_bin_size+0x3ffefff4>
    80000fc0:	f1c3c883          	lbu	x17,-228(x7)
    80000fc4:	01156933          	or	x18,x10,x17
    80000fc8:	00d480bb          	addw	x1,x9,x13
    80000fcc:	304d7f73          	csrrci	x30,mie,26
    80000fd0:	400106b7          	lui	x13,0x40010
    80000fd4:	00d686b3          	add	x13,x13,x13
    80000fd8:	0486bc23          	sd	x8,88(x13) # 40010058 <_binary_lab4_test_bin_size+0x3ffeff4c>
    80000fdc:	341c7a73          	csrrci	x20,mepc,24
    80000fe0:	400104b7          	lui	x9,0x40010
    80000fe4:	009484b3          	add	x9,x9,x9
    80000fe8:	0004bc03          	ld	x24,0(x9) # 40010000 <_binary_lab4_test_bin_size+0x3ffefef4>
    80000fec:	00c80c3b          	addw	x24,x16,x12
    80000ff0:	7a45e593          	ori	x11,x11,1956
    80000ff4:	3415f173          	csrrci	x2,mepc,11
    80000ff8:	400104b7          	lui	x9,0x40010
    80000ffc:	009484b3          	add	x9,x9,x9
    80001000:	10048493          	addi	x9,x9,256 # 40010100 <_binary_lab4_test_bin_size+0x3ffefff4>
    80001004:	fea4d403          	lhu	x8,-22(x9)
    80001008:	40010837          	lui	x16,0x40010
    8000100c:	01080833          	add	x16,x16,x16
    80001010:	04784403          	lbu	x8,71(x16) # 40010047 <_binary_lab4_test_bin_size+0x3ffeff3b>
    80001014:	37bae413          	ori	x8,x21,891
    80001018:	3422e873          	csrrsi	x16,mcause,5
    8000101c:	400102b7          	lui	x5,0x40010
    80001020:	005282b3          	add	x5,x5,x5
    80001024:	10028293          	addi	x5,x5,256 # 40010100 <_binary_lab4_test_bin_size+0x3ffefff4>
    80001028:	fde2d183          	lhu	x3,-34(x5)
    8000102c:	00a18f3b          	addw	x30,x3,x10
    80001030:	f9d9fb13          	andi	x22,x19,-99
    80001034:	341294f3          	csrrw	x9,mepc,x5
    80001038:	40010a37          	lui	x20,0x40010
    8000103c:	014a0a33          	add	x20,x20,x20
    80001040:	0c0a6303          	lwu	x6,192(x20) # 400100c0 <_binary_lab4_test_bin_size+0x3ffeffb4>
    80001044:	403a0333          	sub	x6,x20,x3
    80001048:	40010937          	lui	x18,0x40010
    8000104c:	01290933          	add	x18,x18,x18
    80001050:	10090913          	addi	x18,x18,256 # 40010100 <_binary_lab4_test_bin_size+0x3ffefff4>
    80001054:	f2a92c23          	sw	x10,-200(x18)
    80001058:	400105b7          	lui	x11,0x40010
    8000105c:	00b585b3          	add	x11,x11,x11
    80001060:	09059483          	lh	x9,144(x11) # 40010090 <_binary_lab4_test_bin_size+0x3ffeff84>
    80001064:	5534c493          	xori	x9,x9,1363
    80001068:	40010937          	lui	x18,0x40010
    8000106c:	01290933          	add	x18,x18,x18
    80001070:	03192a23          	sw	x17,52(x18) # 40010034 <_binary_lab4_test_bin_size+0x3ffeff28>
    80001074:	e5e8f193          	andi	x3,x17,-418
    80001078:	40010f37          	lui	x30,0x40010
    8000107c:	01ef0f33          	add	x30,x30,x30
    80001080:	100f0f13          	addi	x30,x30,256 # 40010100 <_binary_lab4_test_bin_size+0x3ffefff4>
    80001084:	fa6f0523          	sb	x6,-86(x30)
    80001088:	e21ee313          	ori	x6,x29,-479
    8000108c:	40010c37          	lui	x24,0x40010
    80001090:	018c0c33          	add	x24,x24,x24
    80001094:	100c0c13          	addi	x24,x24,256 # 40010100 <_binary_lab4_test_bin_size+0x3ffefff4>
    80001098:	f4cc5883          	lhu	x17,-180(x24)
    8000109c:	41d708bb          	subw	x17,x14,x29
    800010a0:	400107b7          	lui	x15,0x40010
    800010a4:	00f787b3          	add	x15,x15,x15
    800010a8:	10078793          	addi	x15,x15,256 # 40010100 <_binary_lab4_test_bin_size+0x3ffefff4>
    800010ac:	f6c7e983          	lwu	x19,-148(x15)
    800010b0:	ec89e993          	ori	x19,x19,-312
    800010b4:	400109b7          	lui	x19,0x40010
    800010b8:	013989b3          	add	x19,x19,x19
    800010bc:	0f09a423          	sw	x16,232(x19) # 400100e8 <_binary_lab4_test_bin_size+0x3ffeffdc>
    800010c0:	41e405bb          	subw	x11,x8,x30
    800010c4:	2d8a7693          	andi	x13,x20,728
    800010c8:	40010137          	lui	x2,0x40010
    800010cc:	00210133          	add	x2,x2,x2
    800010d0:	10010113          	addi	x2,x2,256 # 40010100 <_binary_lab4_test_bin_size+0x3ffefff4>
    800010d4:	f5416e83          	lwu	x29,-172(x2)
    800010d8:	41de893b          	subw	x18,x29,x29
    800010dc:	00c0063b          	addw	x12,x0,x12
    800010e0:	0160cbb3          	xor	x23,x1,x22
    800010e4:	40010c37          	lui	x24,0x40010
    800010e8:	018c0c33          	add	x24,x24,x24
    800010ec:	03ac5803          	lhu	x16,58(x24) # 4001003a <_binary_lab4_test_bin_size+0x3ffeff2e>
    800010f0:	822d4813          	xori	x16,x26,-2014
    800010f4:	40010437          	lui	x8,0x40010
    800010f8:	00840433          	add	x8,x8,x8
    800010fc:	08045e03          	lhu	x28,128(x8) # 40010080 <_binary_lab4_test_bin_size+0x3ffeff74>
    80001100:	00ae44b3          	xor	x9,x28,x10
    80001104:	342b17f3          	csrrw	x15,mcause,x22
    80001108:	344d5d73          	csrrwi	x26,mip,26
    8000110c:	40010737          	lui	x14,0x40010
    80001110:	00e70733          	add	x14,x14,x14
    80001114:	0ec75b83          	lhu	x23,236(x14) # 400100ec <_binary_lab4_test_bin_size+0x3ffeffe0>
    80001118:	49bb809b          	addiw	x1,x23,1179
    8000111c:	40010c37          	lui	x24,0x40010
    80001120:	018c0c33          	add	x24,x24,x24
    80001124:	0e5c4e03          	lbu	x28,229(x24) # 400100e5 <_binary_lab4_test_bin_size+0x3ffeffd9>
    80001128:	3048eef3          	csrrsi	x29,mie,17
    8000112c:	40010737          	lui	x14,0x40010
    80001130:	00e70733          	add	x14,x14,x14
    80001134:	10070713          	addi	x14,x14,256 # 40010100 <_binary_lab4_test_bin_size+0x3ffefff4>
    80001138:	f5e75f03          	lhu	x30,-162(x14)
    8000113c:	004f0abb          	addw	x21,x30,x4
    80001140:	40010d37          	lui	x26,0x40010
    80001144:	01ad0d33          	add	x26,x26,x26
    80001148:	0e8d3983          	ld	x19,232(x26) # 400100e8 <_binary_lab4_test_bin_size+0x3ffeffdc>
    8000114c:	9f326993          	ori	x19,x4,-1549
    80001150:	beeb8313          	addi	x6,x23,-1042
    80001154:	400101b7          	lui	x3,0x40010
    80001158:	003181b3          	add	x3,x3,x3
    8000115c:	10018193          	addi	x3,x3,256 # 40010100 <_binary_lab4_test_bin_size+0x3ffefff4>
    80001160:	f4f18783          	lb	x15,-177(x3)
    80001164:	f7dbe093          	ori	x1,x23,-131
    80001168:	00938733          	add	x14,x7,x9
    8000116c:	400103b7          	lui	x7,0x40010
    80001170:	007383b3          	add	x7,x7,x7
    80001174:	07339e23          	sh	x19,124(x7) # 4001007c <_binary_lab4_test_bin_size+0x3ffeff70>
    80001178:	40010cb7          	lui	x25,0x40010
    8000117c:	019c8cb3          	add	x25,x25,x25
    80001180:	100c8c93          	addi	x25,x25,256 # 40010100 <_binary_lab4_test_bin_size+0x3ffefff4>
    80001184:	fd5caa23          	sw	x21,-44(x25)
    80001188:	40010237          	lui	x4,0x40010
    8000118c:	00420233          	add	x4,x4,x4
    80001190:	10020213          	addi	x4,x4,256 # 40010100 <_binary_lab4_test_bin_size+0x3ffefff4>
    80001194:	f1d22a23          	sw	x29,-236(x4) # ffffffffffffff14 <_binary_lab4_test_bin_end+0xffffffff7ffdfe08>
    80001198:	01dacb33          	xor	x22,x21,x29
    8000119c:	40010f37          	lui	x30,0x40010
    800011a0:	01ef0f33          	add	x30,x30,x30
    800011a4:	100f0f13          	addi	x30,x30,256 # 40010100 <_binary_lab4_test_bin_size+0x3ffefff4>
    800011a8:	f50f6403          	lwu	x8,-176(x30)
    800011ac:	40010637          	lui	x12,0x40010
    800011b0:	00c60633          	add	x12,x12,x12
    800011b4:	0ea61903          	lh	x18,234(x12) # 400100ea <_binary_lab4_test_bin_size+0x3ffeffde>
    800011b8:	403e8793          	addi	x15,x29,1027
    800011bc:	8570c713          	xori	x14,x1,-1961
    800011c0:	3d23cb13          	xori	x22,x7,978
    800011c4:	40010137          	lui	x2,0x40010
    800011c8:	00210133          	add	x2,x2,x2
    800011cc:	09212623          	sw	x18,140(x2) # 4001008c <_binary_lab4_test_bin_size+0x3ffeff80>
    800011d0:	3424fc73          	csrrci	x24,mcause,9
    800011d4:	25954713          	xori	x14,x10,601
    800011d8:	40010337          	lui	x6,0x40010
    800011dc:	00630333          	add	x6,x6,x6
    800011e0:	05934183          	lbu	x3,89(x6) # 40010059 <_binary_lab4_test_bin_size+0x3ffeff4d>
    800011e4:	00800733          	add	x14,x0,x8
    800011e8:	400107b7          	lui	x15,0x40010
    800011ec:	00f787b3          	add	x15,x15,x15
    800011f0:	0607b083          	ld	x1,96(x15) # 40010060 <_binary_lab4_test_bin_size+0x3ffeff54>
    800011f4:	342b51f3          	csrrwi	x3,mcause,22
    800011f8:	40010fb7          	lui	x31,0x40010
    800011fc:	01ff8fb3          	add	x31,x31,x31
    80001200:	0b8f9b23          	sh	x24,182(x31) # 400100b6 <_binary_lab4_test_bin_size+0x3ffeffaa>
    80001204:	40010eb7          	lui	x29,0x40010
    80001208:	01de8eb3          	add	x29,x29,x29
    8000120c:	100e8e93          	addi	x29,x29,256 # 40010100 <_binary_lab4_test_bin_size+0x3ffefff4>
    80001210:	fcce9423          	sh	x12,-56(x29)
    80001214:	01b405b3          	add	x11,x8,x27
    80001218:	400102b7          	lui	x5,0x40010
    8000121c:	005282b3          	add	x5,x5,x5
    80001220:	10028293          	addi	x5,x5,256 # 40010100 <_binary_lab4_test_bin_size+0x3ffefff4>
    80001224:	ffb29823          	sh	x27,-16(x5)
    80001228:	4126853b          	subw	x10,x13,x18
    8000122c:	40010c37          	lui	x24,0x40010
    80001230:	018c0c33          	add	x24,x24,x24
    80001234:	0f0c0083          	lb	x1,240(x24) # 400100f0 <_binary_lab4_test_bin_size+0x3ffeffe4>
    80001238:	2ab06013          	ori	x0,x0,683
    8000123c:	40a88abb          	subw	x21,x17,x10
    80001240:	40010c37          	lui	x24,0x40010
    80001244:	018c0c33          	add	x24,x24,x24
    80001248:	100c0c13          	addi	x24,x24,256 # 40010100 <_binary_lab4_test_bin_size+0x3ffefff4>
    8000124c:	f54c5483          	lhu	x9,-172(x24)
    80001250:	c434e413          	ori	x8,x9,-957
    80001254:	40010137          	lui	x2,0x40010
    80001258:	00210133          	add	x2,x2,x2
    8000125c:	10010113          	addi	x2,x2,256 # 40010100 <_binary_lab4_test_bin_size+0x3ffefff4>
    80001260:	f5812a83          	lw	x21,-168(x2)
    80001264:	400103b7          	lui	x7,0x40010
    80001268:	007383b3          	add	x7,x7,x7
    8000126c:	10038393          	addi	x7,x7,256 # 40010100 <_binary_lab4_test_bin_size+0x3ffefff4>
    80001270:	fac3e483          	lwu	x9,-84(x7)
    80001274:	5cc8e513          	ori	x10,x17,1484
    80001278:	40010f37          	lui	x30,0x40010
    8000127c:	01ef0f33          	add	x30,x30,x30
    80001280:	100f0f13          	addi	x30,x30,256 # 40010100 <_binary_lab4_test_bin_size+0x3ffefff4>
    80001284:	f1cf6e83          	lwu	x29,-228(x30)
    80001288:	65eacf93          	xori	x31,x21,1630
    8000128c:	40010f37          	lui	x30,0x40010
    80001290:	01ef0f33          	add	x30,x30,x30
    80001294:	05af0e83          	lb	x29,90(x30) # 4001005a <_binary_lab4_test_bin_size+0x3ffeff4e>
    80001298:	de586613          	ori	x12,x16,-539
    8000129c:	40010f37          	lui	x30,0x40010
    800012a0:	01ef0f33          	add	x30,x30,x30
    800012a4:	100f0f13          	addi	x30,x30,256 # 40010100 <_binary_lab4_test_bin_size+0x3ffefff4>
    800012a8:	f52f2a23          	sw	x18,-172(x30)
    800012ac:	40010b37          	lui	x22,0x40010
    800012b0:	016b0b33          	add	x22,x22,x22
    800012b4:	0ecb1503          	lh	x10,236(x22) # 400100ec <_binary_lab4_test_bin_size+0x3ffeffe0>
    800012b8:	01c548b3          	xor	x17,x10,x28
    800012bc:	40010eb7          	lui	x29,0x40010
    800012c0:	01de8eb3          	add	x29,x29,x29
    800012c4:	018eb203          	ld	x4,24(x29) # 40010018 <_binary_lab4_test_bin_size+0x3ffeff0c>
    800012c8:	400101b7          	lui	x3,0x40010
    800012cc:	003181b3          	add	x3,x3,x3
    800012d0:	0fb1cb03          	lbu	x22,251(x3) # 400100fb <_binary_lab4_test_bin_size+0x3ffeffef>
    800012d4:	52be6113          	ori	x2,x28,1323
    800012d8:	014505bb          	addw	x11,x10,x20
    800012dc:	009b83bb          	addw	x7,x23,x9
    800012e0:	40010337          	lui	x6,0x40010
    800012e4:	00630333          	add	x6,x6,x6
    800012e8:	01235c83          	lhu	x25,18(x6) # 40010012 <_binary_lab4_test_bin_size+0x3ffeff06>
    800012ec:	40010937          	lui	x18,0x40010
    800012f0:	01290933          	add	x18,x18,x18
    800012f4:	03892d83          	lw	x27,56(x18) # 40010038 <_binary_lab4_test_bin_size+0x3ffeff2c>
    800012f8:	41bb0bb3          	sub	x23,x22,x27
    800012fc:	018b89bb          	addw	x19,x23,x24
    80001300:	9bd78a93          	addi	x21,x15,-1603
    80001304:	342cf573          	csrrci	x10,mcause,25
    80001308:	40010d37          	lui	x26,0x40010
    8000130c:	01ad0d33          	add	x26,x26,x26
    80001310:	080d3c83          	ld	x25,128(x26) # 40010080 <_binary_lab4_test_bin_size+0x3ffeff74>
    80001314:	341752f3          	csrrwi	x5,mepc,14
    80001318:	00230d3b          	addw	x26,x6,x2
    8000131c:	93a94493          	xori	x9,x18,-1734
    80001320:	15a6851b          	addiw	x10,x13,346
    80001324:	dea80a13          	addi	x20,x16,-534
    80001328:	400102b7          	lui	x5,0x40010
    8000132c:	005282b3          	add	x5,x5,x5
    80001330:	10028293          	addi	x5,x5,256 # 40010100 <_binary_lab4_test_bin_size+0x3ffefff4>
    80001334:	f9e2d303          	lhu	x6,-98(x5)
    80001338:	0113093b          	addw	x18,x6,x17
    8000133c:	4097043b          	subw	x8,x14,x9
    80001340:	e496ca13          	xori	x20,x13,-439
    80001344:	4125043b          	subw	x8,x10,x18
    80001348:	40f982bb          	subw	x5,x19,x15
    8000134c:	0089eeb3          	or	x29,x19,x8
    80001350:	34231173          	csrrw	x2,mcause,x6
    80001354:	00d6f833          	and	x16,x13,x13
    80001358:	40010ab7          	lui	x21,0x40010
    8000135c:	015a8ab3          	add	x21,x21,x21
    80001360:	0b0a9603          	lh	x12,176(x21) # 400100b0 <_binary_lab4_test_bin_size+0x3ffeffa4>
    80001364:	96ac039b          	addiw	x7,x24,-1686
    80001368:	341fec73          	csrrsi	x24,mepc,31
    8000136c:	3423d8f3          	csrrwi	x17,mcause,7
    80001370:	400104b7          	lui	x9,0x40010
    80001374:	009484b3          	add	x9,x9,x9
    80001378:	10048493          	addi	x9,x9,256 # 40010100 <_binary_lab4_test_bin_size+0x3ffefff4>
    8000137c:	f7749a23          	sh	x23,-140(x9)
    80001380:	89caf613          	andi	x12,x21,-1892
    80001384:	009f81bb          	addw	x3,x31,x9
    80001388:	41058e3b          	subw	x28,x11,x16
    8000138c:	413481b3          	sub	x3,x9,x19
    80001390:	40010337          	lui	x6,0x40010
    80001394:	00630333          	add	x6,x6,x6
    80001398:	10030313          	addi	x6,x6,256 # 40010100 <_binary_lab4_test_bin_size+0x3ffefff4>
    8000139c:	fa832a83          	lw	x21,-88(x6)
    800013a0:	40010e37          	lui	x28,0x40010
    800013a4:	01ce0e33          	add	x28,x28,x28
    800013a8:	100e0e13          	addi	x28,x28,256 # 40010100 <_binary_lab4_test_bin_size+0x3ffefff4>
    800013ac:	f72e5703          	lhu	x14,-142(x28)
    800013b0:	40e687bb          	subw	x15,x13,x14
    800013b4:	40010d37          	lui	x26,0x40010
    800013b8:	01ad0d33          	add	x26,x26,x26
    800013bc:	0bcd1683          	lh	x13,188(x26) # 400100bc <_binary_lab4_test_bin_size+0x3ffeffb0>
    800013c0:	400107b7          	lui	x15,0x40010
    800013c4:	00f787b3          	add	x15,x15,x15
    800013c8:	10078793          	addi	x15,x15,256 # 40010100 <_binary_lab4_test_bin_size+0x3ffefff4>
    800013cc:	f3879103          	lh	x2,-200(x15)
    800013d0:	0172811b          	addiw	x2,x5,23
    800013d4:	40010a37          	lui	x20,0x40010
    800013d8:	014a0a33          	add	x20,x20,x20
    800013dc:	0d7a2a23          	sw	x23,212(x20) # 400100d4 <_binary_lab4_test_bin_size+0x3ffeffc8>
    800013e0:	016f79b3          	and	x19,x30,x22
    800013e4:	34477213          	andi	x4,x14,836
    800013e8:	01adc1b3          	xor	x3,x27,x26
    800013ec:	41cd843b          	subw	x8,x27,x28
    800013f0:	68808893          	addi	x17,x1,1672
    800013f4:	40010937          	lui	x18,0x40010
    800013f8:	01290933          	add	x18,x18,x18
    800013fc:	02190e23          	sb	x1,60(x18) # 4001003c <_binary_lab4_test_bin_size+0x3ffeff30>
    80001400:	01388fb3          	add	x31,x17,x19
    80001404:	400107b7          	lui	x15,0x40010
    80001408:	00f787b3          	add	x15,x15,x15
    8000140c:	03d78223          	sb	x29,36(x15) # 40010024 <_binary_lab4_test_bin_size+0x3ffeff18>
    80001410:	b44d8c9b          	addiw	x25,x27,-1212
    80001414:	40010437          	lui	x8,0x40010
    80001418:	00840433          	add	x8,x8,x8
    8000141c:	10040413          	addi	x8,x8,256 # 40010100 <_binary_lab4_test_bin_size+0x3ffefff4>
    80001420:	f4846383          	lwu	x7,-184(x8)
    80001424:	40010db7          	lui	x27,0x40010
    80001428:	01bd8db3          	add	x27,x27,x27
    8000142c:	100d8d93          	addi	x27,x27,256 # 40010100 <_binary_lab4_test_bin_size+0x3ffefff4>
    80001430:	f9bd8283          	lb	x5,-101(x27)
    80001434:	0059f0b3          	and	x1,x19,x5
    80001438:	40010cb7          	lui	x25,0x40010
    8000143c:	019c8cb3          	add	x25,x25,x25
    80001440:	100c8c93          	addi	x25,x25,256 # 40010100 <_binary_lab4_test_bin_size+0x3ffefff4>
    80001444:	f93cc203          	lbu	x4,-109(x25)
    80001448:	40010237          	lui	x4,0x40010
    8000144c:	00420233          	add	x4,x4,x4
    80001450:	10020213          	addi	x4,x4,256 # 40010100 <_binary_lab4_test_bin_size+0x3ffefff4>
    80001454:	fa023883          	ld	x17,-96(x4) # ffffffffffffffa0 <_binary_lab4_test_bin_end+0xffffffff7ffdfe94>
    80001458:	00627fb3          	and	x31,x4,x6
    8000145c:	007c4cb3          	xor	x25,x24,x7
    80001460:	31280793          	addi	x15,x16,786
    80001464:	341e7cf3          	csrrci	x25,mepc,28
    80001468:	400102b7          	lui	x5,0x40010
    8000146c:	005282b3          	add	x5,x5,x5
    80001470:	0d82ee83          	lwu	x29,216(x5) # 400100d8 <_binary_lab4_test_bin_size+0x3ffeffcc>
    80001474:	40010837          	lui	x16,0x40010
    80001478:	01080833          	add	x16,x16,x16
    8000147c:	02482c83          	lw	x25,36(x16) # 40010024 <_binary_lab4_test_bin_size+0x3ffeff18>
    80001480:	400101b7          	lui	x3,0x40010
    80001484:	003181b3          	add	x3,x3,x3
    80001488:	10018193          	addi	x3,x3,256 # 40010100 <_binary_lab4_test_bin_size+0x3ffefff4>
    8000148c:	f6a18123          	sb	x10,-158(x3)
    80001490:	40010b37          	lui	x22,0x40010
    80001494:	016b0b33          	add	x22,x22,x22
    80001498:	100b0b13          	addi	x22,x22,256 # 40010100 <_binary_lab4_test_bin_size+0x3ffefff4>
    8000149c:	fe4b6403          	lwu	x8,-28(x22)
    800014a0:	40010ab7          	lui	x21,0x40010
    800014a4:	015a8ab3          	add	x21,x21,x21
    800014a8:	100a8a93          	addi	x21,x21,256 # 40010100 <_binary_lab4_test_bin_size+0x3ffefff4>
    800014ac:	f18aec03          	lwu	x24,-232(x21)
    800014b0:	46fc4613          	xori	x12,x24,1135
    800014b4:	18e64193          	xori	x3,x12,398
    800014b8:	40010737          	lui	x14,0x40010
    800014bc:	00e70733          	add	x14,x14,x14
    800014c0:	10070713          	addi	x14,x14,256 # 40010100 <_binary_lab4_test_bin_size+0x3ffefff4>
    800014c4:	f8073823          	sd	x0,-112(x14)
    800014c8:	342dd1f3          	csrrwi	x3,mcause,27
    800014cc:	40010237          	lui	x4,0x40010
    800014d0:	00420233          	add	x4,x4,x4
    800014d4:	01621083          	lh	x1,22(x4) # 40010016 <_binary_lab4_test_bin_size+0x3ffeff0a>
    800014d8:	001e6833          	or	x16,x28,x1
    800014dc:	40010ab7          	lui	x21,0x40010
    800014e0:	015a8ab3          	add	x21,x21,x21
    800014e4:	100a8a93          	addi	x21,x21,256 # 40010100 <_binary_lab4_test_bin_size+0x3ffefff4>
    800014e8:	f76a9e03          	lh	x28,-138(x21)
    800014ec:	864e0e13          	addi	x28,x28,-1948
    800014f0:	400105b7          	lui	x11,0x40010
    800014f4:	00b585b3          	add	x11,x11,x11
    800014f8:	10058593          	addi	x11,x11,256 # 40010100 <_binary_lab4_test_bin_size+0x3ffefff4>
    800014fc:	fa95ce83          	lbu	x29,-87(x11)
    80001500:	88966f13          	ori	x30,x12,-1911
    80001504:	40010fb7          	lui	x31,0x40010
    80001508:	01ff8fb3          	add	x31,x31,x31
    8000150c:	100f8f93          	addi	x31,x31,256 # 40010100 <_binary_lab4_test_bin_size+0x3ffefff4>
    80001510:	fbdf8f03          	lb	x30,-67(x31)
    80001514:	332f0f13          	addi	x30,x30,818
    80001518:	52ed0593          	addi	x11,x26,1326
    8000151c:	018b0eb3          	add	x29,x22,x24
    80001520:	342e5b73          	csrrwi	x22,mcause,28
    80001524:	41e70eb3          	sub	x29,x14,x30
    80001528:	40010a37          	lui	x20,0x40010
    8000152c:	014a0a33          	add	x20,x20,x20
    80001530:	0a0a3903          	ld	x18,160(x20) # 400100a0 <_binary_lab4_test_bin_size+0x3ffeff94>
    80001534:	01204833          	xor	x16,x0,x18
    80001538:	01e081bb          	addw	x3,x1,x30
    8000153c:	40010db7          	lui	x27,0x40010
    80001540:	01bd8db3          	add	x27,x27,x27
    80001544:	100d8d93          	addi	x27,x27,256 # 40010100 <_binary_lab4_test_bin_size+0x3ffefff4>
    80001548:	f40ddb03          	lhu	x22,-192(x27)
    8000154c:	008b0a3b          	addw	x20,x22,x8
    80001550:	5e260f93          	addi	x31,x12,1506
    80001554:	400106b7          	lui	x13,0x40010
    80001558:	00d686b3          	add	x13,x13,x13
    8000155c:	0b66d183          	lhu	x3,182(x13) # 400100b6 <_binary_lab4_test_bin_size+0x3ffeffaa>
    80001560:	237b819b          	addiw	x3,x23,567
    80001564:	00ec6c33          	or	x24,x24,x14
    80001568:	400102b7          	lui	x5,0x40010
    8000156c:	005282b3          	add	x5,x5,x5
    80001570:	10028293          	addi	x5,x5,256 # 40010100 <_binary_lab4_test_bin_size+0x3ffefff4>
    80001574:	fcf2c503          	lbu	x10,-49(x5)
    80001578:	a568831b          	addiw	x6,x17,-1450
    8000157c:	0154fa33          	and	x20,x9,x21
    80001580:	30597e73          	csrrci	x28,mtvec,18
    80001584:	40010db7          	lui	x27,0x40010
    80001588:	01bd8db3          	add	x27,x27,x27
    8000158c:	100d8d93          	addi	x27,x27,256 # 40010100 <_binary_lab4_test_bin_size+0x3ffefff4>
    80001590:	f21dbc23          	sd	x1,-200(x27)
    80001594:	34431673          	csrrw	x12,mip,x6
    80001598:	40010437          	lui	x8,0x40010
    8000159c:	00840433          	add	x8,x8,x8
    800015a0:	10040413          	addi	x8,x8,256 # 40010100 <_binary_lab4_test_bin_size+0x3ffefff4>
    800015a4:	f6142c23          	sw	x1,-136(x8)
    800015a8:	3691f793          	andi	x15,x3,873
    800015ac:	343bd373          	csrrwi	x6,mtval,23
    800015b0:	00e20d33          	add	x26,x4,x14
    800015b4:	3047d0f3          	csrrwi	x1,mie,15
    800015b8:	412e0d3b          	subw	x26,x28,x18
    800015bc:	40010fb7          	lui	x31,0x40010
    800015c0:	01ff8fb3          	add	x31,x31,x31
    800015c4:	049f8223          	sb	x9,68(x31) # 40010044 <_binary_lab4_test_bin_size+0x3ffeff38>
    800015c8:	40010437          	lui	x8,0x40010
    800015cc:	00840433          	add	x8,x8,x8
    800015d0:	01843483          	ld	x9,24(x8) # 40010018 <_binary_lab4_test_bin_size+0x3ffeff0c>
    800015d4:	78c40493          	addi	x9,x8,1932
    800015d8:	305b9a73          	csrrw	x20,mtvec,x23
    800015dc:	40010637          	lui	x12,0x40010
    800015e0:	00c60633          	add	x12,x12,x12
    800015e4:	10060613          	addi	x12,x12,256 # 40010100 <_binary_lab4_test_bin_size+0x3ffefff4>
    800015e8:	f2c61c03          	lh	x24,-212(x12)
    800015ec:	5ef04c13          	xori	x24,x0,1519
    800015f0:	0178cc33          	xor	x24,x17,x23
    800015f4:	ead8eb13          	ori	x22,x17,-339
    800015f8:	40010d37          	lui	x26,0x40010
    800015fc:	01ad0d33          	add	x26,x26,x26
    80001600:	0a8d1c83          	lh	x25,168(x26) # 400100a8 <_binary_lab4_test_bin_size+0x3ffeff9c>
    80001604:	007d4eb3          	xor	x29,x26,x7
    80001608:	503c0e93          	addi	x29,x24,1283
    8000160c:	40010537          	lui	x10,0x40010
    80001610:	00a50533          	add	x10,x10,x10
    80001614:	10050513          	addi	x10,x10,256 # 40010100 <_binary_lab4_test_bin_size+0x3ffefff4>
    80001618:	f0e51483          	lh	x9,-242(x10)
    8000161c:	d25c8d13          	addi	x26,x25,-731
    80001620:	00c3fab3          	and	x21,x7,x12
    80001624:	cc05ca93          	xori	x21,x11,-832
    80001628:	40010e37          	lui	x28,0x40010
    8000162c:	01ce0e33          	add	x28,x28,x28
    80001630:	100e0e13          	addi	x28,x28,256 # 40010100 <_binary_lab4_test_bin_size+0x3ffefff4>
    80001634:	ff9e4383          	lbu	x7,-7(x28)
    80001638:	40010837          	lui	x16,0x40010
    8000163c:	01080833          	add	x16,x16,x16
    80001640:	10080813          	addi	x16,x16,256 # 40010100 <_binary_lab4_test_bin_size+0x3ffefff4>
    80001644:	f6a81383          	lh	x7,-150(x16)
    80001648:	40010cb7          	lui	x25,0x40010
    8000164c:	019c8cb3          	add	x25,x25,x25
    80001650:	0d0ca683          	lw	x13,208(x25) # 400100d0 <_binary_lab4_test_bin_size+0x3ffeffc4>
    80001654:	00d881b3          	add	x3,x17,x13
    80001658:	fa42859b          	addiw	x11,x5,-92
    8000165c:	01986cb3          	or	x25,x16,x25
    80001660:	01438633          	add	x12,x7,x20
    80001664:	01e1f933          	and	x18,x3,x30
    80001668:	415d0333          	sub	x6,x26,x21
    8000166c:	40010db7          	lui	x27,0x40010
    80001670:	01bd8db3          	add	x27,x27,x27
    80001674:	100d8d93          	addi	x27,x27,256 # 40010100 <_binary_lab4_test_bin_size+0x3ffefff4>
    80001678:	febdae23          	sw	x11,-4(x27)
    8000167c:	40010437          	lui	x8,0x40010
    80001680:	00840433          	add	x8,x8,x8
    80001684:	10040413          	addi	x8,x8,256 # 40010100 <_binary_lab4_test_bin_size+0x3ffefff4>
    80001688:	f8043c03          	ld	x24,-128(x8)
    8000168c:	0064c2b3          	xor	x5,x9,x6
    80001690:	412b06bb          	subw	x13,x22,x18
    80001694:	0109c133          	xor	x2,x19,x16
    80001698:	01cb7eb3          	and	x29,x22,x28
    8000169c:	be9e7713          	andi	x14,x28,-1047
    800016a0:	40010b37          	lui	x22,0x40010
    800016a4:	016b0b33          	add	x22,x22,x22
    800016a8:	050b3983          	ld	x19,80(x22) # 40010050 <_binary_lab4_test_bin_size+0x3ffeff44>
    800016ac:	40010f37          	lui	x30,0x40010
    800016b0:	01ef0f33          	add	x30,x30,x30
    800016b4:	100f0f13          	addi	x30,x30,256 # 40010100 <_binary_lab4_test_bin_size+0x3ffefff4>
    800016b8:	f78f2a83          	lw	x21,-136(x30)
    800016bc:	01537cb3          	and	x25,x6,x21
    800016c0:	400107b7          	lui	x15,0x40010
    800016c4:	00f787b3          	add	x15,x15,x15
    800016c8:	07279c03          	lh	x24,114(x15) # 40010072 <_binary_lab4_test_bin_size+0x3ffeff66>
    800016cc:	40010937          	lui	x18,0x40010
    800016d0:	01290933          	add	x18,x18,x18
    800016d4:	09192a23          	sw	x17,148(x18) # 40010094 <_binary_lab4_test_bin_size+0x3ffeff88>
    800016d8:	013d71b3          	and	x3,x26,x19
    800016dc:	00eaf233          	and	x4,x21,x14
    800016e0:	40010337          	lui	x6,0x40010
    800016e4:	00630333          	add	x6,x6,x6
    800016e8:	0ac36803          	lwu	x16,172(x6) # 400100ac <_binary_lab4_test_bin_size+0x3ffeffa0>
    800016ec:	b2a84b93          	xori	x23,x16,-1238
    800016f0:	304feef3          	csrrsi	x29,mie,31
    800016f4:	400104b7          	lui	x9,0x40010
    800016f8:	009484b3          	add	x9,x9,x9
    800016fc:	10048493          	addi	x9,x9,256 # 40010100 <_binary_lab4_test_bin_size+0x3ffefff4>
    80001700:	fa84bb83          	ld	x23,-88(x9)
    80001704:	00fbec13          	ori	x24,x23,15
    80001708:	342e64f3          	csrrsi	x9,mcause,28
    8000170c:	40010ab7          	lui	x21,0x40010
    80001710:	015a8ab3          	add	x21,x21,x21
    80001714:	07baa823          	sw	x27,112(x21) # 40010070 <_binary_lab4_test_bin_size+0x3ffeff64>
    80001718:	002bedb3          	or	x27,x23,x2
    8000171c:	6de6f793          	andi	x15,x13,1758
    80001720:	341591f3          	csrrw	x3,mepc,x11
    80001724:	01a17eb3          	and	x29,x2,x26
    80001728:	3445f373          	csrrci	x6,mip,11
    8000172c:	3434f9f3          	csrrci	x19,mtval,9
    80001730:	30527373          	csrrci	x6,mtvec,4
    80001734:	0084c533          	xor	x10,x9,x8
    80001738:	40010637          	lui	x12,0x40010
    8000173c:	00c60633          	add	x12,x12,x12
    80001740:	06d63023          	sd	x13,96(x12) # 40010060 <_binary_lab4_test_bin_size+0x3ffeff54>
    80001744:	40010eb7          	lui	x29,0x40010
    80001748:	01de8eb3          	add	x29,x29,x29
    8000174c:	100e8e93          	addi	x29,x29,256 # 40010100 <_binary_lab4_test_bin_size+0x3ffefff4>
    80001750:	ff6e81a3          	sb	x22,-29(x29)
    80001754:	40010d37          	lui	x26,0x40010
    80001758:	01ad0d33          	add	x26,x26,x26
    8000175c:	100d0d13          	addi	x26,x26,256 # 40010100 <_binary_lab4_test_bin_size+0x3ffefff4>
    80001760:	f6ad1b83          	lh	x23,-150(x26)
    80001764:	bf958313          	addi	x6,x11,-1031
    80001768:	341e9bf3          	csrrw	x23,mepc,x29
    8000176c:	4091053b          	subw	x10,x2,x9
    80001770:	400109b7          	lui	x19,0x40010
    80001774:	013989b3          	add	x19,x19,x19
    80001778:	10098993          	addi	x19,x19,256 # 40010100 <_binary_lab4_test_bin_size+0x3ffefff4>
    8000177c:	f0098283          	lb	x5,-256(x19)
    80001780:	417081bb          	subw	x3,x1,x23
    80001784:	40010db7          	lui	x27,0x40010
    80001788:	01bd8db3          	add	x27,x27,x27
    8000178c:	100d8d93          	addi	x27,x27,256 # 40010100 <_binary_lab4_test_bin_size+0x3ffefff4>
    80001790:	f6bd8303          	lb	x6,-149(x27)
    80001794:	00b9c333          	xor	x6,x19,x11
    80001798:	66934693          	xori	x13,x6,1641
    8000179c:	40010837          	lui	x16,0x40010
    800017a0:	01080833          	add	x16,x16,x16
    800017a4:	10080813          	addi	x16,x16,256 # 40010100 <_binary_lab4_test_bin_size+0x3ffefff4>
    800017a8:	ff980623          	sb	x25,-20(x16)
    800017ac:	0074843b          	addw	x8,x9,x7
    800017b0:	400100b7          	lui	x1,0x40010
    800017b4:	001080b3          	add	x1,x1,x1
    800017b8:	04c0a283          	lw	x5,76(x1) # 4001004c <_binary_lab4_test_bin_size+0x3ffeff40>
    800017bc:	00b342b3          	xor	x5,x6,x11
    800017c0:	400104b7          	lui	x9,0x40010
    800017c4:	009484b3          	add	x9,x9,x9
    800017c8:	0a04a903          	lw	x18,160(x9) # 400100a0 <_binary_lab4_test_bin_size+0x3ffeff94>
    800017cc:	01597533          	and	x10,x18,x21
    800017d0:	41af0b3b          	subw	x22,x30,x26
    800017d4:	00b27f33          	and	x30,x4,x11
    800017d8:	40010cb7          	lui	x25,0x40010
    800017dc:	019c8cb3          	add	x25,x25,x25
    800017e0:	014cdf03          	lhu	x30,20(x25) # 40010014 <_binary_lab4_test_bin_size+0x3ffeff08>
    800017e4:	8f27f293          	andi	x5,x15,-1806
    800017e8:	40010637          	lui	x12,0x40010
    800017ec:	00c60633          	add	x12,x12,x12
    800017f0:	10060613          	addi	x12,x12,256 # 40010100 <_binary_lab4_test_bin_size+0x3ffefff4>
    800017f4:	f0a63023          	sd	x10,-256(x12)
    800017f8:	41748e33          	sub	x28,x9,x23
    800017fc:	400108b7          	lui	x17,0x40010
    80001800:	011888b3          	add	x17,x17,x17
    80001804:	10088893          	addi	x17,x17,256 # 40010100 <_binary_lab4_test_bin_size+0x3ffefff4>
    80001808:	f188b403          	ld	x8,-232(x17)
    8000180c:	009a843b          	addw	x8,x21,x9
    80001810:	40010637          	lui	x12,0x40010
    80001814:	00c60633          	add	x12,x12,x12
    80001818:	02261503          	lh	x10,34(x12) # 40010022 <_binary_lab4_test_bin_size+0x3ffeff16>
    8000181c:	40010237          	lui	x4,0x40010
    80001820:	00420233          	add	x4,x4,x4
    80001824:	10020213          	addi	x4,x4,256 # 40010100 <_binary_lab4_test_bin_size+0x3ffefff4>
    80001828:	fe2206a3          	sb	x2,-19(x4) # ffffffffffffffed <_binary_lab4_test_bin_end+0xffffffff7ffdfee1>
    8000182c:	400105b7          	lui	x11,0x40010
    80001830:	00b585b3          	add	x11,x11,x11
    80001834:	0585b203          	ld	x4,88(x11) # 40010058 <_binary_lab4_test_bin_size+0x3ffeff4c>
    80001838:	d6b26213          	ori	x4,x4,-661
    8000183c:	40010fb7          	lui	x31,0x40010
    80001840:	01ff8fb3          	add	x31,x31,x31
    80001844:	100f8f93          	addi	x31,x31,256 # 40010100 <_binary_lab4_test_bin_size+0x3ffefff4>
    80001848:	f08f9723          	sh	x8,-242(x31)
    8000184c:	0e9a8a1b          	addiw	x20,x21,233
    80001850:	40010637          	lui	x12,0x40010
    80001854:	00c60633          	add	x12,x12,x12
    80001858:	01d64103          	lbu	x2,29(x12) # 4001001d <_binary_lab4_test_bin_size+0x3ffeff11>
    8000185c:	01a149b3          	xor	x19,x2,x26
    80001860:	00ff02b3          	add	x5,x30,x15
    80001864:	db9e6f93          	ori	x31,x28,-583
    80001868:	01a04cb3          	xor	x25,x0,x26
    8000186c:	008d7ab3          	and	x21,x26,x8
    80001870:	897a021b          	addiw	x4,x20,-1897
    80001874:	0044813b          	addw	x2,x9,x4
    80001878:	400100b7          	lui	x1,0x40010
    8000187c:	001080b3          	add	x1,x1,x1
    80001880:	10008093          	addi	x1,x1,256 # 40010100 <_binary_lab4_test_bin_size+0x3ffefff4>
    80001884:	00008503          	lb	x10,0(x1)
    80001888:	82f3f513          	andi	x10,x7,-2001
    8000188c:	40010537          	lui	x10,0x40010
    80001890:	00a50533          	add	x10,x10,x10
    80001894:	05a55583          	lhu	x11,90(x10) # 4001005a <_binary_lab4_test_bin_size+0x3ffeff4e>
    80001898:	f7777693          	andi	x13,x14,-137
    8000189c:	40010a37          	lui	x20,0x40010
    800018a0:	014a0a33          	add	x20,x20,x20
    800018a4:	0e6a0b03          	lb	x22,230(x20) # 400100e6 <_binary_lab4_test_bin_size+0x3ffeffda>
    800018a8:	40010637          	lui	x12,0x40010
    800018ac:	00c60633          	add	x12,x12,x12
    800018b0:	10060613          	addi	x12,x12,256 # 40010100 <_binary_lab4_test_bin_size+0x3ffefff4>
    800018b4:	f9063903          	ld	x18,-112(x12)
    800018b8:	a4b78513          	addi	x10,x15,-1461
    800018bc:	40010ab7          	lui	x21,0x40010
    800018c0:	015a8ab3          	add	x21,x21,x21
    800018c4:	008aea03          	lwu	x20,8(x21) # 40010008 <_binary_lab4_test_bin_size+0x3ffefefc>
    800018c8:	012a7633          	and	x12,x20,x18
    800018cc:	40bd8233          	sub	x4,x27,x11
    800018d0:	e1c60b1b          	addiw	x22,x12,-484
    800018d4:	002e7033          	and	x0,x28,x2
    800018d8:	010985b3          	add	x11,x19,x16
    800018dc:	400109b7          	lui	x19,0x40010
    800018e0:	013989b3          	add	x19,x19,x19
    800018e4:	01398ea3          	sb	x19,29(x19) # 4001001d <_binary_lab4_test_bin_size+0x3ffeff11>
    800018e8:	400103b7          	lui	x7,0x40010
    800018ec:	007383b3          	add	x7,x7,x7
    800018f0:	0a63d883          	lhu	x17,166(x7) # 400100a6 <_binary_lab4_test_bin_size+0x3ffeff9a>
    800018f4:	00d208bb          	addw	x17,x4,x13
    800018f8:	40b28dbb          	subw	x27,x5,x11
    800018fc:	40010537          	lui	x10,0x40010
    80001900:	00a50533          	add	x10,x10,x10
    80001904:	10050513          	addi	x10,x10,256 # 40010100 <_binary_lab4_test_bin_size+0x3ffefff4>
    80001908:	f1c53c23          	sd	x28,-232(x10)
    8000190c:	40010c37          	lui	x24,0x40010
    80001910:	018c0c33          	add	x24,x24,x24
    80001914:	0d6c1f83          	lh	x31,214(x24) # 400100d6 <_binary_lab4_test_bin_size+0x3ffeffca>
    80001918:	01f60bbb          	addw	x23,x12,x31
    8000191c:	be95e413          	ori	x8,x11,-1047
    80001920:	40010537          	lui	x10,0x40010
    80001924:	00a50533          	add	x10,x10,x10
    80001928:	10050513          	addi	x10,x10,256 # 40010100 <_binary_lab4_test_bin_size+0x3ffefff4>
    8000192c:	f9c56303          	lwu	x6,-100(x10)
    80001930:	00d684b3          	add	x9,x13,x13
    80001934:	40010d37          	lui	x26,0x40010
    80001938:	01ad0d33          	add	x26,x26,x26
    8000193c:	100d0d13          	addi	x26,x26,256 # 40010100 <_binary_lab4_test_bin_size+0x3ffefff4>
    80001940:	f48d3203          	ld	x4,-184(x26)
    80001944:	8a2b0c9b          	addiw	x25,x22,-1886
    80001948:	00a667b3          	or	x15,x12,x10
    8000194c:	40010fb7          	lui	x31,0x40010
    80001950:	01ff8fb3          	add	x31,x31,x31
    80001954:	100f8f93          	addi	x31,x31,256 # 40010100 <_binary_lab4_test_bin_size+0x3ffefff4>
    80001958:	f09f8f83          	lb	x31,-247(x31)
    8000195c:	01c16233          	or	x4,x2,x28
    80001960:	40620cb3          	sub	x25,x4,x6
    80001964:	01ffc333          	xor	x6,x31,x31
    80001968:	400108b7          	lui	x17,0x40010
    8000196c:	011888b3          	add	x17,x17,x17
    80001970:	10088893          	addi	x17,x17,256 # 40010100 <_binary_lab4_test_bin_size+0x3ffefff4>
    80001974:	f208d983          	lhu	x19,-224(x17)
    80001978:	40ff8133          	sub	x2,x31,x15
    8000197c:	3425dc73          	csrrwi	x24,mcause,11
    80001980:	3420d2f3          	csrrwi	x5,mcause,1
    80001984:	c8010c13          	addi	x24,x2,-896
    80001988:	007efab3          	and	x21,x29,x7
    8000198c:	009c7d33          	and	x26,x24,x9
    80001990:	ee32c593          	xori	x11,x5,-285
    80001994:	40010cb7          	lui	x25,0x40010
    80001998:	019c8cb3          	add	x25,x25,x25
    8000199c:	09dcb023          	sd	x29,128(x25) # 40010080 <_binary_lab4_test_bin_size+0x3ffeff74>
    800019a0:	3449ea73          	csrrsi	x20,mip,19
    800019a4:	403e86bb          	subw	x13,x29,x3
    800019a8:	40010837          	lui	x16,0x40010
    800019ac:	01080833          	add	x16,x16,x16
    800019b0:	01983c23          	sd	x25,24(x16) # 40010018 <_binary_lab4_test_bin_size+0x3ffeff0c>
    800019b4:	304890f3          	csrrw	x1,mie,x17
    800019b8:	c136001b          	addiw	x0,x12,-1005
    800019bc:	400100b7          	lui	x1,0x40010
    800019c0:	001080b3          	add	x1,x1,x1
    800019c4:	10008093          	addi	x1,x1,256 # 40010100 <_binary_lab4_test_bin_size+0x3ffefff4>
    800019c8:	f520d783          	lhu	x15,-174(x1)
    800019cc:	cc176d93          	ori	x27,x14,-831
    800019d0:	400105b7          	lui	x11,0x40010
    800019d4:	00b585b3          	add	x11,x11,x11
    800019d8:	10058593          	addi	x11,x11,256 # 40010100 <_binary_lab4_test_bin_size+0x3ffefff4>
    800019dc:	fb658283          	lb	x5,-74(x11)
    800019e0:	40010437          	lui	x8,0x40010
    800019e4:	00840433          	add	x8,x8,x8
    800019e8:	10040413          	addi	x8,x8,256 # 40010100 <_binary_lab4_test_bin_size+0x3ffefff4>
    800019ec:	f4440a03          	lb	x20,-188(x8)
    800019f0:	998f8a13          	addi	x20,x31,-1640
    800019f4:	451f4f93          	xori	x31,x30,1105
    800019f8:	344975f3          	csrrci	x11,mip,18
    800019fc:	40010b37          	lui	x22,0x40010
    80001a00:	016b0b33          	add	x22,x22,x22
    80001a04:	100b0b13          	addi	x22,x22,256 # 40010100 <_binary_lab4_test_bin_size+0x3ffefff4>
    80001a08:	fe3b1e23          	sh	x3,-4(x22)
    80001a0c:	40010bb7          	lui	x23,0x40010
    80001a10:	017b8bb3          	add	x23,x23,x23
    80001a14:	100b8b93          	addi	x23,x23,256 # 40010100 <_binary_lab4_test_bin_size+0x3ffefff4>
    80001a18:	f38bb423          	sd	x24,-216(x23)
    80001a1c:	01120fb3          	add	x31,x4,x17
    80001a20:	40010637          	lui	x12,0x40010
    80001a24:	00c60633          	add	x12,x12,x12
    80001a28:	03862903          	lw	x18,56(x12) # 40010038 <_binary_lab4_test_bin_size+0x3ffeff2c>
    80001a2c:	c8bee213          	ori	x4,x29,-885
    80001a30:	400104b7          	lui	x9,0x40010
    80001a34:	009484b3          	add	x9,x9,x9
    80001a38:	0eb49623          	sh	x11,236(x9) # 400100ec <_binary_lab4_test_bin_size+0x3ffeffe0>
    80001a3c:	00d50f3b          	addw	x30,x10,x13
    80001a40:	342df4f3          	csrrci	x9,mcause,27
    80001a44:	400109b7          	lui	x19,0x40010
    80001a48:	013989b3          	add	x19,x19,x19
    80001a4c:	07a99023          	sh	x26,96(x19) # 40010060 <_binary_lab4_test_bin_size+0x3ffeff54>
    80001a50:	343ce5f3          	csrrsi	x11,mtval,25
    80001a54:	400109b7          	lui	x19,0x40010
    80001a58:	013989b3          	add	x19,x19,x19
    80001a5c:	0ec99d03          	lh	x26,236(x19) # 400100ec <_binary_lab4_test_bin_size+0x3ffeffe0>
    80001a60:	0ba1ed13          	ori	x26,x3,186
    80001a64:	3055e573          	csrrsi	x10,mtvec,11
    80001a68:	40010137          	lui	x2,0x40010
    80001a6c:	00210133          	add	x2,x2,x2
    80001a70:	10010113          	addi	x2,x2,256 # 40010100 <_binary_lab4_test_bin_size+0x3ffefff4>
    80001a74:	f4213c23          	sd	x2,-168(x2)
    80001a78:	c3e0e293          	ori	x5,x1,-962
    80001a7c:	40010e37          	lui	x28,0x40010
    80001a80:	01ce0e33          	add	x28,x28,x28
    80001a84:	0f4e0023          	sb	x20,224(x28) # 400100e0 <_binary_lab4_test_bin_size+0x3ffeffd4>
    80001a88:	ff6e0f13          	addi	x30,x28,-10
    80001a8c:	01e2fe33          	and	x28,x5,x30
    80001a90:	40010137          	lui	x2,0x40010
    80001a94:	00210133          	add	x2,x2,x2
    80001a98:	0b812c03          	lw	x24,184(x2) # 400100b8 <_binary_lab4_test_bin_size+0x3ffeffac>
    80001a9c:	400108b7          	lui	x17,0x40010
    80001aa0:	011888b3          	add	x17,x17,x17
    80001aa4:	07089e23          	sh	x16,124(x17) # 4001007c <_binary_lab4_test_bin_size+0x3ffeff70>
    80001aa8:	40cd0cb3          	sub	x25,x26,x12
    80001aac:	40010f37          	lui	x30,0x40010
    80001ab0:	01ef0f33          	add	x30,x30,x30
    80001ab4:	100f0f13          	addi	x30,x30,256 # 40010100 <_binary_lab4_test_bin_size+0x3ffefff4>
    80001ab8:	f8df0da3          	sb	x13,-101(x30)
    80001abc:	40010a37          	lui	x20,0x40010
    80001ac0:	014a0a33          	add	x20,x20,x20
    80001ac4:	060a0223          	sb	x0,100(x20) # 40010064 <_binary_lab4_test_bin_size+0x3ffeff58>
    80001ac8:	34267e73          	csrrci	x28,mcause,12
    80001acc:	400100b7          	lui	x1,0x40010
    80001ad0:	001080b3          	add	x1,x1,x1
    80001ad4:	0080b423          	sd	x8,8(x1) # 40010008 <_binary_lab4_test_bin_size+0x3ffefefc>
    80001ad8:	40010a37          	lui	x20,0x40010
    80001adc:	014a0a33          	add	x20,x20,x20
    80001ae0:	0b8a3823          	sd	x24,176(x20) # 400100b0 <_binary_lab4_test_bin_size+0x3ffeffa4>
    80001ae4:	400102b7          	lui	x5,0x40010
    80001ae8:	005282b3          	add	x5,x5,x5
    80001aec:	10028293          	addi	x5,x5,256 # 40010100 <_binary_lab4_test_bin_size+0x3ffefff4>
    80001af0:	fc42bc23          	sd	x4,-40(x5)
    80001af4:	b0b7c293          	xori	x5,x15,-1269
    80001af8:	41aa80b3          	sub	x1,x21,x26
    80001afc:	400100b7          	lui	x1,0x40010
    80001b00:	001080b3          	add	x1,x1,x1
    80001b04:	10008093          	addi	x1,x1,256 # 40010100 <_binary_lab4_test_bin_size+0x3ffefff4>
    80001b08:	fca0d103          	lhu	x2,-54(x1)
    80001b0c:	e9b5009b          	addiw	x1,x10,-357
    80001b10:	400103b7          	lui	x7,0x40010
    80001b14:	007383b3          	add	x7,x7,x7
    80001b18:	10038393          	addi	x7,x7,256 # 40010100 <_binary_lab4_test_bin_size+0x3ffefff4>
    80001b1c:	f2d3b023          	sd	x13,-224(x7)
    80001b20:	07c08c1b          	addiw	x24,x1,124
    80001b24:	e3726193          	ori	x3,x4,-457
    80001b28:	40010537          	lui	x10,0x40010
    80001b2c:	00a50533          	add	x10,x10,x10
    80001b30:	10050513          	addi	x10,x10,256 # 40010100 <_binary_lab4_test_bin_size+0x3ffefff4>
    80001b34:	f1856a03          	lwu	x20,-232(x10)
    80001b38:	41ba053b          	subw	x10,x20,x27
    80001b3c:	40010737          	lui	x14,0x40010
    80001b40:	00e70733          	add	x14,x14,x14
    80001b44:	0b072623          	sw	x16,172(x14) # 400100ac <_binary_lab4_test_bin_size+0x3ffeffa0>
    80001b48:	00f862b3          	or	x5,x16,x15
    80001b4c:	015fe9b3          	or	x19,x31,x21
    80001b50:	008fc8b3          	xor	x17,x31,x8
    80001b54:	297d8b1b          	addiw	x22,x27,663
    80001b58:	0081f1b3          	and	x3,x3,x8
    80001b5c:	40010cb7          	lui	x25,0x40010
    80001b60:	019c8cb3          	add	x25,x25,x25
    80001b64:	100c8c93          	addi	x25,x25,256 # 40010100 <_binary_lab4_test_bin_size+0x3ffefff4>
    80001b68:	ffcca223          	sw	x28,-28(x25)
    80001b6c:	41280e33          	sub	x28,x16,x18
    80001b70:	bee80d93          	addi	x27,x16,-1042
    80001b74:	001f023b          	addw	x4,x30,x1
    80001b78:	400103b7          	lui	x7,0x40010
    80001b7c:	007383b3          	add	x7,x7,x7
    80001b80:	0963c483          	lbu	x9,150(x7) # 40010096 <_binary_lab4_test_bin_size+0x3ffeff8a>
    80001b84:	9637049b          	addiw	x9,x14,-1693
    80001b88:	40010d37          	lui	x26,0x40010
    80001b8c:	01ad0d33          	add	x26,x26,x26
    80001b90:	0abd0423          	sb	x11,168(x26) # 400100a8 <_binary_lab4_test_bin_size+0x3ffeff9c>
    80001b94:	40010337          	lui	x6,0x40010
    80001b98:	00630333          	add	x6,x6,x6
    80001b9c:	0ea30523          	sb	x10,234(x6) # 400100ea <_binary_lab4_test_bin_size+0x3ffeffde>
    80001ba0:	40010737          	lui	x14,0x40010
    80001ba4:	00e70733          	add	x14,x14,x14
    80001ba8:	10070713          	addi	x14,x14,256 # 40010100 <_binary_lab4_test_bin_size+0x3ffefff4>
    80001bac:	f7071523          	sh	x16,-150(x14)
    80001bb0:	00b27c33          	and	x24,x4,x11
    80001bb4:	7830f713          	andi	x14,x1,1923
    80001bb8:	40010337          	lui	x6,0x40010
    80001bbc:	00630333          	add	x6,x6,x6
    80001bc0:	10030313          	addi	x6,x6,256 # 40010100 <_binary_lab4_test_bin_size+0x3ffefff4>
    80001bc4:	f1b32c23          	sw	x27,-232(x6)
    80001bc8:	ece86c93          	ori	x25,x16,-306
    80001bcc:	0156853b          	addw	x10,x13,x21
    80001bd0:	40010937          	lui	x18,0x40010
    80001bd4:	01290933          	add	x18,x18,x18
    80001bd8:	05893b03          	ld	x22,88(x18) # 40010058 <_binary_lab4_test_bin_size+0x3ffeff4c>
    80001bdc:	400105b7          	lui	x11,0x40010
    80001be0:	00b585b3          	add	x11,x11,x11
    80001be4:	0c05bc03          	ld	x24,192(x11) # 400100c0 <_binary_lab4_test_bin_size+0x3ffeffb4>
    80001be8:	018c0b33          	add	x22,x24,x24
    80001bec:	8da00d93          	li	x27,-1830
    80001bf0:	0163f3b3          	and	x7,x7,x22
    80001bf4:	41ae0a3b          	subw	x20,x28,x26
    80001bf8:	343519f3          	csrrw	x19,mtval,x10
    80001bfc:	304f6f73          	csrrsi	x30,mie,30
    80001c00:	00b67433          	and	x8,x12,x11
    80001c04:	63660793          	addi	x15,x12,1590
    80001c08:	40010737          	lui	x14,0x40010
    80001c0c:	00e70733          	add	x14,x14,x14
    80001c10:	10070713          	addi	x14,x14,256 # 40010100 <_binary_lab4_test_bin_size+0x3ffefff4>
    80001c14:	fda70283          	lb	x5,-38(x14)
    80001c18:	5a018d93          	addi	x27,x3,1440
    80001c1c:	f6b38313          	addi	x6,x7,-149
    80001c20:	40010237          	lui	x4,0x40010
    80001c24:	00420233          	add	x4,x4,x4
    80001c28:	01822b83          	lw	x23,24(x4) # 40010018 <_binary_lab4_test_bin_size+0x3ffeff0c>
    80001c2c:	01d9fbb3          	and	x23,x19,x29
    80001c30:	400108b7          	lui	x17,0x40010
    80001c34:	011888b3          	add	x17,x17,x17
    80001c38:	10088893          	addi	x17,x17,256 # 40010100 <_binary_lab4_test_bin_size+0x3ffefff4>
    80001c3c:	f4c88283          	lb	x5,-180(x17)
    80001c40:	0152cc33          	xor	x24,x5,x21
    80001c44:	01e386b3          	add	x13,x7,x30
    80001c48:	400107b7          	lui	x15,0x40010
    80001c4c:	00f787b3          	add	x15,x15,x15
    80001c50:	0c17ce03          	lbu	x28,193(x15) # 400100c1 <_binary_lab4_test_bin_size+0x3ffeffb5>
    80001c54:	086dc993          	xori	x19,x27,134
    80001c58:	34439d73          	csrrw	x26,mip,x7
    80001c5c:	01960ab3          	add	x21,x12,x25
    80001c60:	40010bb7          	lui	x23,0x40010
    80001c64:	017b8bb3          	add	x23,x23,x23
    80001c68:	100b8b93          	addi	x23,x23,256 # 40010100 <_binary_lab4_test_bin_size+0x3ffefff4>
    80001c6c:	facbac03          	lw	x24,-84(x23)
    80001c70:	32997c13          	andi	x24,x18,809
    80001c74:	01998433          	add	x8,x19,x25
    80001c78:	400107b7          	lui	x15,0x40010
    80001c7c:	00f787b3          	add	x15,x15,x15
    80001c80:	0907bd03          	ld	x26,144(x15) # 40010090 <_binary_lab4_test_bin_size+0x3ffeff84>
    80001c84:	40ed04bb          	subw	x9,x26,x14
    80001c88:	00e107b3          	add	x15,x2,x14
    80001c8c:	40b50a3b          	subw	x20,x10,x11
    80001c90:	400101b7          	lui	x3,0x40010
    80001c94:	003181b3          	add	x3,x3,x3
    80001c98:	06a1c383          	lbu	x7,106(x3) # 4001006a <_binary_lab4_test_bin_size+0x3ffeff5e>
    80001c9c:	30599f73          	csrrw	x30,mtvec,x19
    80001ca0:	40010cb7          	lui	x25,0x40010
    80001ca4:	019c8cb3          	add	x25,x25,x25
    80001ca8:	100c8c93          	addi	x25,x25,256 # 40010100 <_binary_lab4_test_bin_size+0x3ffefff4>
    80001cac:	f08cb183          	ld	x3,-248(x25)
    80001cb0:	00317e33          	and	x28,x2,x3
    80001cb4:	40010bb7          	lui	x23,0x40010
    80001cb8:	017b8bb3          	add	x23,x23,x23
    80001cbc:	0ebbb023          	sd	x11,224(x23) # 400100e0 <_binary_lab4_test_bin_size+0x3ffeffd4>
    80001cc0:	344a52f3          	csrrwi	x5,mip,20
    80001cc4:	40b18033          	sub	x0,x3,x11
    80001cc8:	41b30733          	sub	x14,x6,x27
    80001ccc:	410f8d33          	sub	x26,x31,x16
    80001cd0:	41488833          	sub	x16,x17,x20
    80001cd4:	40010137          	lui	x2,0x40010
    80001cd8:	00210133          	add	x2,x2,x2
    80001cdc:	08011723          	sh	x0,142(x2) # 4001008e <_binary_lab4_test_bin_size+0x3ffeff82>
    80001ce0:	3434d8f3          	csrrwi	x17,mtval,9
    80001ce4:	342f1e73          	csrrw	x28,mcause,x30
    80001ce8:	d33d8e9b          	addiw	x29,x27,-717
    80001cec:	342a92f3          	csrrw	x5,mcause,x21
    80001cf0:	30519c73          	csrrw	x24,mtvec,x3
    80001cf4:	400104b7          	lui	x9,0x40010
    80001cf8:	009484b3          	add	x9,x9,x9
    80001cfc:	10048493          	addi	x9,x9,256 # 40010100 <_binary_lab4_test_bin_size+0x3ffefff4>
    80001d00:	f084b203          	ld	x4,-248(x9)
    80001d04:	00757833          	and	x16,x10,x7
    80001d08:	906b4093          	xori	x1,x22,-1786
    80001d0c:	416c05b3          	sub	x11,x24,x22
    80001d10:	400104b7          	lui	x9,0x40010
    80001d14:	009484b3          	add	x9,x9,x9
    80001d18:	10048493          	addi	x9,x9,256 # 40010100 <_binary_lab4_test_bin_size+0x3ffefff4>
    80001d1c:	fa44dc03          	lhu	x24,-92(x9)
    80001d20:	343269f3          	csrrsi	x19,mtval,4
    80001d24:	400109b7          	lui	x19,0x40010
    80001d28:	013989b3          	add	x19,x19,x19
    80001d2c:	10098993          	addi	x19,x19,256 # 40010100 <_binary_lab4_test_bin_size+0x3ffefff4>
    80001d30:	fb99bc23          	sd	x25,-72(x19)
    80001d34:	013184bb          	addw	x9,x3,x19
    80001d38:	305462f3          	csrrsi	x5,mtvec,8
    80001d3c:	00d749b3          	xor	x19,x14,x13
    80001d40:	0110c733          	xor	x14,x1,x17
    80001d44:	40310033          	sub	x0,x2,x3
    80001d48:	40010db7          	lui	x27,0x40010
    80001d4c:	01bd8db3          	add	x27,x27,x27
    80001d50:	083dae23          	sw	x3,156(x27) # 4001009c <_binary_lab4_test_bin_size+0x3ffeff90>
    80001d54:	40010e37          	lui	x28,0x40010
    80001d58:	01ce0e33          	add	x28,x28,x28
    80001d5c:	090e3f03          	ld	x30,144(x28) # 40010090 <_binary_lab4_test_bin_size+0x3ffeff84>
    80001d60:	0024fe33          	and	x28,x9,x2
    80001d64:	018069b3          	or	x19,x0,x24
    80001d68:	400104b7          	lui	x9,0x40010
    80001d6c:	009484b3          	add	x9,x9,x9
    80001d70:	10048493          	addi	x9,x9,256 # 40010100 <_binary_lab4_test_bin_size+0x3ffefff4>
    80001d74:	fa649503          	lh	x10,-90(x9)
    80001d78:	400102b7          	lui	x5,0x40010
    80001d7c:	005282b3          	add	x5,x5,x5
    80001d80:	0302ea03          	lwu	x20,48(x5) # 40010030 <_binary_lab4_test_bin_size+0x3ffeff24>
    80001d84:	01ea0a3b          	addw	x20,x20,x30
    80001d88:	01b980bb          	addw	x1,x19,x27
    80001d8c:	40010cb7          	lui	x25,0x40010
    80001d90:	019c8cb3          	add	x25,x25,x25
    80001d94:	100c8c93          	addi	x25,x25,256 # 40010100 <_binary_lab4_test_bin_size+0x3ffefff4>
    80001d98:	f63cb423          	sd	x3,-152(x25)
    80001d9c:	30421f73          	csrrw	x30,mie,x4
    80001da0:	40010a37          	lui	x20,0x40010
    80001da4:	014a0a33          	add	x20,x20,x20
    80001da8:	06ba4603          	lbu	x12,107(x20) # 4001006b <_binary_lab4_test_bin_size+0x3ffeff5f>
    80001dac:	000e4633          	xor	x12,x28,x0
    80001db0:	e7c38593          	addi	x11,x7,-388
    80001db4:	40010d37          	lui	x26,0x40010
    80001db8:	01ad0d33          	add	x26,x26,x26
    80001dbc:	100d0d13          	addi	x26,x26,256 # 40010100 <_binary_lab4_test_bin_size+0x3ffefff4>
    80001dc0:	fe2d07a3          	sb	x2,-17(x26)
    80001dc4:	40010e37          	lui	x28,0x40010
    80001dc8:	01ce0e33          	add	x28,x28,x28
    80001dcc:	100e0e13          	addi	x28,x28,256 # 40010100 <_binary_lab4_test_bin_size+0x3ffefff4>
    80001dd0:	f70e5b83          	lhu	x23,-144(x28)
    80001dd4:	e9b60b13          	addi	x22,x12,-357
    80001dd8:	400105b7          	lui	x11,0x40010
    80001ddc:	00b585b3          	add	x11,x11,x11
    80001de0:	08459c83          	lh	x25,132(x11) # 40010084 <_binary_lab4_test_bin_size+0x3ffeff78>
    80001de4:	0107f533          	and	x10,x15,x16
    80001de8:	01b2c6b3          	xor	x13,x5,x27
    80001dec:	40010bb7          	lui	x23,0x40010
    80001df0:	017b8bb3          	add	x23,x23,x23
    80001df4:	100b8b93          	addi	x23,x23,256 # 40010100 <_binary_lab4_test_bin_size+0x3ffefff4>
    80001df8:	f34ba683          	lw	x13,-204(x23)
    80001dfc:	9eb6e693          	ori	x13,x13,-1557
    80001e00:	89466a13          	ori	x20,x12,-1900
    80001e04:	ba91e693          	ori	x13,x3,-1111
    80001e08:	00de46b3          	xor	x13,x28,x13
    80001e0c:	342a50f3          	csrrwi	x1,mcause,20
    80001e10:	40010737          	lui	x14,0x40010
    80001e14:	00e70733          	add	x14,x14,x14
    80001e18:	0fc72a83          	lw	x21,252(x14) # 400100fc <_binary_lab4_test_bin_size+0x3ffefff0>
    80001e1c:	b7b3079b          	addiw	x15,x6,-1157
    80001e20:	400100b7          	lui	x1,0x40010
    80001e24:	001080b3          	add	x1,x1,x1
    80001e28:	10008093          	addi	x1,x1,256 # 40010100 <_binary_lab4_test_bin_size+0x3ffefff4>
    80001e2c:	fb50ce03          	lbu	x28,-75(x1)
    80001e30:	67106813          	ori	x16,x0,1649
    80001e34:	40010db7          	lui	x27,0x40010
    80001e38:	01bd8db3          	add	x27,x27,x27
    80001e3c:	05ed8423          	sb	x30,72(x27) # 40010048 <_binary_lab4_test_bin_size+0x3ffeff3c>
    80001e40:	343c61f3          	csrrsi	x3,mtval,24
    80001e44:	40b08bbb          	subw	x23,x1,x11
    80001e48:	400106b7          	lui	x13,0x40010
    80001e4c:	00d686b3          	add	x13,x13,x13
    80001e50:	0b16c383          	lbu	x7,177(x13) # 400100b1 <_binary_lab4_test_bin_size+0x3ffeffa5>
    80001e54:	0102f3b3          	and	x7,x5,x16
    80001e58:	400107b7          	lui	x15,0x40010
    80001e5c:	00f787b3          	add	x15,x15,x15
    80001e60:	10078793          	addi	x15,x15,256 # 40010100 <_binary_lab4_test_bin_size+0x3ffefff4>
    80001e64:	f1f7b023          	sd	x31,-256(x15)
    80001e68:	79e1071b          	addiw	x14,x2,1950
    80001e6c:	400105b7          	lui	x11,0x40010
    80001e70:	00b585b3          	add	x11,x11,x11
    80001e74:	03c59923          	sh	x28,50(x11) # 40010032 <_binary_lab4_test_bin_size+0x3ffeff26>
    80001e78:	01834ab3          	xor	x21,x6,x24
    80001e7c:	30425a73          	csrrwi	x20,mie,4
    80001e80:	40010537          	lui	x10,0x40010
    80001e84:	00a50533          	add	x10,x10,x10
    80001e88:	10050513          	addi	x10,x10,256 # 40010100 <_binary_lab4_test_bin_size+0x3ffefff4>
    80001e8c:	fc052903          	lw	x18,-64(x10)
    80001e90:	1e30091b          	addiw	x18,x0,483
    80001e94:	018e6633          	or	x12,x28,x24
    80001e98:	40010a37          	lui	x20,0x40010
    80001e9c:	014a0a33          	add	x20,x20,x20
    80001ea0:	088a3f83          	ld	x31,136(x20) # 40010088 <_binary_lab4_test_bin_size+0x3ffeff7c>
    80001ea4:	40010e37          	lui	x28,0x40010
    80001ea8:	01ce0e33          	add	x28,x28,x28
    80001eac:	0c9e0583          	lb	x11,201(x28) # 400100c9 <_binary_lab4_test_bin_size+0x3ffeffbd>
    80001eb0:	ea53059b          	addiw	x11,x6,-347
    80001eb4:	0037023b          	addw	x4,x14,x3
    80001eb8:	30559373          	csrrw	x6,mtvec,x11
    80001ebc:	40010db7          	lui	x27,0x40010
    80001ec0:	01bd8db3          	add	x27,x27,x27
    80001ec4:	100d8d93          	addi	x27,x27,256 # 40010100 <_binary_lab4_test_bin_size+0x3ffefff4>
    80001ec8:	fe2dd003          	lhu	x0,-30(x27)
    80001ecc:	4078093b          	subw	x18,x16,x7
    80001ed0:	5296fc93          	andi	x25,x13,1321
    80001ed4:	01c77db3          	and	x27,x14,x28
    80001ed8:	40fb8133          	sub	x2,x23,x15
    80001edc:	dcfc8613          	addi	x12,x25,-561
    80001ee0:	2ed06613          	ori	x12,x0,749
    80001ee4:	40e08e33          	sub	x28,x1,x14
    80001ee8:	30579673          	csrrw	x12,mtvec,x15
    80001eec:	4096063b          	subw	x12,x12,x9
    80001ef0:	0162c833          	xor	x16,x5,x22
    80001ef4:	b2f2f593          	andi	x11,x5,-1233
    80001ef8:	01767eb3          	and	x29,x12,x23
    80001efc:	400106b7          	lui	x13,0x40010
    80001f00:	00d686b3          	add	x13,x13,x13
    80001f04:	0e26b823          	sd	x2,240(x13) # 400100f0 <_binary_lab4_test_bin_size+0x3ffeffe4>
    80001f08:	01580fbb          	addw	x31,x16,x21
    80001f0c:	9994c713          	xori	x14,x9,-1639
    80001f10:	40010337          	lui	x6,0x40010
    80001f14:	00630333          	add	x6,x6,x6
    80001f18:	10030313          	addi	x6,x6,256 # 40010100 <_binary_lab4_test_bin_size+0x3ffefff4>
    80001f1c:	f8d32423          	sw	x13,-120(x6)
    80001f20:	40010fb7          	lui	x31,0x40010
    80001f24:	01ff8fb3          	add	x31,x31,x31
    80001f28:	100f8f93          	addi	x31,x31,256 # 40010100 <_binary_lab4_test_bin_size+0x3ffefff4>
    80001f2c:	f7cfe103          	lwu	x2,-132(x31)
    80001f30:	40010437          	lui	x8,0x40010
    80001f34:	00840433          	add	x8,x8,x8
    80001f38:	10040413          	addi	x8,x8,256 # 40010100 <_binary_lab4_test_bin_size+0x3ffefff4>
    80001f3c:	f0040a23          	sb	x0,-236(x8)
    80001f40:	13610093          	addi	x1,x2,310
    80001f44:	400101b7          	lui	x3,0x40010
    80001f48:	003181b3          	add	x3,x3,x3
    80001f4c:	0141d483          	lhu	x9,20(x3) # 40010014 <_binary_lab4_test_bin_size+0x3ffeff08>
    80001f50:	40010137          	lui	x2,0x40010
    80001f54:	00210133          	add	x2,x2,x2
    80001f58:	10010113          	addi	x2,x2,256 # 40010100 <_binary_lab4_test_bin_size+0x3ffefff4>
    80001f5c:	f1e107a3          	sb	x30,-241(x2)
    80001f60:	40010ab7          	lui	x21,0x40010
    80001f64:	015a8ab3          	add	x21,x21,x21
    80001f68:	100a8a93          	addi	x21,x21,256 # 40010100 <_binary_lab4_test_bin_size+0x3ffefff4>
    80001f6c:	f70ac983          	lbu	x19,-144(x21)
    80001f70:	013982b3          	add	x5,x19,x19
    80001f74:	40010437          	lui	x8,0x40010
    80001f78:	00840433          	add	x8,x8,x8
    80001f7c:	10040413          	addi	x8,x8,256 # 40010100 <_binary_lab4_test_bin_size+0x3ffefff4>
    80001f80:	f6046e83          	lwu	x29,-160(x8)
    80001f84:	41de8933          	sub	x18,x29,x29
    80001f88:	40010b37          	lui	x22,0x40010
    80001f8c:	016b0b33          	add	x22,x22,x22
    80001f90:	100b0b13          	addi	x22,x22,256 # 40010100 <_binary_lab4_test_bin_size+0x3ffefff4>
    80001f94:	f5eb5a83          	lhu	x21,-162(x22)
    80001f98:	408c09b3          	sub	x19,x24,x8
    80001f9c:	40148cbb          	subw	x25,x9,x1
    80001fa0:	40010537          	lui	x10,0x40010
    80001fa4:	00a50533          	add	x10,x10,x10
    80001fa8:	10050513          	addi	x10,x10,256 # 40010100 <_binary_lab4_test_bin_size+0x3ffefff4>
    80001fac:	f4e51503          	lh	x10,-178(x10)
    80001fb0:	00108f33          	add	x30,x1,x1
    80001fb4:	00777db3          	and	x27,x14,x7
    80001fb8:	30491573          	csrrw	x10,mie,x18
    80001fbc:	60530d9b          	addiw	x27,x6,1541
    80001fc0:	40010fb7          	lui	x31,0x40010
    80001fc4:	01ff8fb3          	add	x31,x31,x31
    80001fc8:	0e8fb803          	ld	x16,232(x31) # 400100e8 <_binary_lab4_test_bin_size+0x3ffeffdc>
    80001fcc:	01030dbb          	addw	x27,x6,x16
    80001fd0:	304476f3          	csrrci	x13,mie,8
    80001fd4:	34499af3          	csrrw	x21,mip,x19
    80001fd8:	d8966813          	ori	x16,x12,-631
    80001fdc:	40010cb7          	lui	x25,0x40010
    80001fe0:	019c8cb3          	add	x25,x25,x25
    80001fe4:	100c8c93          	addi	x25,x25,256 # 40010100 <_binary_lab4_test_bin_size+0x3ffefff4>
    80001fe8:	f90cb503          	ld	x10,-112(x25)
    80001fec:	400107b7          	lui	x15,0x40010
    80001ff0:	00f787b3          	add	x15,x15,x15
    80001ff4:	10078793          	addi	x15,x15,256 # 40010100 <_binary_lab4_test_bin_size+0x3ffefff4>
    80001ff8:	ff97a223          	sw	x25,-28(x15)
    80001ffc:	343be6f3          	csrrsi	x13,mtval,23
    80002000:	03f0859b          	addiw	x11,x1,63
    80002004:	00470433          	add	x8,x14,x4
    80002008:	00afe0b3          	or	x1,x31,x10
    8000200c:	3414fc73          	csrrci	x24,mepc,9
    80002010:	006e053b          	addw	x10,x28,x6
    80002014:	400107b7          	lui	x15,0x40010
    80002018:	00f787b3          	add	x15,x15,x15
    8000201c:	0017b423          	sd	x1,8(x15) # 40010008 <_binary_lab4_test_bin_size+0x3ffefefc>
    80002020:	c9116713          	ori	x14,x2,-879
    80002024:	280b8a13          	addi	x20,x23,640
    80002028:	4003843b          	subw	x8,x7,x0
    8000202c:	014f7d33          	and	x26,x30,x20
    80002030:	016e80bb          	addw	x1,x29,x22
    80002034:	40010ab7          	lui	x21,0x40010
    80002038:	015a8ab3          	add	x21,x21,x21
    8000203c:	050abe03          	ld	x28,80(x21) # 40010050 <_binary_lab4_test_bin_size+0x3ffeff44>
    80002040:	01c7ea33          	or	x20,x15,x28
    80002044:	3045fdf3          	csrrci	x27,mie,11
    80002048:	418f0233          	sub	x4,x30,x24
    8000204c:	40010f37          	lui	x30,0x40010
    80002050:	01ef0f33          	add	x30,x30,x30
    80002054:	100f0f13          	addi	x30,x30,256 # 40010100 <_binary_lab4_test_bin_size+0x3ffefff4>
    80002058:	fd0f1d23          	sh	x16,-38(x30)
    8000205c:	00100433          	add	x8,x0,x1
    80002060:	d625019b          	addiw	x3,x10,-670
    80002064:	400108b7          	lui	x17,0x40010
    80002068:	011888b3          	add	x17,x17,x17
    8000206c:	0168ac23          	sw	x22,24(x17) # 40010018 <_binary_lab4_test_bin_size+0x3ffeff0c>
    80002070:	83bd8313          	addi	x6,x27,-1989
    80002074:	01b0cb33          	xor	x22,x1,x27
    80002078:	85c8079b          	addiw	x15,x16,-1956
    8000207c:	00e840b3          	xor	x1,x16,x14
    80002080:	47877793          	andi	x15,x14,1144
    80002084:	0dca021b          	addiw	x4,x20,220
    80002088:	400107b7          	lui	x15,0x40010
    8000208c:	00f787b3          	add	x15,x15,x15
    80002090:	03f7c003          	lbu	x0,63(x15) # 4001003f <_binary_lab4_test_bin_size+0x3ffeff33>
    80002094:	000644b3          	xor	x9,x12,x0
    80002098:	40f10633          	sub	x12,x2,x15
    8000209c:	40010eb7          	lui	x29,0x40010
    800020a0:	01de8eb3          	add	x29,x29,x29
    800020a4:	100e8e93          	addi	x29,x29,256 # 40010100 <_binary_lab4_test_bin_size+0x3ffefff4>
    800020a8:	f98edf03          	lhu	x30,-104(x29)
    800020ac:	014263b3          	or	x7,x4,x20
    800020b0:	400102b7          	lui	x5,0x40010
    800020b4:	005282b3          	add	x5,x5,x5
    800020b8:	10028293          	addi	x5,x5,256 # 40010100 <_binary_lab4_test_bin_size+0x3ffefff4>
    800020bc:	fe528403          	lb	x8,-27(x5)
    800020c0:	01f40ab3          	add	x21,x8,x31
    800020c4:	3046fbf3          	csrrci	x23,mie,13
    800020c8:	40010237          	lui	x4,0x40010
    800020cc:	00420233          	add	x4,x4,x4
    800020d0:	10020213          	addi	x4,x4,256 # 40010100 <_binary_lab4_test_bin_size+0x3ffefff4>
    800020d4:	f9320523          	sb	x19,-118(x4) # ffffffffffffff8a <_binary_lab4_test_bin_end+0xffffffff7ffdfe7e>
    800020d8:	400106b7          	lui	x13,0x40010
    800020dc:	00d686b3          	add	x13,x13,x13
    800020e0:	09668083          	lb	x1,150(x13) # 40010096 <_binary_lab4_test_bin_size+0x3ffeff8a>
    800020e4:	7ae6c613          	xori	x12,x13,1966
    800020e8:	3444d7f3          	csrrwi	x15,mip,9
    800020ec:	40010fb7          	lui	x31,0x40010
    800020f0:	01ff8fb3          	add	x31,x31,x31
    800020f4:	100f8f93          	addi	x31,x31,256 # 40010100 <_binary_lab4_test_bin_size+0x3ffefff4>
    800020f8:	f52fb823          	sd	x18,-176(x31)
    800020fc:	341e15f3          	csrrw	x11,mepc,x28
    80002100:	40010b37          	lui	x22,0x40010
    80002104:	016b0b33          	add	x22,x22,x22
    80002108:	038b3d83          	ld	x27,56(x22) # 40010038 <_binary_lab4_test_bin_size+0x3ffeff2c>
    8000210c:	400108b7          	lui	x17,0x40010
    80002110:	011888b3          	add	x17,x17,x17
    80002114:	0928d803          	lhu	x16,146(x17) # 40010092 <_binary_lab4_test_bin_size+0x3ffeff86>
    80002118:	890bf013          	andi	x0,x23,-1904
    8000211c:	889e061b          	addiw	x12,x28,-1911
    80002120:	40010637          	lui	x12,0x40010
    80002124:	00c60633          	add	x12,x12,x12
    80002128:	0a762823          	sw	x7,176(x12) # 400100b0 <_binary_lab4_test_bin_size+0x3ffeffa4>
    8000212c:	41818bb3          	sub	x23,x3,x24
    80002130:	93474c13          	xori	x24,x14,-1740
    80002134:	01b160b3          	or	x1,x2,x27
    80002138:	40010db7          	lui	x27,0x40010
    8000213c:	01bd8db3          	add	x27,x27,x27
    80002140:	100d8d93          	addi	x27,x27,256 # 40010100 <_binary_lab4_test_bin_size+0x3ffefff4>
    80002144:	f2add583          	lhu	x11,-214(x27)
    80002148:	000045b3          	xor	x11,x0,x0
    8000214c:	00660eb3          	add	x29,x12,x6
    80002150:	344b52f3          	csrrwi	x5,mip,22
    80002154:	400107b7          	lui	x15,0x40010
    80002158:	00f787b3          	add	x15,x15,x15
    8000215c:	08578203          	lb	x4,133(x15) # 40010085 <_binary_lab4_test_bin_size+0x3ffeff79>
    80002160:	8afaef13          	ori	x30,x21,-1873
    80002164:	342d6073          	csrsi	mcause,26
    80002168:	14f26d93          	ori	x27,x4,335
    8000216c:	40010ab7          	lui	x21,0x40010
    80002170:	015a8ab3          	add	x21,x21,x21
    80002174:	0eeade03          	lhu	x28,238(x21) # 400100ee <_binary_lab4_test_bin_size+0x3ffeffe2>
    80002178:	344c19f3          	csrrw	x19,mip,x24
    8000217c:	40010db7          	lui	x27,0x40010
    80002180:	01bd8db3          	add	x27,x27,x27
    80002184:	100d8d93          	addi	x27,x27,256 # 40010100 <_binary_lab4_test_bin_size+0x3ffefff4>
    80002188:	fd5d8203          	lb	x4,-43(x27)
    8000218c:	40010d37          	lui	x26,0x40010
    80002190:	01ad0d33          	add	x26,x26,x26
    80002194:	100d0d13          	addi	x26,x26,256 # 40010100 <_binary_lab4_test_bin_size+0x3ffefff4>
    80002198:	fccd6083          	lwu	x1,-52(x26)
    8000219c:	001beeb3          	or	x29,x23,x1
    800021a0:	40010237          	lui	x4,0x40010
    800021a4:	00420233          	add	x4,x4,x4
    800021a8:	10020213          	addi	x4,x4,256 # 40010100 <_binary_lab4_test_bin_size+0x3ffefff4>
    800021ac:	fee25803          	lhu	x16,-18(x4) # ffffffffffffffee <_binary_lab4_test_bin_end+0xffffffff7ffdfee2>
    800021b0:	ac7b8c93          	addi	x25,x23,-1337
    800021b4:	e5538e93          	addi	x29,x7,-427
    800021b8:	40010d37          	lui	x26,0x40010
    800021bc:	01ad0d33          	add	x26,x26,x26
    800021c0:	100d0d13          	addi	x26,x26,256 # 40010100 <_binary_lab4_test_bin_size+0x3ffefff4>
    800021c4:	f58d3603          	ld	x12,-168(x26)
    800021c8:	40af043b          	subw	x8,x30,x10
    800021cc:	406f0e33          	sub	x28,x30,x6
    800021d0:	0f738693          	addi	x13,x7,247
    800021d4:	00f98333          	add	x6,x19,x15
    800021d8:	00f1883b          	addw	x16,x3,x15
    800021dc:	40010cb7          	lui	x25,0x40010
    800021e0:	019c8cb3          	add	x25,x25,x25
    800021e4:	100c8c93          	addi	x25,x25,256 # 40010100 <_binary_lab4_test_bin_size+0x3ffefff4>
    800021e8:	fc8c9f83          	lh	x31,-56(x25)
    800021ec:	41f40533          	sub	x10,x8,x31
    800021f0:	40d50933          	sub	x18,x10,x13
    800021f4:	4971809b          	addiw	x1,x3,1175
    800021f8:	53c00e9b          	addiw	x29,x0,1340
    800021fc:	40010d37          	lui	x26,0x40010
    80002200:	01ad0d33          	add	x26,x26,x26
    80002204:	100d0d13          	addi	x26,x26,256 # 40010100 <_binary_lab4_test_bin_size+0x3ffefff4>
    80002208:	fe4d2423          	sw	x4,-24(x26)
    8000220c:	400104b7          	lui	x9,0x40010
    80002210:	009484b3          	add	x9,x9,x9
    80002214:	0c64b023          	sd	x6,192(x9) # 400100c0 <_binary_lab4_test_bin_size+0x3ffeffb4>
    80002218:	0eaf7493          	andi	x9,x30,234
    8000221c:	40010db7          	lui	x27,0x40010
    80002220:	01bd8db3          	add	x27,x27,x27
    80002224:	100d8d93          	addi	x27,x27,256 # 40010100 <_binary_lab4_test_bin_size+0x3ffefff4>
    80002228:	f23d8b23          	sb	x3,-202(x27)
    8000222c:	0190e1b3          	or	x3,x1,x25
    80002230:	29d38093          	addi	x1,x7,669
    80002234:	bf828093          	addi	x1,x5,-1032
    80002238:	c4020a1b          	addiw	x20,x4,-960 # fffffffffffffc40 <_binary_lab4_test_bin_end+0xffffffff7ffdfb34>
    8000223c:	40010eb7          	lui	x29,0x40010
    80002240:	01de8eb3          	add	x29,x29,x29
    80002244:	100e8e93          	addi	x29,x29,256 # 40010100 <_binary_lab4_test_bin_size+0x3ffefff4>
    80002248:	f2de81a3          	sb	x13,-221(x29)
    8000224c:	5db94313          	xori	x6,x18,1499
    80002250:	400104b7          	lui	x9,0x40010
    80002254:	009484b3          	add	x9,x9,x9
    80002258:	0504d283          	lhu	x5,80(x9) # 40010050 <_binary_lab4_test_bin_size+0x3ffeff44>
    8000225c:	40010c37          	lui	x24,0x40010
    80002260:	018c0c33          	add	x24,x24,x24
    80002264:	100c0c13          	addi	x24,x24,256 # 40010100 <_binary_lab4_test_bin_size+0x3ffefff4>
    80002268:	fdfc3023          	sd	x31,-64(x24)
    8000226c:	30526473          	csrrsi	x8,mtvec,4
    80002270:	400108b7          	lui	x17,0x40010
    80002274:	011888b3          	add	x17,x17,x17
    80002278:	10088893          	addi	x17,x17,256 # 40010100 <_binary_lab4_test_bin_size+0x3ffefff4>
    8000227c:	f108e383          	lwu	x7,-240(x17)
    80002280:	00db0e33          	add	x28,x22,x13
    80002284:	40010837          	lui	x16,0x40010
    80002288:	01080833          	add	x16,x16,x16
    8000228c:	0c882b03          	lw	x22,200(x16) # 400100c8 <_binary_lab4_test_bin_size+0x3ffeffbc>
    80002290:	016e02bb          	addw	x5,x28,x22
    80002294:	cb448e9b          	addiw	x29,x9,-844
    80002298:	c2b77b13          	andi	x22,x14,-981
    8000229c:	018a6c33          	or	x24,x20,x24
    800022a0:	015f093b          	addw	x18,x30,x21
    800022a4:	008f0dbb          	addw	x27,x30,x8
    800022a8:	342a7473          	csrrci	x8,mcause,20
    800022ac:	40010f37          	lui	x30,0x40010
    800022b0:	01ef0f33          	add	x30,x30,x30
    800022b4:	100f0f13          	addi	x30,x30,256 # 40010100 <_binary_lab4_test_bin_size+0x3ffefff4>
    800022b8:	fddf3423          	sd	x29,-56(x30)
    800022bc:	400106b7          	lui	x13,0x40010
    800022c0:	00d686b3          	add	x13,x13,x13
    800022c4:	0336bc23          	sd	x19,56(x13) # 40010038 <_binary_lab4_test_bin_size+0x3ffeff2c>
    800022c8:	0042f133          	and	x2,x5,x4
    800022cc:	344190f3          	csrrw	x1,mip,x3
    800022d0:	34355873          	csrrwi	x16,mtval,10
    800022d4:	702c8c93          	addi	x25,x25,1794
    800022d8:	0039eeb3          	or	x29,x19,x3
    800022dc:	3420ed73          	csrrsi	x26,mcause,1
    800022e0:	41318fb3          	sub	x31,x3,x19
    800022e4:	400105b7          	lui	x11,0x40010
    800022e8:	00b585b3          	add	x11,x11,x11
    800022ec:	10058593          	addi	x11,x11,256 # 40010100 <_binary_lab4_test_bin_size+0x3ffefff4>
    800022f0:	f595bc23          	sd	x25,-168(x11)
    800022f4:	40ef803b          	subw	x0,x31,x14
    800022f8:	40010637          	lui	x12,0x40010
    800022fc:	00c60633          	add	x12,x12,x12
    80002300:	08061c23          	sh	x0,152(x12) # 40010098 <_binary_lab4_test_bin_size+0x3ffeff8c>
    80002304:	011070b3          	and	x1,x0,x17
    80002308:	40010837          	lui	x16,0x40010
    8000230c:	01080833          	add	x16,x16,x16
    80002310:	10080813          	addi	x16,x16,256 # 40010100 <_binary_lab4_test_bin_size+0x3ffefff4>
    80002314:	fde81583          	lh	x11,-34(x16)
    80002318:	01f58cbb          	addw	x25,x11,x31
    8000231c:	400102b7          	lui	x5,0x40010
    80002320:	005282b3          	add	x5,x5,x5
    80002324:	01a283a3          	sb	x26,7(x5) # 40010007 <_binary_lab4_test_bin_size+0x3ffefefb>
    80002328:	40010c37          	lui	x24,0x40010
    8000232c:	018c0c33          	add	x24,x24,x24
    80002330:	100c0c13          	addi	x24,x24,256 # 40010100 <_binary_lab4_test_bin_size+0x3ffefff4>
    80002334:	f4bc4b03          	lbu	x22,-181(x24)
    80002338:	40010db7          	lui	x27,0x40010
    8000233c:	01bd8db3          	add	x27,x27,x27
    80002340:	100d8d93          	addi	x27,x27,256 # 40010100 <_binary_lab4_test_bin_size+0x3ffefff4>
    80002344:	f5cd8d23          	sb	x28,-166(x27)
    80002348:	0080fdb3          	and	x27,x1,x8
    8000234c:	7911f013          	andi	x0,x3,1937
    80002350:	0016e933          	or	x18,x13,x1
    80002354:	30505bf3          	csrrwi	x23,mtvec,0
    80002358:	400105b7          	lui	x11,0x40010
    8000235c:	00b585b3          	add	x11,x11,x11
    80002360:	10058593          	addi	x11,x11,256 # 40010100 <_binary_lab4_test_bin_size+0x3ffefff4>
    80002364:	ff95b823          	sd	x25,-16(x11)
    80002368:	000c8f3b          	addw	x30,x25,x0
    8000236c:	b82f6793          	ori	x15,x30,-1150
    80002370:	41960ebb          	subw	x29,x12,x25
    80002374:	343717f3          	csrrw	x15,mtval,x14
    80002378:	40010b37          	lui	x22,0x40010
    8000237c:	016b0b33          	add	x22,x22,x22
    80002380:	0c1b2623          	sw	x1,204(x22) # 400100cc <_binary_lab4_test_bin_size+0x3ffeffc0>
    80002384:	3436faf3          	csrrci	x21,mtval,13
    80002388:	400108b7          	lui	x17,0x40010
    8000238c:	011888b3          	add	x17,x17,x17
    80002390:	0f889303          	lh	x6,248(x17) # 400100f8 <_binary_lab4_test_bin_size+0x3ffeffec>
    80002394:	40010937          	lui	x18,0x40010
    80002398:	01290933          	add	x18,x18,x18
    8000239c:	10090913          	addi	x18,x18,256 # 40010100 <_binary_lab4_test_bin_size+0x3ffefff4>
    800023a0:	f8092483          	lw	x9,-128(x18)
    800023a4:	3449df73          	csrrwi	x30,mip,19
    800023a8:	3665c693          	xori	x13,x11,870
    800023ac:	400106b7          	lui	x13,0x40010
    800023b0:	00d686b3          	add	x13,x13,x13
    800023b4:	0096c603          	lbu	x12,9(x13) # 40010009 <_binary_lab4_test_bin_size+0x3ffefefd>
    800023b8:	f3c5c013          	xori	x0,x11,-196
    800023bc:	008a8db3          	add	x27,x21,x8
    800023c0:	0179e133          	or	x2,x19,x23
    800023c4:	b32d029b          	addiw	x5,x26,-1230
    800023c8:	43424413          	xori	x8,x4,1076
    800023cc:	400108b7          	lui	x17,0x40010
    800023d0:	011888b3          	add	x17,x17,x17
    800023d4:	10088893          	addi	x17,x17,256 # 40010100 <_binary_lab4_test_bin_size+0x3ffefff4>
    800023d8:	fdb88083          	lb	x1,-37(x17)
    800023dc:	4150883b          	subw	x16,x1,x21
    800023e0:	40010837          	lui	x16,0x40010
    800023e4:	01080833          	add	x16,x16,x16
    800023e8:	10080813          	addi	x16,x16,256 # 40010100 <_binary_lab4_test_bin_size+0x3ffefff4>
    800023ec:	f2882183          	lw	x3,-216(x16)
    800023f0:	07fb011b          	addiw	x2,x22,127
    800023f4:	40010537          	lui	x10,0x40010
    800023f8:	00a50533          	add	x10,x10,x10
    800023fc:	00b50fa3          	sb	x11,31(x10) # 4001001f <_binary_lab4_test_bin_size+0x3ffeff13>
    80002400:	4043833b          	subw	x6,x7,x4
    80002404:	65e66913          	ori	x18,x12,1630
    80002408:	977dfe93          	andi	x29,x27,-1673
    8000240c:	400109b7          	lui	x19,0x40010
    80002410:	013989b3          	add	x19,x19,x19
    80002414:	0189b983          	ld	x19,24(x19) # 40010018 <_binary_lab4_test_bin_size+0x3ffeff0c>
    80002418:	40010b37          	lui	x22,0x40010
    8000241c:	016b0b33          	add	x22,x22,x22
    80002420:	100b0b13          	addi	x22,x22,256 # 40010100 <_binary_lab4_test_bin_size+0x3ffefff4>
    80002424:	f0ab0403          	lb	x8,-246(x22)
    80002428:	37b46413          	ori	x8,x8,891
    8000242c:	40010837          	lui	x16,0x40010
    80002430:	01080833          	add	x16,x16,x16
    80002434:	08486a03          	lwu	x20,132(x16) # 40010084 <_binary_lab4_test_bin_size+0x3ffeff78>
    80002438:	b9a66313          	ori	x6,x12,-1126
    8000243c:	01e26db3          	or	x27,x4,x30
    80002440:	09340393          	addi	x7,x8,147
    80002444:	85e1c593          	xori	x11,x3,-1954
    80002448:	01c1083b          	addw	x16,x2,x28
    8000244c:	40010db7          	lui	x27,0x40010
    80002450:	01bd8db3          	add	x27,x27,x27
    80002454:	100d8d93          	addi	x27,x27,256 # 40010100 <_binary_lab4_test_bin_size+0x3ffefff4>
    80002458:	ff8dba03          	ld	x20,-8(x27)
    8000245c:	008a4b33          	xor	x22,x20,x8
    80002460:	305d16f3          	csrrw	x13,mtvec,x26
    80002464:	3053f7f3          	csrrci	x15,mtvec,7
    80002468:	b690fa13          	andi	x20,x1,-1175
    8000246c:	01584a33          	xor	x20,x16,x21
    80002470:	40010a37          	lui	x20,0x40010
    80002474:	014a0a33          	add	x20,x20,x20
    80002478:	084a6c03          	lwu	x24,132(x20) # 40010084 <_binary_lab4_test_bin_size+0x3ffeff78>
    8000247c:	f3f26293          	ori	x5,x4,-193
    80002480:	ec02899b          	addiw	x19,x5,-320
    80002484:	34499cf3          	csrrw	x25,mip,x19
    80002488:	40010937          	lui	x18,0x40010
    8000248c:	01290933          	add	x18,x18,x18
    80002490:	02891083          	lh	x1,40(x18) # 40010028 <_binary_lab4_test_bin_size+0x3ffeff1c>
    80002494:	40010537          	lui	x10,0x40010
    80002498:	00a50533          	add	x10,x10,x10
    8000249c:	10050513          	addi	x10,x10,256 # 40010100 <_binary_lab4_test_bin_size+0x3ffefff4>
    800024a0:	f0053783          	ld	x15,-256(x10)
    800024a4:	ae98fb93          	andi	x23,x17,-1303
    800024a8:	40010d37          	lui	x26,0x40010
    800024ac:	01ad0d33          	add	x26,x26,x26
    800024b0:	02fd4783          	lbu	x15,47(x26) # 4001002f <_binary_lab4_test_bin_size+0x3ffeff23>
    800024b4:	400104b7          	lui	x9,0x40010
    800024b8:	009484b3          	add	x9,x9,x9
    800024bc:	0684ed83          	lwu	x27,104(x9) # 40010068 <_binary_lab4_test_bin_size+0x3ffeff5c>
    800024c0:	01bd0ab3          	add	x21,x26,x27
    800024c4:	0728f113          	andi	x2,x17,114
    800024c8:	40010937          	lui	x18,0x40010
    800024cc:	01290933          	add	x18,x18,x18
    800024d0:	10090913          	addi	x18,x18,256 # 40010100 <_binary_lab4_test_bin_size+0x3ffefff4>
    800024d4:	fbc92b03          	lw	x22,-68(x18)
    800024d8:	c73ec393          	xori	x7,x29,-909
    800024dc:	40010f37          	lui	x30,0x40010
    800024e0:	01ef0f33          	add	x30,x30,x30
    800024e4:	040f3583          	ld	x11,64(x30) # 40010040 <_binary_lab4_test_bin_size+0x3ffeff34>
    800024e8:	8cf70613          	addi	x12,x14,-1841
    800024ec:	400104b7          	lui	x9,0x40010
    800024f0:	009484b3          	add	x9,x9,x9
    800024f4:	08448803          	lb	x16,132(x9) # 40010084 <_binary_lab4_test_bin_size+0x3ffeff78>
    800024f8:	01786233          	or	x4,x16,x23
    800024fc:	34b2839b          	addiw	x7,x5,843
    80002500:	40010bb7          	lui	x23,0x40010
    80002504:	017b8bb3          	add	x23,x23,x23
    80002508:	060bb303          	ld	x6,96(x23) # 40010060 <_binary_lab4_test_bin_size+0x3ffeff54>
    8000250c:	41ec8333          	sub	x6,x25,x30
    80002510:	304d58f3          	csrrwi	x17,mie,26
    80002514:	40010337          	lui	x6,0x40010
    80002518:	00630333          	add	x6,x6,x6
    8000251c:	09435503          	lhu	x10,148(x6) # 40010094 <_binary_lab4_test_bin_size+0x3ffeff88>
    80002520:	00a781bb          	addw	x3,x15,x10
    80002524:	818b7b93          	andi	x23,x22,-2024
    80002528:	400106b7          	lui	x13,0x40010
    8000252c:	00d686b3          	add	x13,x13,x13
    80002530:	10068693          	addi	x13,x13,256 # 40010100 <_binary_lab4_test_bin_size+0x3ffefff4>
    80002534:	f566dc83          	lhu	x25,-170(x13)
    80002538:	016ce833          	or	x16,x25,x22
    8000253c:	342a7d73          	csrrci	x26,mcause,20
    80002540:	305375f3          	csrrci	x11,mtvec,6
    80002544:	304164f3          	csrrsi	x9,mie,2
    80002548:	305ffaf3          	csrrci	x21,mtvec,31
    8000254c:	40010ab7          	lui	x21,0x40010
    80002550:	015a8ab3          	add	x21,x21,x21
    80002554:	091aca03          	lbu	x20,145(x21) # 40010091 <_binary_lab4_test_bin_size+0x3ffeff85>
    80002558:	d56be213          	ori	x4,x23,-682
    8000255c:	40010e37          	lui	x28,0x40010
    80002560:	01ce0e33          	add	x28,x28,x28
    80002564:	100e0e13          	addi	x28,x28,256 # 40010100 <_binary_lab4_test_bin_size+0x3ffefff4>
    80002568:	f58e4983          	lbu	x19,-168(x28)
    8000256c:	f397811b          	addiw	x2,x15,-199
    80002570:	64a6891b          	addiw	x18,x13,1610
    80002574:	40010eb7          	lui	x29,0x40010
    80002578:	01de8eb3          	add	x29,x29,x29
    8000257c:	100e8e93          	addi	x29,x29,256 # 40010100 <_binary_lab4_test_bin_size+0x3ffefff4>
    80002580:	f76e8e03          	lb	x28,-138(x29)
    80002584:	01c4ec33          	or	x24,x9,x28
    80002588:	40010837          	lui	x16,0x40010
    8000258c:	01080833          	add	x16,x16,x16
    80002590:	10080813          	addi	x16,x16,256 # 40010100 <_binary_lab4_test_bin_size+0x3ffefff4>
    80002594:	f0480323          	sb	x4,-250(x16)
    80002598:	77198f9b          	addiw	x31,x19,1905
    8000259c:	7a904313          	xori	x6,x0,1961
    800025a0:	400103b7          	lui	x7,0x40010
    800025a4:	007383b3          	add	x7,x7,x7
    800025a8:	0793a223          	sw	x25,100(x7) # 40010064 <_binary_lab4_test_bin_size+0x3ffeff58>
    800025ac:	70b4889b          	addiw	x17,x9,1803
    800025b0:	013cf6b3          	and	x13,x25,x19
    800025b4:	400100b7          	lui	x1,0x40010
    800025b8:	001080b3          	add	x1,x1,x1
    800025bc:	10008093          	addi	x1,x1,256 # 40010100 <_binary_lab4_test_bin_size+0x3ffefff4>
    800025c0:	fae08083          	lb	x1,-82(x1)
    800025c4:	0015fbb3          	and	x23,x11,x1
    800025c8:	01838d33          	add	x26,x7,x24
    800025cc:	40010437          	lui	x8,0x40010
    800025d0:	00840433          	add	x8,x8,x8
    800025d4:	10040413          	addi	x8,x8,256 # 40010100 <_binary_lab4_test_bin_size+0x3ffefff4>
    800025d8:	fa441e03          	lh	x28,-92(x8)
    800025dc:	40010837          	lui	x16,0x40010
    800025e0:	01080833          	add	x16,x16,x16
    800025e4:	06e82823          	sw	x14,112(x16) # 40010070 <_binary_lab4_test_bin_size+0x3ffeff64>
    800025e8:	e6ab801b          	addiw	x0,x23,-406
    800025ec:	3059f673          	csrrci	x12,mtvec,19
    800025f0:	0c226113          	ori	x2,x4,194
    800025f4:	e006e193          	ori	x3,x13,-512
    800025f8:	005387bb          	addw	x15,x7,x5
    800025fc:	400102b7          	lui	x5,0x40010
    80002600:	005282b3          	add	x5,x5,x5
    80002604:	10028293          	addi	x5,x5,256 # 40010100 <_binary_lab4_test_bin_size+0x3ffefff4>
    80002608:	fa228b23          	sb	x2,-74(x5)
    8000260c:	400106b7          	lui	x13,0x40010
    80002610:	00d686b3          	add	x13,x13,x13
    80002614:	10068693          	addi	x13,x13,256 # 40010100 <_binary_lab4_test_bin_size+0x3ffefff4>
    80002618:	ffe681a3          	sb	x30,-29(x13)
    8000261c:	3053ef73          	csrrsi	x30,mtvec,7
    80002620:	305155f3          	csrrwi	x11,mtvec,2
    80002624:	408b803b          	subw	x0,x23,x8
    80002628:	40010437          	lui	x8,0x40010
    8000262c:	00840433          	add	x8,x8,x8
    80002630:	03740083          	lb	x1,55(x8) # 40010037 <_binary_lab4_test_bin_size+0x3ffeff2b>
    80002634:	40010eb7          	lui	x29,0x40010
    80002638:	01de8eb3          	add	x29,x29,x29
    8000263c:	100e8e93          	addi	x29,x29,256 # 40010100 <_binary_lab4_test_bin_size+0x3ffefff4>
    80002640:	f2fe8903          	lb	x18,-209(x29)
    80002644:	00468933          	add	x18,x13,x4
    80002648:	00fb7833          	and	x16,x22,x15
    8000264c:	0067f1b3          	and	x3,x15,x6
    80002650:	00a5ca33          	xor	x20,x11,x10
    80002654:	400108b7          	lui	x17,0x40010
    80002658:	011888b3          	add	x17,x17,x17
    8000265c:	0868c283          	lbu	x5,134(x17) # 40010086 <_binary_lab4_test_bin_size+0x3ffeff7a>
    80002660:	b5fec293          	xori	x5,x29,-1185
    80002664:	400107b7          	lui	x15,0x40010
    80002668:	00f787b3          	add	x15,x15,x15
    8000266c:	0a07ae23          	sw	x0,188(x15) # 400100bc <_binary_lab4_test_bin_size+0x3ffeffb0>
    80002670:	400108b7          	lui	x17,0x40010
    80002674:	011888b3          	add	x17,x17,x17
    80002678:	02588083          	lb	x1,37(x17) # 40010025 <_binary_lab4_test_bin_size+0x3ffeff19>
    8000267c:	40010e37          	lui	x28,0x40010
    80002680:	01ce0e33          	add	x28,x28,x28
    80002684:	030e1723          	sh	x16,46(x28) # 4001002e <_binary_lab4_test_bin_size+0x3ffeff22>
    80002688:	400105b7          	lui	x11,0x40010
    8000268c:	00b585b3          	add	x11,x11,x11
    80002690:	10058593          	addi	x11,x11,256 # 40010100 <_binary_lab4_test_bin_size+0x3ffefff4>
    80002694:	fd45c303          	lbu	x6,-44(x11)
    80002698:	006ac733          	xor	x14,x21,x6
    8000269c:	40010837          	lui	x16,0x40010
    800026a0:	01080833          	add	x16,x16,x16
    800026a4:	00882983          	lw	x19,8(x16) # 40010008 <_binary_lab4_test_bin_size+0x3ffefefc>
    800026a8:	00898bb3          	add	x23,x19,x8
    800026ac:	40010537          	lui	x10,0x40010
    800026b0:	00a50533          	add	x10,x10,x10
    800026b4:	09f54d83          	lbu	x27,159(x10) # 4001009f <_binary_lab4_test_bin_size+0x3ffeff93>
    800026b8:	404c873b          	subw	x14,x25,x4
    800026bc:	40010e37          	lui	x28,0x40010
    800026c0:	01ce0e33          	add	x28,x28,x28
    800026c4:	0ece6803          	lwu	x16,236(x28) # 400100ec <_binary_lab4_test_bin_size+0x3ffeffe0>
    800026c8:	000803b3          	add	x7,x16,x0
    800026cc:	f5030013          	addi	x0,x6,-176
    800026d0:	4129003b          	subw	x0,x18,x18
    800026d4:	40010337          	lui	x6,0x40010
    800026d8:	00630333          	add	x6,x6,x6
    800026dc:	07433823          	sd	x20,112(x6) # 40010070 <_binary_lab4_test_bin_size+0x3ffeff64>
    800026e0:	400100b7          	lui	x1,0x40010
    800026e4:	001080b3          	add	x1,x1,x1
    800026e8:	10008093          	addi	x1,x1,256 # 40010100 <_binary_lab4_test_bin_size+0x3ffefff4>
    800026ec:	ff80ad83          	lw	x27,-8(x1)
    800026f0:	40010db7          	lui	x27,0x40010
    800026f4:	01bd8db3          	add	x27,x27,x27
    800026f8:	100d8d93          	addi	x27,x27,256 # 40010100 <_binary_lab4_test_bin_size+0x3ffefff4>
    800026fc:	fd1d8283          	lb	x5,-47(x27)
    80002700:	7db9c293          	xori	x5,x19,2011
    80002704:	00967933          	and	x18,x12,x9
    80002708:	3193c693          	xori	x13,x7,793
    8000270c:	40010137          	lui	x2,0x40010
    80002710:	00210133          	add	x2,x2,x2
    80002714:	10010113          	addi	x2,x2,256 # 40010100 <_binary_lab4_test_bin_size+0x3ffefff4>
    80002718:	f7813003          	ld	x0,-136(x2)
    8000271c:	40010db7          	lui	x27,0x40010
    80002720:	01bd8db3          	add	x27,x27,x27
    80002724:	097dae23          	sw	x23,156(x27) # 4001009c <_binary_lab4_test_bin_size+0x3ffeff90>
    80002728:	d1158d1b          	addiw	x26,x11,-751
    8000272c:	34316773          	csrrsi	x14,mtval,2
    80002730:	418d8db3          	sub	x27,x27,x24
    80002734:	400108b7          	lui	x17,0x40010
    80002738:	011888b3          	add	x17,x17,x17
    8000273c:	10088893          	addi	x17,x17,256 # 40010100 <_binary_lab4_test_bin_size+0x3ffefff4>
    80002740:	f7c8b423          	sd	x28,-152(x17)
    80002744:	00e5e3b3          	or	x7,x11,x14
    80002748:	01236933          	or	x18,x6,x18
    8000274c:	40010d37          	lui	x26,0x40010
    80002750:	01ad0d33          	add	x26,x26,x26
    80002754:	06ad4203          	lbu	x4,106(x26) # 4001006a <_binary_lab4_test_bin_size+0x3ffeff5e>
    80002758:	0129f233          	and	x4,x19,x18
    8000275c:	400108b7          	lui	x17,0x40010
    80002760:	011888b3          	add	x17,x17,x17
    80002764:	10088893          	addi	x17,x17,256 # 40010100 <_binary_lab4_test_bin_size+0x3ffefff4>
    80002768:	ff18ac23          	sw	x17,-8(x17)
    8000276c:	04c7ef93          	ori	x31,x15,76
    80002770:	1a137913          	andi	x18,x6,417
    80002774:	40158ebb          	subw	x29,x11,x1
    80002778:	28684793          	xori	x15,x16,646
    8000277c:	00c97e33          	and	x28,x18,x12
    80002780:	f0f08b1b          	addiw	x22,x1,-241
    80002784:	43cc7713          	andi	x14,x24,1084
    80002788:	be834f13          	xori	x30,x6,-1048
    8000278c:	400103b7          	lui	x7,0x40010
    80002790:	007383b3          	add	x7,x7,x7
    80002794:	0c639383          	lh	x7,198(x7) # 400100c6 <_binary_lab4_test_bin_size+0x3ffeffba>
    80002798:	e532ff93          	andi	x31,x5,-429
    8000279c:	0182f933          	and	x18,x5,x24
    800027a0:	1b71051b          	addiw	x10,x2,439
    800027a4:	bddd8793          	addi	x15,x27,-1059
    800027a8:	400100b7          	lui	x1,0x40010
    800027ac:	001080b3          	add	x1,x1,x1
    800027b0:	0cd0a223          	sw	x13,196(x1) # 400100c4 <_binary_lab4_test_bin_size+0x3ffeffb8>
    800027b4:	01264033          	xor	x0,x12,x18
    800027b8:	400101b7          	lui	x3,0x40010
    800027bc:	003181b3          	add	x3,x3,x3
    800027c0:	0e51a623          	sw	x5,236(x3) # 400100ec <_binary_lab4_test_bin_size+0x3ffeffe0>
    800027c4:	008181b3          	add	x3,x3,x8
    800027c8:	400106b7          	lui	x13,0x40010
    800027cc:	00d686b3          	add	x13,x13,x13
    800027d0:	10068693          	addi	x13,x13,256 # 40010100 <_binary_lab4_test_bin_size+0x3ffefff4>
    800027d4:	fb869083          	lh	x1,-72(x13)
    800027d8:	40010cb7          	lui	x25,0x40010
    800027dc:	019c8cb3          	add	x25,x25,x25
    800027e0:	100c8c93          	addi	x25,x25,256 # 40010100 <_binary_lab4_test_bin_size+0x3ffefff4>
    800027e4:	f22c9d03          	lh	x26,-222(x25)
    800027e8:	400101b7          	lui	x3,0x40010
    800027ec:	003181b3          	add	x3,x3,x3
    800027f0:	10018193          	addi	x3,x3,256 # 40010100 <_binary_lab4_test_bin_size+0x3ffefff4>
    800027f4:	ffc1e983          	lwu	x19,-4(x3)
    800027f8:	9ec4ee93          	ori	x29,x9,-1556
    800027fc:	40010737          	lui	x14,0x40010
    80002800:	00e70733          	add	x14,x14,x14
    80002804:	10070713          	addi	x14,x14,256 # 40010100 <_binary_lab4_test_bin_size+0x3ffefff4>
    80002808:	fda71b23          	sh	x26,-42(x14)
    8000280c:	3432fd73          	csrrci	x26,mtval,5
    80002810:	00416d33          	or	x26,x2,x4
    80002814:	40010f37          	lui	x30,0x40010
    80002818:	01ef0f33          	add	x30,x30,x30
    8000281c:	0a8f3483          	ld	x9,168(x30) # 400100a8 <_binary_lab4_test_bin_size+0x3ffeff9c>
    80002820:	0089fdb3          	and	x27,x19,x8
    80002824:	0009f433          	and	x8,x19,x0
    80002828:	40010c37          	lui	x24,0x40010
    8000282c:	018c0c33          	add	x24,x24,x24
    80002830:	054c2303          	lw	x6,84(x24) # 40010054 <_binary_lab4_test_bin_size+0x3ffeff48>
    80002834:	40c5833b          	subw	x6,x11,x12
    80002838:	bc5ff093          	andi	x1,x31,-1083
    8000283c:	40010637          	lui	x12,0x40010
    80002840:	00c60633          	add	x12,x12,x12
    80002844:	10060613          	addi	x12,x12,256 # 40010100 <_binary_lab4_test_bin_size+0x3ffefff4>
    80002848:	ffc66103          	lwu	x2,-4(x12)
    8000284c:	40010bb7          	lui	x23,0x40010
    80002850:	017b8bb3          	add	x23,x23,x23
    80002854:	013bb823          	sd	x19,16(x23) # 40010010 <_binary_lab4_test_bin_size+0x3ffeff04>
    80002858:	3440fbf3          	csrrci	x23,mip,1
    8000285c:	0082c9b3          	xor	x19,x5,x8
    80002860:	f1b14713          	xori	x14,x2,-229
    80002864:	40010f37          	lui	x30,0x40010
    80002868:	01ef0f33          	add	x30,x30,x30
    8000286c:	011f3423          	sd	x17,8(x30) # 40010008 <_binary_lab4_test_bin_size+0x3ffefefc>
    80002870:	01f6c133          	xor	x2,x13,x31
    80002874:	40010db7          	lui	x27,0x40010
    80002878:	01bd8db3          	add	x27,x27,x27
    8000287c:	088de783          	lwu	x15,136(x27) # 40010088 <_binary_lab4_test_bin_size+0x3ffeff7c>
    80002880:	4677e093          	ori	x1,x15,1127
    80002884:	3438de73          	csrrwi	x28,mtval,17
    80002888:	00128abb          	addw	x21,x5,x1
    8000288c:	408f0233          	sub	x4,x30,x8
    80002890:	7890ec13          	ori	x24,x1,1929
    80002894:	c0fb8c1b          	addiw	x24,x23,-1009
    80002898:	40010f37          	lui	x30,0x40010
    8000289c:	01ef0f33          	add	x30,x30,x30
    800028a0:	100f0f13          	addi	x30,x30,256 # 40010100 <_binary_lab4_test_bin_size+0x3ffefff4>
    800028a4:	f78f6083          	lwu	x1,-136(x30)
    800028a8:	0116e0b3          	or	x1,x13,x17
    800028ac:	57ed8c93          	addi	x25,x27,1406
    800028b0:	40010a37          	lui	x20,0x40010
    800028b4:	014a0a33          	add	x20,x20,x20
    800028b8:	045a4f03          	lbu	x30,69(x20) # 40010045 <_binary_lab4_test_bin_size+0x3ffeff39>
    800028bc:	01b404bb          	addw	x9,x8,x27
    800028c0:	2b984c13          	xori	x24,x16,697
    800028c4:	400107b7          	lui	x15,0x40010
    800028c8:	00f787b3          	add	x15,x15,x15
    800028cc:	006788a3          	sb	x6,17(x15) # 40010011 <_binary_lab4_test_bin_size+0x3ffeff05>
    800028d0:	9b85881b          	addiw	x16,x11,-1608
    800028d4:	01bac5b3          	xor	x11,x21,x27
    800028d8:	00ddffb3          	and	x31,x27,x13
    800028dc:	004675b3          	and	x11,x12,x4
    800028e0:	0100ea33          	or	x20,x1,x16
    800028e4:	40010b37          	lui	x22,0x40010
    800028e8:	016b0b33          	add	x22,x22,x22
    800028ec:	100b0b13          	addi	x22,x22,256 # 40010100 <_binary_lab4_test_bin_size+0x3ffefff4>
    800028f0:	f13b3023          	sd	x19,-256(x22)
    800028f4:	2bc40993          	addi	x19,x8,700
    800028f8:	40010fb7          	lui	x31,0x40010
    800028fc:	01ff8fb3          	add	x31,x31,x31
    80002900:	100f8f93          	addi	x31,x31,256 # 40010100 <_binary_lab4_test_bin_size+0x3ffefff4>
    80002904:	f23fb423          	sd	x3,-216(x31)
    80002908:	40010eb7          	lui	x29,0x40010
    8000290c:	01de8eb3          	add	x29,x29,x29
    80002910:	0faea223          	sw	x26,228(x29) # 400100e4 <_binary_lab4_test_bin_size+0x3ffeffd8>
    80002914:	40010237          	lui	x4,0x40010
    80002918:	00420233          	add	x4,x4,x4
    8000291c:	0fa22a23          	sw	x26,244(x4) # 400100f4 <_binary_lab4_test_bin_size+0x3ffeffe8>
    80002920:	c8d60993          	addi	x19,x12,-883
    80002924:	0161ee33          	or	x28,x3,x22
    80002928:	40010337          	lui	x6,0x40010
    8000292c:	00630333          	add	x6,x6,x6
    80002930:	10030313          	addi	x6,x6,256 # 40010100 <_binary_lab4_test_bin_size+0x3ffefff4>
    80002934:	f8d30f83          	lb	x31,-115(x6)
    80002938:	4477c293          	xori	x5,x15,1095
    8000293c:	8ea56193          	ori	x3,x10,-1814
    80002940:	40010537          	lui	x10,0x40010
    80002944:	00a50533          	add	x10,x10,x10
    80002948:	02a55a83          	lhu	x21,42(x10) # 4001002a <_binary_lab4_test_bin_size+0x3ffeff1e>
    8000294c:	7bfbed93          	ori	x27,x23,1983
    80002950:	45c9041b          	addiw	x8,x18,1116
    80002954:	40010ab7          	lui	x21,0x40010
    80002958:	015a8ab3          	add	x21,x21,x21
    8000295c:	057a81a3          	sb	x23,67(x21) # 40010043 <_binary_lab4_test_bin_size+0x3ffeff37>
    80002960:	400107b7          	lui	x15,0x40010
    80002964:	00f787b3          	add	x15,x15,x15
    80002968:	04e7a223          	sw	x14,68(x15) # 40010044 <_binary_lab4_test_bin_size+0x3ffeff38>
    8000296c:	40c588b3          	sub	x17,x11,x12
    80002970:	40010737          	lui	x14,0x40010
    80002974:	00e70733          	add	x14,x14,x14
    80002978:	0c073b83          	ld	x23,192(x14) # 400100c0 <_binary_lab4_test_bin_size+0x3ffeffb4>
    8000297c:	400106b7          	lui	x13,0x40010
    80002980:	00d686b3          	add	x13,x13,x13
    80002984:	10068693          	addi	x13,x13,256 # 40010100 <_binary_lab4_test_bin_size+0x3ffefff4>
    80002988:	f066de83          	lhu	x29,-250(x13)
    8000298c:	2222e513          	ori	x10,x5,546
    80002990:	304ff7f3          	csrrci	x15,mie,31
    80002994:	3417fff3          	csrrci	x31,mepc,15
    80002998:	40010c37          	lui	x24,0x40010
    8000299c:	018c0c33          	add	x24,x24,x24
    800029a0:	01bc3823          	sd	x27,16(x24) # 40010010 <_binary_lab4_test_bin_size+0x3ffeff04>
    800029a4:	40010837          	lui	x16,0x40010
    800029a8:	01080833          	add	x16,x16,x16
    800029ac:	10080813          	addi	x16,x16,256 # 40010100 <_binary_lab4_test_bin_size+0x3ffefff4>
    800029b0:	f8086183          	lwu	x3,-128(x16)
    800029b4:	41e1883b          	subw	x16,x3,x30
    800029b8:	01c209b3          	add	x19,x4,x28
    800029bc:	407fc213          	xori	x4,x31,1031
    800029c0:	83e5049b          	addiw	x9,x10,-1986
    800029c4:	40010337          	lui	x6,0x40010
    800029c8:	00630333          	add	x6,x6,x6
    800029cc:	10030313          	addi	x6,x6,256 # 40010100 <_binary_lab4_test_bin_size+0x3ffefff4>
    800029d0:	fc836203          	lwu	x4,-56(x6)
    800029d4:	4149023b          	subw	x4,x18,x20
    800029d8:	40010f37          	lui	x30,0x40010
    800029dc:	01ef0f33          	add	x30,x30,x30
    800029e0:	100f0f13          	addi	x30,x30,256 # 40010100 <_binary_lab4_test_bin_size+0x3ffefff4>
    800029e4:	f43f2423          	sw	x3,-184(x30)
    800029e8:	400105b7          	lui	x11,0x40010
    800029ec:	00b585b3          	add	x11,x11,x11
    800029f0:	0bc58083          	lb	x1,188(x11) # 400100bc <_binary_lab4_test_bin_size+0x3ffeffb0>
    800029f4:	400105b7          	lui	x11,0x40010
    800029f8:	00b585b3          	add	x11,x11,x11
    800029fc:	0ab5bc23          	sd	x11,184(x11) # 400100b8 <_binary_lab4_test_bin_size+0x3ffeffac>
    80002a00:	40010db7          	lui	x27,0x40010
    80002a04:	01bd8db3          	add	x27,x27,x27
    80002a08:	100d8d93          	addi	x27,x27,256 # 40010100 <_binary_lab4_test_bin_size+0x3ffefff4>
    80002a0c:	f06dcd03          	lbu	x26,-250(x27)
    80002a10:	341b78f3          	csrrci	x17,mepc,22
    80002a14:	edec4f13          	xori	x30,x24,-290
    80002a18:	344ed273          	csrrwi	x4,mip,29
    80002a1c:	00530433          	add	x8,x6,x5
    80002a20:	0132f733          	and	x14,x5,x19
    80002a24:	40010ab7          	lui	x21,0x40010
    80002a28:	015a8ab3          	add	x21,x21,x21
    80002a2c:	100a8a93          	addi	x21,x21,256 # 40010100 <_binary_lab4_test_bin_size+0x3ffefff4>
    80002a30:	fb9ac583          	lbu	x11,-71(x21)
    80002a34:	003b75b3          	and	x11,x22,x3
    80002a38:	00fd0eb3          	add	x29,x26,x15
    80002a3c:	baee849b          	addiw	x9,x29,-1106
    80002a40:	da678013          	addi	x0,x15,-602
    80002a44:	40010bb7          	lui	x23,0x40010
    80002a48:	017b8bb3          	add	x23,x23,x23
    80002a4c:	018ba783          	lw	x15,24(x23) # 40010018 <_binary_lab4_test_bin_size+0x3ffeff0c>
    80002a50:	00ff8633          	add	x12,x31,x15
    80002a54:	40010d37          	lui	x26,0x40010
    80002a58:	01ad0d33          	add	x26,x26,x26
    80002a5c:	100d0d13          	addi	x26,x26,256 # 40010100 <_binary_lab4_test_bin_size+0x3ffefff4>
    80002a60:	fe8d2f83          	lw	x31,-24(x26)
    80002a64:	40010bb7          	lui	x23,0x40010
    80002a68:	017b8bb3          	add	x23,x23,x23
    80002a6c:	04dbb823          	sd	x13,80(x23) # 40010050 <_binary_lab4_test_bin_size+0x3ffeff44>
    80002a70:	414f8bbb          	subw	x23,x31,x20
    80002a74:	00ef06bb          	addw	x13,x30,x14
    80002a78:	0160e833          	or	x16,x1,x22
    80002a7c:	b651fe93          	andi	x29,x3,-1179
    80002a80:	404889b3          	sub	x19,x17,x4
    80002a84:	006bf833          	and	x16,x23,x6
    80002a88:	00e471b3          	and	x3,x8,x14
    80002a8c:	40010737          	lui	x14,0x40010
    80002a90:	00e70733          	add	x14,x14,x14
    80002a94:	10070713          	addi	x14,x14,256 # 40010100 <_binary_lab4_test_bin_size+0x3ffefff4>
    80002a98:	ffe72023          	sw	x30,-32(x14)
    80002a9c:	5c346e13          	ori	x28,x8,1475
    80002aa0:	001e0333          	add	x6,x28,x1
    80002aa4:	30526c73          	csrrsi	x24,mtvec,4
    80002aa8:	006846b3          	xor	x13,x16,x6
    80002aac:	00727e33          	and	x28,x4,x7
    80002ab0:	40568d3b          	subw	x26,x13,x5
    80002ab4:	40010f37          	lui	x30,0x40010
    80002ab8:	01ef0f33          	add	x30,x30,x30
    80002abc:	100f0f13          	addi	x30,x30,256 # 40010100 <_binary_lab4_test_bin_size+0x3ffefff4>
    80002ac0:	faaf2023          	sw	x10,-96(x30)
    80002ac4:	400109b7          	lui	x19,0x40010
    80002ac8:	013989b3          	add	x19,x19,x19
    80002acc:	0449a783          	lw	x15,68(x19) # 40010044 <_binary_lab4_test_bin_size+0x3ffeff38>
    80002ad0:	414b0e33          	sub	x28,x22,x20
    80002ad4:	e6314493          	xori	x9,x2,-413
    80002ad8:	400100b7          	lui	x1,0x40010
    80002adc:	001080b3          	add	x1,x1,x1
    80002ae0:	04208f03          	lb	x30,66(x1) # 40010042 <_binary_lab4_test_bin_size+0x3ffeff36>
    80002ae4:	416802bb          	subw	x5,x16,x22
    80002ae8:	40010637          	lui	x12,0x40010
    80002aec:	00c60633          	add	x12,x12,x12
    80002af0:	10060613          	addi	x12,x12,256 # 40010100 <_binary_lab4_test_bin_size+0x3ffefff4>
    80002af4:	f5a62423          	sw	x26,-184(x12)
    80002af8:	305356f3          	csrrwi	x13,mtvec,6
    80002afc:	40010b37          	lui	x22,0x40010
    80002b00:	016b0b33          	add	x22,x22,x22
    80002b04:	048b1d03          	lh	x26,72(x22) # 40010048 <_binary_lab4_test_bin_size+0x3ffeff3c>
    80002b08:	41a8853b          	subw	x10,x17,x26
    80002b0c:	00e1e233          	or	x4,x3,x14
    80002b10:	400100b7          	lui	x1,0x40010
    80002b14:	001080b3          	add	x1,x1,x1
    80002b18:	10008093          	addi	x1,x1,256 # 40010100 <_binary_lab4_test_bin_size+0x3ffefff4>
    80002b1c:	f9e0aa23          	sw	x30,-108(x1)
    80002b20:	3430e2f3          	csrrsi	x5,mtval,1
    80002b24:	40010eb7          	lui	x29,0x40010
    80002b28:	01de8eb3          	add	x29,x29,x29
    80002b2c:	048e9e03          	lh	x28,72(x29) # 40010048 <_binary_lab4_test_bin_size+0x3ffeff3c>
    80002b30:	400104b7          	lui	x9,0x40010
    80002b34:	009484b3          	add	x9,x9,x9
    80002b38:	0a649223          	sh	x6,164(x9) # 400100a4 <_binary_lab4_test_bin_size+0x3ffeff98>
    80002b3c:	400108b7          	lui	x17,0x40010
    80002b40:	011888b3          	add	x17,x17,x17
    80002b44:	10088893          	addi	x17,x17,256 # 40010100 <_binary_lab4_test_bin_size+0x3ffefff4>
    80002b48:	ff48ec03          	lwu	x24,-12(x17)
    80002b4c:	001f0c33          	add	x24,x30,x1
    80002b50:	400109b7          	lui	x19,0x40010
    80002b54:	013989b3          	add	x19,x19,x19
    80002b58:	10098993          	addi	x19,x19,256 # 40010100 <_binary_lab4_test_bin_size+0x3ffefff4>
    80002b5c:	fe09a683          	lw	x13,-32(x19)
    80002b60:	0116c433          	xor	x8,x13,x17
    80002b64:	34169673          	csrrw	x12,mepc,x13
    80002b68:	40010c37          	lui	x24,0x40010
    80002b6c:	018c0c33          	add	x24,x24,x24
    80002b70:	100c0c13          	addi	x24,x24,256 # 40010100 <_binary_lab4_test_bin_size+0x3ffefff4>
    80002b74:	f19c04a3          	sb	x25,-247(x24)
    80002b78:	30477973          	csrrci	x18,mie,14
    80002b7c:	34336f73          	csrrsi	x30,mtval,6
    80002b80:	003944b3          	xor	x9,x18,x3
    80002b84:	40010db7          	lui	x27,0x40010
    80002b88:	01bd8db3          	add	x27,x27,x27
    80002b8c:	100d8d93          	addi	x27,x27,256 # 40010100 <_binary_lab4_test_bin_size+0x3ffefff4>
    80002b90:	fe0dbe83          	ld	x29,-32(x27)
    80002b94:	013a8cb3          	add	x25,x21,x19
    80002b98:	40010f37          	lui	x30,0x40010
    80002b9c:	01ef0f33          	add	x30,x30,x30
    80002ba0:	100f0f13          	addi	x30,x30,256 # 40010100 <_binary_lab4_test_bin_size+0x3ffefff4>
    80002ba4:	fcaf1c23          	sh	x10,-40(x30)
    80002ba8:	40010437          	lui	x8,0x40010
    80002bac:	00840433          	add	x8,x8,x8
    80002bb0:	06841b83          	lh	x23,104(x8) # 40010068 <_binary_lab4_test_bin_size+0x3ffeff5c>
    80002bb4:	40010e37          	lui	x28,0x40010
    80002bb8:	01ce0e33          	add	x28,x28,x28
    80002bbc:	0d5e0a23          	sb	x21,212(x28) # 400100d4 <_binary_lab4_test_bin_size+0x3ffeffc8>
    80002bc0:	40010a37          	lui	x20,0x40010
    80002bc4:	014a0a33          	add	x20,x20,x20
    80002bc8:	053a0823          	sb	x19,80(x20) # 40010050 <_binary_lab4_test_bin_size+0x3ffeff44>
    80002bcc:	400109b7          	lui	x19,0x40010
    80002bd0:	013989b3          	add	x19,x19,x19
    80002bd4:	06e9dd83          	lhu	x27,110(x19) # 4001006e <_binary_lab4_test_bin_size+0x3ffeff62>
    80002bd8:	41518dbb          	subw	x27,x3,x21
    80002bdc:	40010537          	lui	x10,0x40010
    80002be0:	00a50533          	add	x10,x10,x10
    80002be4:	07950a23          	sb	x25,116(x10) # 40010074 <_binary_lab4_test_bin_size+0x3ffeff68>
    80002be8:	005ff4b3          	and	x9,x31,x5
    80002bec:	400105b7          	lui	x11,0x40010
    80002bf0:	00b585b3          	add	x11,x11,x11
    80002bf4:	10058593          	addi	x11,x11,256 # 40010100 <_binary_lab4_test_bin_size+0x3ffefff4>
    80002bf8:	fb05e883          	lwu	x17,-80(x11)
    80002bfc:	40010fb7          	lui	x31,0x40010
    80002c00:	01ff8fb3          	add	x31,x31,x31
    80002c04:	100f8f93          	addi	x31,x31,256 # 40010100 <_binary_lab4_test_bin_size+0x3ffefff4>
    80002c08:	f80fe503          	lwu	x10,-128(x31)
    80002c0c:	259b8513          	addi	x10,x23,601
    80002c10:	00787db3          	and	x27,x16,x7
    80002c14:	6b950e1b          	addiw	x28,x10,1721
    80002c18:	305716f3          	csrrw	x13,mtvec,x14
    80002c1c:	400101b7          	lui	x3,0x40010
    80002c20:	003181b3          	add	x3,x3,x3
    80002c24:	10018193          	addi	x3,x3,256 # 40010100 <_binary_lab4_test_bin_size+0x3ffefff4>
    80002c28:	f0419a23          	sh	x4,-236(x3)
    80002c2c:	40010ab7          	lui	x21,0x40010
    80002c30:	015a8ab3          	add	x21,x21,x21
    80002c34:	100a8a93          	addi	x21,x21,256 # 40010100 <_binary_lab4_test_bin_size+0x3ffefff4>
    80002c38:	f28ab403          	ld	x8,-216(x21)
    80002c3c:	40010837          	lui	x16,0x40010
    80002c40:	01080833          	add	x16,x16,x16
    80002c44:	10080813          	addi	x16,x16,256 # 40010100 <_binary_lab4_test_bin_size+0x3ffefff4>
    80002c48:	f7484a83          	lbu	x21,-140(x16)
    80002c4c:	38baca93          	xori	x21,x21,907
    80002c50:	09224893          	xori	x17,x4,146
    80002c54:	34276273          	csrrsi	x4,mcause,14
    80002c58:	400107b7          	lui	x15,0x40010
    80002c5c:	00f787b3          	add	x15,x15,x15
    80002c60:	09078283          	lb	x5,144(x15) # 40010090 <_binary_lab4_test_bin_size+0x3ffeff84>
    80002c64:	005a81b3          	add	x3,x21,x5
    80002c68:	a7c2f993          	andi	x19,x5,-1412
    80002c6c:	341ee1f3          	csrrsi	x3,mepc,29
    80002c70:	40010a37          	lui	x20,0x40010
    80002c74:	014a0a33          	add	x20,x20,x20
    80002c78:	064a6903          	lwu	x18,100(x20) # 40010064 <_binary_lab4_test_bin_size+0x3ffeff58>
    80002c7c:	00c68c33          	add	x24,x13,x12
    80002c80:	40010337          	lui	x6,0x40010
    80002c84:	00630333          	add	x6,x6,x6
    80002c88:	10030313          	addi	x6,x6,256 # 40010100 <_binary_lab4_test_bin_size+0x3ffefff4>
    80002c8c:	fd934183          	lbu	x3,-39(x6)
    80002c90:	01c1e633          	or	x12,x3,x28
    80002c94:	40f60133          	sub	x2,x12,x15
    80002c98:	400100b7          	lui	x1,0x40010
    80002c9c:	001080b3          	add	x1,x1,x1
    80002ca0:	03209e23          	sh	x18,60(x1) # 4001003c <_binary_lab4_test_bin_size+0x3ffeff30>
    80002ca4:	400104b7          	lui	x9,0x40010
    80002ca8:	009484b3          	add	x9,x9,x9
    80002cac:	07b4b823          	sd	x27,112(x9) # 40010070 <_binary_lab4_test_bin_size+0x3ffeff64>
    80002cb0:	41190f33          	sub	x30,x18,x17
    80002cb4:	01086eb3          	or	x29,x16,x16
    80002cb8:	34b87193          	andi	x3,x16,843
    80002cbc:	01c287bb          	addw	x15,x5,x28
    80002cc0:	40010bb7          	lui	x23,0x40010
    80002cc4:	017b8bb3          	add	x23,x23,x23
    80002cc8:	030b8a23          	sb	x16,52(x23) # 40010034 <_binary_lab4_test_bin_size+0x3ffeff28>
    80002ccc:	51a88713          	addi	x14,x17,1306
    80002cd0:	407b8733          	sub	x14,x23,x7
    80002cd4:	f5efca13          	xori	x20,x31,-162
    80002cd8:	40010737          	lui	x14,0x40010
    80002cdc:	00e70733          	add	x14,x14,x14
    80002ce0:	10070713          	addi	x14,x14,256 # 40010100 <_binary_lab4_test_bin_size+0x3ffefff4>
    80002ce4:	f6a75a03          	lhu	x20,-150(x14)
    80002ce8:	414402b3          	sub	x5,x8,x20
    80002cec:	0151ef33          	or	x30,x3,x21
    80002cf0:	e3cf7013          	andi	x0,x30,-452
    80002cf4:	400106b7          	lui	x13,0x40010
    80002cf8:	00d686b3          	add	x13,x13,x13
    80002cfc:	0186da83          	lhu	x21,24(x13) # 40010018 <_binary_lab4_test_bin_size+0x3ffeff0c>
    80002d00:	400103b7          	lui	x7,0x40010
    80002d04:	007383b3          	add	x7,x7,x7
    80002d08:	0e83be83          	ld	x29,232(x7) # 400100e8 <_binary_lab4_test_bin_size+0x3ffeffdc>
    80002d0c:	01224eb3          	xor	x29,x4,x18
    80002d10:	fae8c113          	xori	x2,x17,-82
    80002d14:	40010537          	lui	x10,0x40010
    80002d18:	00a50533          	add	x10,x10,x10
    80002d1c:	0d354703          	lbu	x14,211(x10) # 400100d3 <_binary_lab4_test_bin_size+0x3ffeffc7>
    80002d20:	013ee733          	or	x14,x29,x19
    80002d24:	40010db7          	lui	x27,0x40010
    80002d28:	01bd8db3          	add	x27,x27,x27
    80002d2c:	100d8d93          	addi	x27,x27,256 # 40010100 <_binary_lab4_test_bin_size+0x3ffefff4>
    80002d30:	f0cda183          	lw	x3,-244(x27)
    80002d34:	3421e273          	csrrsi	x4,mcause,3
    80002d38:	40d00133          	neg	x2,x13
    80002d3c:	40010e37          	lui	x28,0x40010
    80002d40:	01ce0e33          	add	x28,x28,x28
    80002d44:	100e0e13          	addi	x28,x28,256 # 40010100 <_binary_lab4_test_bin_size+0x3ffefff4>
    80002d48:	f48e6903          	lwu	x18,-184(x28)
    80002d4c:	4161cb13          	xori	x22,x3,1046
    80002d50:	40010437          	lui	x8,0x40010
    80002d54:	00840433          	add	x8,x8,x8
    80002d58:	10040413          	addi	x8,x8,256 # 40010100 <_binary_lab4_test_bin_size+0x3ffefff4>
    80002d5c:	f8c46b03          	lwu	x22,-116(x8)
    80002d60:	014b0d3b          	addw	x26,x22,x20
    80002d64:	bfe0841b          	addiw	x8,x1,-1026
    80002d68:	372e6d93          	ori	x27,x28,882
    80002d6c:	b8c9fb93          	andi	x23,x19,-1140
    80002d70:	40010137          	lui	x2,0x40010
    80002d74:	00210133          	add	x2,x2,x2
    80002d78:	10010113          	addi	x2,x2,256 # 40010100 <_binary_lab4_test_bin_size+0x3ffefff4>
    80002d7c:	f8416703          	lwu	x14,-124(x2)
    80002d80:	304f79f3          	csrrci	x19,mie,30
    80002d84:	8859079b          	addiw	x15,x18,-1915
    80002d88:	343ff3f3          	csrrci	x7,mtval,31
    80002d8c:	b65dfe93          	andi	x29,x27,-1179
    80002d90:	400103b7          	lui	x7,0x40010
    80002d94:	007383b3          	add	x7,x7,x7
    80002d98:	10038393          	addi	x7,x7,256 # 40010100 <_binary_lab4_test_bin_size+0x3ffefff4>
    80002d9c:	f283a903          	lw	x18,-216(x7)
    80002da0:	400101b7          	lui	x3,0x40010
    80002da4:	003181b3          	add	x3,x3,x3
    80002da8:	10018193          	addi	x3,x3,256 # 40010100 <_binary_lab4_test_bin_size+0x3ffefff4>
    80002dac:	f6d1aa23          	sw	x13,-140(x3)
    80002db0:	415b8633          	sub	x12,x23,x21
    80002db4:	40010237          	lui	x4,0x40010
    80002db8:	00420233          	add	x4,x4,x4
    80002dbc:	0b323023          	sd	x19,160(x4) # 400100a0 <_binary_lab4_test_bin_size+0x3ffeff94>
    80002dc0:	00ddf433          	and	x8,x27,x13
    80002dc4:	40fd09bb          	subw	x19,x26,x15
    80002dc8:	304ce173          	csrrsi	x2,mie,25
    80002dcc:	343af7f3          	csrrci	x15,mtval,21
    80002dd0:	00968833          	add	x16,x13,x9
    80002dd4:	341954f3          	csrrwi	x9,mepc,18
    80002dd8:	00e7c933          	xor	x18,x15,x14
    80002ddc:	0015fb33          	and	x22,x11,x1
    80002de0:	343019f3          	csrrw	x19,mtval,x0
    80002de4:	41030cbb          	subw	x25,x6,x16
    80002de8:	30467573          	csrrci	x10,mie,12
    80002dec:	40010f37          	lui	x30,0x40010
    80002df0:	01ef0f33          	add	x30,x30,x30
    80002df4:	0d6f2223          	sw	x22,196(x30) # 400100c4 <_binary_lab4_test_bin_size+0x3ffeffb8>
    80002df8:	40010f37          	lui	x30,0x40010
    80002dfc:	01ef0f33          	add	x30,x30,x30
    80002e00:	100f0f13          	addi	x30,x30,256 # 40010100 <_binary_lab4_test_bin_size+0x3ffefff4>
    80002e04:	fdef5983          	lhu	x19,-34(x30)
    80002e08:	30549f73          	csrrw	x30,mtvec,x9
    80002e0c:	400103b7          	lui	x7,0x40010
    80002e10:	007383b3          	add	x7,x7,x7
    80002e14:	09d3cb03          	lbu	x22,157(x7) # 4001009d <_binary_lab4_test_bin_size+0x3ffeff91>
    80002e18:	40790b3b          	subw	x22,x18,x7
    80002e1c:	40010937          	lui	x18,0x40010
    80002e20:	01290933          	add	x18,x18,x18
    80002e24:	06c92c23          	sw	x12,120(x18) # 40010078 <_binary_lab4_test_bin_size+0x3ffeff6c>
    80002e28:	400109b7          	lui	x19,0x40010
    80002e2c:	013989b3          	add	x19,x19,x19
    80002e30:	10098993          	addi	x19,x19,256 # 40010100 <_binary_lab4_test_bin_size+0x3ffefff4>
    80002e34:	f9099383          	lh	x7,-112(x19)
    80002e38:	400105b7          	lui	x11,0x40010
    80002e3c:	00b585b3          	add	x11,x11,x11
    80002e40:	0d05e683          	lwu	x13,208(x11) # 400100d0 <_binary_lab4_test_bin_size+0x3ffeffc4>
    80002e44:	415300b3          	sub	x1,x6,x21
    80002e48:	3447d173          	csrrwi	x2,mip,15
    80002e4c:	40010a37          	lui	x20,0x40010
    80002e50:	014a0a33          	add	x20,x20,x20
    80002e54:	100a0a13          	addi	x20,x20,256 # 40010100 <_binary_lab4_test_bin_size+0x3ffefff4>
    80002e58:	f83a0fa3          	sb	x3,-97(x20)
    80002e5c:	400100b7          	lui	x1,0x40010
    80002e60:	001080b3          	add	x1,x1,x1
    80002e64:	10008093          	addi	x1,x1,256 # 40010100 <_binary_lab4_test_bin_size+0x3ffefff4>
    80002e68:	f5c0c683          	lbu	x13,-164(x1)
    80002e6c:	400104b7          	lui	x9,0x40010
    80002e70:	009484b3          	add	x9,x9,x9
    80002e74:	10048493          	addi	x9,x9,256 # 40010100 <_binary_lab4_test_bin_size+0x3ffefff4>
    80002e78:	faf4a023          	sw	x15,-96(x9)
    80002e7c:	408309bb          	subw	x19,x6,x8
    80002e80:	40010fb7          	lui	x31,0x40010
    80002e84:	01ff8fb3          	add	x31,x31,x31
    80002e88:	100f8f93          	addi	x31,x31,256 # 40010100 <_binary_lab4_test_bin_size+0x3ffefff4>
    80002e8c:	f68fa903          	lw	x18,-152(x31)
    80002e90:	305612f3          	csrrw	x5,mtvec,x12
    80002e94:	4329f093          	andi	x1,x19,1074
    80002e98:	40010a37          	lui	x20,0x40010
    80002e9c:	014a0a33          	add	x20,x20,x20
    80002ea0:	01aa5b03          	lhu	x22,26(x20) # 4001001a <_binary_lab4_test_bin_size+0x3ffeff0e>
    80002ea4:	00ec0b3b          	addw	x22,x24,x14
    80002ea8:	00e375b3          	and	x11,x6,x14
    80002eac:	40010f37          	lui	x30,0x40010
    80002eb0:	01ef0f33          	add	x30,x30,x30
    80002eb4:	00df03a3          	sb	x13,7(x30) # 40010007 <_binary_lab4_test_bin_size+0x3ffefefb>
    80002eb8:	40010c37          	lui	x24,0x40010
    80002ebc:	018c0c33          	add	x24,x24,x24
    80002ec0:	0a8c3d83          	ld	x27,168(x24) # 400100a8 <_binary_lab4_test_bin_size+0x3ffeff9c>
    80002ec4:	473c089b          	addiw	x17,x24,1139
    80002ec8:	304e58f3          	csrrwi	x17,mie,28
    80002ecc:	00e106b3          	add	x13,x2,x14
    80002ed0:	343f1a73          	csrrw	x20,mtval,x30
    80002ed4:	400101b7          	lui	x3,0x40010
    80002ed8:	003181b3          	add	x3,x3,x3
    80002edc:	0291a223          	sw	x9,36(x3) # 40010024 <_binary_lab4_test_bin_size+0x3ffeff18>
    80002ee0:	a13ff993          	andi	x19,x31,-1517
    80002ee4:	01987ab3          	and	x21,x16,x25
    80002ee8:	6be88d93          	addi	x27,x17,1726
    80002eec:	40010e37          	lui	x28,0x40010
    80002ef0:	01ce0e33          	add	x28,x28,x28
    80002ef4:	05fe0ba3          	sb	x31,87(x28) # 40010057 <_binary_lab4_test_bin_size+0x3ffeff4b>
    80002ef8:	40010237          	lui	x4,0x40010
    80002efc:	00420233          	add	x4,x4,x4
    80002f00:	08f24583          	lbu	x11,143(x4) # 4001008f <_binary_lab4_test_bin_size+0x3ffeff83>
    80002f04:	17258593          	addi	x11,x11,370
    80002f08:	41b488b3          	sub	x17,x9,x27
    80002f0c:	40010137          	lui	x2,0x40010
    80002f10:	00210133          	add	x2,x2,x2
    80002f14:	10010113          	addi	x2,x2,256 # 40010100 <_binary_lab4_test_bin_size+0x3ffefff4>
    80002f18:	f8c13823          	sd	x12,-112(x2)
    80002f1c:	400104b7          	lui	x9,0x40010
    80002f20:	009484b3          	add	x9,x9,x9
    80002f24:	0604ea03          	lwu	x20,96(x9) # 40010060 <_binary_lab4_test_bin_size+0x3ffeff54>
    80002f28:	400100b7          	lui	x1,0x40010
    80002f2c:	001080b3          	add	x1,x1,x1
    80002f30:	10008093          	addi	x1,x1,256 # 40010100 <_binary_lab4_test_bin_size+0x3ffefff4>
    80002f34:	f940e583          	lwu	x11,-108(x1)
    80002f38:	40010e37          	lui	x28,0x40010
    80002f3c:	01ce0e33          	add	x28,x28,x28
    80002f40:	100e0e13          	addi	x28,x28,256 # 40010100 <_binary_lab4_test_bin_size+0x3ffefff4>
    80002f44:	f28e6a03          	lwu	x20,-216(x28)
    80002f48:	01ce7b93          	andi	x23,x28,28
    80002f4c:	0074013b          	addw	x2,x8,x7
    80002f50:	40010eb7          	lui	x29,0x40010
    80002f54:	01de8eb3          	add	x29,x29,x29
    80002f58:	0c5ea623          	sw	x5,204(x29) # 400100cc <_binary_lab4_test_bin_size+0x3ffeffc0>
    80002f5c:	0a2a7093          	andi	x1,x20,162
    80002f60:	001cfc33          	and	x24,x25,x1
    80002f64:	4b0bca13          	xori	x20,x23,1200
    80002f68:	40010ab7          	lui	x21,0x40010
    80002f6c:	015a8ab3          	add	x21,x21,x21
    80002f70:	08cae683          	lwu	x13,140(x21) # 4001008c <_binary_lab4_test_bin_size+0x3ffeff80>
    80002f74:	016305bb          	addw	x11,x6,x22
    80002f78:	40010a37          	lui	x20,0x40010
    80002f7c:	014a0a33          	add	x20,x20,x20
    80002f80:	024a6403          	lwu	x8,36(x20) # 40010024 <_binary_lab4_test_bin_size+0x3ffeff18>
    80002f84:	40010db7          	lui	x27,0x40010
    80002f88:	01bd8db3          	add	x27,x27,x27
    80002f8c:	092d8d03          	lb	x26,146(x27) # 40010092 <_binary_lab4_test_bin_size+0x3ffeff86>
    80002f90:	01a879b3          	and	x19,x16,x26
    80002f94:	400106b7          	lui	x13,0x40010
    80002f98:	00d686b3          	add	x13,x13,x13
    80002f9c:	10068693          	addi	x13,x13,256 # 40010100 <_binary_lab4_test_bin_size+0x3ffefff4>
    80002fa0:	fdc6d803          	lhu	x16,-36(x13)
    80002fa4:	41630833          	sub	x16,x6,x22
    80002fa8:	fd8a061b          	addiw	x12,x20,-40
    80002fac:	342f1c73          	csrrw	x24,mcause,x30
    80002fb0:	40010a37          	lui	x20,0x40010
    80002fb4:	014a0a33          	add	x20,x20,x20
    80002fb8:	100a0a13          	addi	x20,x20,256 # 40010100 <_binary_lab4_test_bin_size+0x3ffefff4>
    80002fbc:	f50a6883          	lwu	x17,-176(x20)
    80002fc0:	400103b7          	lui	x7,0x40010
    80002fc4:	007383b3          	add	x7,x7,x7
    80002fc8:	05f39723          	sh	x31,78(x7) # 4001004e <_binary_lab4_test_bin_size+0x3ffeff42>
    80002fcc:	40010d37          	lui	x26,0x40010
    80002fd0:	01ad0d33          	add	x26,x26,x26
    80002fd4:	0b8d0123          	sb	x24,162(x26) # 400100a2 <_binary_lab4_test_bin_size+0x3ffeff96>
    80002fd8:	40010337          	lui	x6,0x40010
    80002fdc:	00630333          	add	x6,x6,x6
    80002fe0:	06634b03          	lbu	x22,102(x6) # 40010066 <_binary_lab4_test_bin_size+0x3ffeff5a>
    80002fe4:	41c90833          	sub	x16,x18,x28
    80002fe8:	41eb0abb          	subw	x21,x22,x30
    80002fec:	402381b3          	sub	x3,x7,x2
    80002ff0:	018509bb          	addw	x19,x10,x24
    80002ff4:	40010537          	lui	x10,0x40010
    80002ff8:	00a50533          	add	x10,x10,x10
    80002ffc:	10050513          	addi	x10,x10,256 # 40010100 <_binary_lab4_test_bin_size+0x3ffefff4>
    80003000:	ff856283          	lwu	x5,-8(x10)
    80003004:	dc52ca93          	xori	x21,x5,-571
    80003008:	40010137          	lui	x2,0x40010
    8000300c:	00210133          	add	x2,x2,x2
    80003010:	0bc13423          	sd	x28,168(x2) # 400100a8 <_binary_lab4_test_bin_size+0x3ffeff9c>
    80003014:	01e8c3b3          	xor	x7,x17,x30
    80003018:	c2656213          	ori	x4,x10,-986
    8000301c:	400103b7          	lui	x7,0x40010
    80003020:	007383b3          	add	x7,x7,x7
    80003024:	0cd3aa23          	sw	x13,212(x7) # 400100d4 <_binary_lab4_test_bin_size+0x3ffeffc8>
    80003028:	400100b7          	lui	x1,0x40010
    8000302c:	001080b3          	add	x1,x1,x1
    80003030:	10008093          	addi	x1,x1,256 # 40010100 <_binary_lab4_test_bin_size+0x3ffefff4>
    80003034:	f5908a83          	lb	x21,-167(x1)
    80003038:	78ea881b          	addiw	x16,x21,1934
    8000303c:	01be4633          	xor	x12,x28,x27
    80003040:	3056f1f3          	csrrci	x3,mtvec,13
    80003044:	400101b7          	lui	x3,0x40010
    80003048:	003181b3          	add	x3,x3,x3
    8000304c:	10018193          	addi	x3,x3,256 # 40010100 <_binary_lab4_test_bin_size+0x3ffefff4>
    80003050:	f601de83          	lhu	x29,-160(x3)
    80003054:	343e71f3          	csrrci	x3,mtval,28
    80003058:	402003bb          	negw	x7,x2
    8000305c:	01c2c933          	xor	x18,x5,x28
    80003060:	e3dcc613          	xori	x12,x25,-451
    80003064:	d0700a1b          	addiw	x20,x0,-761
    80003068:	40010b37          	lui	x22,0x40010
    8000306c:	016b0b33          	add	x22,x22,x22
    80003070:	100b0b13          	addi	x22,x22,256 # 40010100 <_binary_lab4_test_bin_size+0x3ffefff4>
    80003074:	f8cb6d83          	lwu	x27,-116(x22)
    80003078:	40010237          	lui	x4,0x40010
    8000307c:	00420233          	add	x4,x4,x4
    80003080:	10020213          	addi	x4,x4,256 # 40010100 <_binary_lab4_test_bin_size+0x3ffefff4>
    80003084:	fe026183          	lwu	x3,-32(x4) # ffffffffffffffe0 <_binary_lab4_test_bin_end+0xffffffff7ffdfed4>
    80003088:	003b4a33          	xor	x20,x22,x3
    8000308c:	305ddef3          	csrrwi	x29,mtvec,27
    80003090:	40010b37          	lui	x22,0x40010
    80003094:	016b0b33          	add	x22,x22,x22
    80003098:	100b0b13          	addi	x22,x22,256 # 40010100 <_binary_lab4_test_bin_size+0x3ffefff4>
    8000309c:	f56b2423          	sw	x22,-184(x22)
    800030a0:	341ef573          	csrrci	x10,mepc,29
    800030a4:	40010eb7          	lui	x29,0x40010
    800030a8:	01de8eb3          	add	x29,x29,x29
    800030ac:	100e8e93          	addi	x29,x29,256 # 40010100 <_binary_lab4_test_bin_size+0x3ffefff4>
    800030b0:	fb8ee203          	lwu	x4,-72(x29)
    800030b4:	3cdf6c93          	ori	x25,x30,973
    800030b8:	40188f3b          	subw	x30,x17,x1
    800030bc:	341fe573          	csrrsi	x10,mepc,31
    800030c0:	342e6af3          	csrrsi	x21,mcause,28
    800030c4:	0060f0b3          	and	x1,x1,x6
    800030c8:	403d8cb3          	sub	x25,x27,x3
    800030cc:	40010937          	lui	x18,0x40010
    800030d0:	01290933          	add	x18,x18,x18
    800030d4:	10090913          	addi	x18,x18,256 # 40010100 <_binary_lab4_test_bin_size+0x3ffefff4>
    800030d8:	fe492623          	sw	x4,-20(x18)
    800030dc:	344ee6f3          	csrrsi	x13,mip,29
    800030e0:	00ef6fb3          	or	x31,x30,x14
    800030e4:	40010237          	lui	x4,0x40010
    800030e8:	00420233          	add	x4,x4,x4
    800030ec:	02422503          	lw	x10,36(x4) # 40010024 <_binary_lab4_test_bin_size+0x3ffeff18>
    800030f0:	4192853b          	subw	x10,x5,x25
    800030f4:	40010db7          	lui	x27,0x40010
    800030f8:	01bd8db3          	add	x27,x27,x27
    800030fc:	0f6dd983          	lhu	x19,246(x27) # 400100f6 <_binary_lab4_test_bin_size+0x3ffeffea>
    80003100:	40010537          	lui	x10,0x40010
    80003104:	00a50533          	add	x10,x10,x10
    80003108:	02a51983          	lh	x19,42(x10) # 4001002a <_binary_lab4_test_bin_size+0x3ffeff1e>
    8000310c:	400109b7          	lui	x19,0x40010
    80003110:	013989b3          	add	x19,x19,x19
    80003114:	10098993          	addi	x19,x19,256 # 40010100 <_binary_lab4_test_bin_size+0x3ffefff4>
    80003118:	f7299923          	sh	x18,-142(x19)
    8000311c:	343a6473          	csrrsi	x8,mtval,20
    80003120:	40010537          	lui	x10,0x40010
    80003124:	00a50533          	add	x10,x10,x10
    80003128:	03c51b83          	lh	x23,60(x10) # 4001003c <_binary_lab4_test_bin_size+0x3ffeff30>
    8000312c:	00617033          	and	x0,x2,x6
    80003130:	342c78f3          	csrrci	x17,mcause,24
    80003134:	400103b7          	lui	x7,0x40010
    80003138:	007383b3          	add	x7,x7,x7
    8000313c:	10038393          	addi	x7,x7,256 # 40010100 <_binary_lab4_test_bin_size+0x3ffefff4>
    80003140:	fa63aa23          	sw	x6,-76(x7)
    80003144:	c83e0c93          	addi	x25,x28,-893
    80003148:	00ade4b3          	or	x9,x27,x10
    8000314c:	40010137          	lui	x2,0x40010
    80003150:	00210133          	add	x2,x2,x2
    80003154:	0ad13423          	sd	x13,168(x2) # 400100a8 <_binary_lab4_test_bin_size+0x3ffeff9c>
    80003158:	40ef8233          	sub	x4,x31,x14
    8000315c:	40010cb7          	lui	x25,0x40010
    80003160:	019c8cb3          	add	x25,x25,x25
    80003164:	0bcc9783          	lh	x15,188(x25) # 400100bc <_binary_lab4_test_bin_size+0x3ffeffb0>
    80003168:	40010937          	lui	x18,0x40010
    8000316c:	01290933          	add	x18,x18,x18
    80003170:	10090913          	addi	x18,x18,256 # 40010100 <_binary_lab4_test_bin_size+0x3ffefff4>
    80003174:	ffe91f83          	lh	x31,-2(x18)
    80003178:	40010eb7          	lui	x29,0x40010
    8000317c:	01de8eb3          	add	x29,x29,x29
    80003180:	070eb503          	ld	x10,112(x29) # 40010070 <_binary_lab4_test_bin_size+0x3ffeff64>
    80003184:	e9657613          	andi	x12,x10,-362
    80003188:	40010a37          	lui	x20,0x40010
    8000318c:	014a0a33          	add	x20,x20,x20
    80003190:	100a0a13          	addi	x20,x20,256 # 40010100 <_binary_lab4_test_bin_size+0x3ffefff4>
    80003194:	fe0a4383          	lbu	x7,-32(x20)
    80003198:	1c8e891b          	addiw	x18,x29,456
    8000319c:	400104b7          	lui	x9,0x40010
    800031a0:	009484b3          	add	x9,x9,x9
    800031a4:	07449f03          	lh	x30,116(x9) # 40010074 <_binary_lab4_test_bin_size+0x3ffeff68>
    800031a8:	01e9fd33          	and	x26,x19,x30
    800031ac:	61f7e613          	ori	x12,x15,1567
    800031b0:	9cf96a13          	ori	x20,x18,-1585
    800031b4:	40010b37          	lui	x22,0x40010
    800031b8:	016b0b33          	add	x22,x22,x22
    800031bc:	100b0b13          	addi	x22,x22,256 # 40010100 <_binary_lab4_test_bin_size+0x3ffefff4>
    800031c0:	f9fb3423          	sd	x31,-120(x22)
    800031c4:	0a797113          	andi	x2,x18,167
    800031c8:	15bfc293          	xori	x5,x31,347
    800031cc:	40010137          	lui	x2,0x40010
    800031d0:	00210133          	add	x2,x2,x2
    800031d4:	10010113          	addi	x2,x2,256 # 40010100 <_binary_lab4_test_bin_size+0x3ffefff4>
    800031d8:	f2813383          	ld	x7,-216(x2)
    800031dc:	68554c93          	xori	x25,x10,1669
    800031e0:	eded6013          	ori	x0,x26,-290
    800031e4:	304f12f3          	csrrw	x5,mie,x30
    800031e8:	41000293          	li	x5,1040
    800031ec:	40010637          	lui	x12,0x40010
    800031f0:	00c60633          	add	x12,x12,x12
    800031f4:	01c62c03          	lw	x24,28(x12) # 4001001c <_binary_lab4_test_bin_size+0x3ffeff10>
    800031f8:	b12c6113          	ori	x2,x24,-1262
    800031fc:	400109b7          	lui	x19,0x40010
    80003200:	013989b3          	add	x19,x19,x19
    80003204:	10098993          	addi	x19,x19,256 # 40010100 <_binary_lab4_test_bin_size+0x3ffefff4>
    80003208:	f249bc23          	sd	x4,-200(x19)
    8000320c:	400101b7          	lui	x3,0x40010
    80003210:	003181b3          	add	x3,x3,x3
    80003214:	10018193          	addi	x3,x3,256 # 40010100 <_binary_lab4_test_bin_size+0x3ffefff4>
    80003218:	f901af03          	lw	x30,-112(x3)
    8000321c:	8f740813          	addi	x16,x8,-1801
    80003220:	40010ab7          	lui	x21,0x40010
    80003224:	015a8ab3          	add	x21,x21,x21
    80003228:	0d3aac23          	sw	x19,216(x21) # 400100d8 <_binary_lab4_test_bin_size+0x3ffeffcc>
    8000322c:	01f8feb3          	and	x29,x17,x31
    80003230:	40010db7          	lui	x27,0x40010
    80003234:	01bd8db3          	add	x27,x27,x27
    80003238:	064dd903          	lhu	x18,100(x27) # 40010064 <_binary_lab4_test_bin_size+0x3ffeff58>
    8000323c:	a245f913          	andi	x18,x11,-1500
    80003240:	400108b7          	lui	x17,0x40010
    80003244:	011888b3          	add	x17,x17,x17
    80003248:	033883a3          	sb	x19,39(x17) # 40010027 <_binary_lab4_test_bin_size+0x3ffeff1b>
    8000324c:	40010837          	lui	x16,0x40010
    80003250:	01080833          	add	x16,x16,x16
    80003254:	00d81223          	sh	x13,4(x16) # 40010004 <_binary_lab4_test_bin_size+0x3ffefef8>
    80003258:	40010537          	lui	x10,0x40010
    8000325c:	00a50533          	add	x10,x10,x10
    80003260:	08053803          	ld	x16,128(x10) # 40010080 <_binary_lab4_test_bin_size+0x3ffeff74>
    80003264:	40010d37          	lui	x26,0x40010
    80003268:	01ad0d33          	add	x26,x26,x26
    8000326c:	100d0d13          	addi	x26,x26,256 # 40010100 <_binary_lab4_test_bin_size+0x3ffefff4>
    80003270:	f06d5f83          	lhu	x31,-250(x26)
    80003274:	ebf5ff13          	andi	x30,x11,-321
    80003278:	40010337          	lui	x6,0x40010
    8000327c:	00630333          	add	x6,x6,x6
    80003280:	10030313          	addi	x6,x6,256 # 40010100 <_binary_lab4_test_bin_size+0x3ffefff4>
    80003284:	f34302a3          	sb	x20,-219(x6)
    80003288:	304058f3          	csrrwi	x17,mie,0
    8000328c:	40010737          	lui	x14,0x40010
    80003290:	00e70733          	add	x14,x14,x14
    80003294:	0cb72a23          	sw	x11,212(x14) # 400100d4 <_binary_lab4_test_bin_size+0x3ffeffc8>
    80003298:	40010c37          	lui	x24,0x40010
    8000329c:	018c0c33          	add	x24,x24,x24
    800032a0:	0f8c3083          	ld	x1,248(x24) # 400100f8 <_binary_lab4_test_bin_size+0x3ffeffec>
    800032a4:	0014f0b3          	and	x1,x9,x1
    800032a8:	400104b7          	lui	x9,0x40010
    800032ac:	009484b3          	add	x9,x9,x9
    800032b0:	0e44d403          	lhu	x8,228(x9) # 400100e4 <_binary_lab4_test_bin_size+0x3ffeffd8>
    800032b4:	40010137          	lui	x2,0x40010
    800032b8:	00210133          	add	x2,x2,x2
    800032bc:	10010113          	addi	x2,x2,256 # 40010100 <_binary_lab4_test_bin_size+0x3ffefff4>
    800032c0:	f8015603          	lhu	x12,-128(x2)
    800032c4:	00c8fd33          	and	x26,x17,x12
    800032c8:	0120f3b3          	and	x7,x1,x18
    800032cc:	40d5823b          	subw	x4,x11,x13
    800032d0:	343e71f3          	csrrci	x3,mtval,28
    800032d4:	0199efb3          	or	x31,x19,x25
    800032d8:	40600f3b          	negw	x30,x6
    800032dc:	612f7d13          	andi	x26,x30,1554
    800032e0:	0033c533          	xor	x10,x7,x3
    800032e4:	0019ecb3          	or	x25,x19,x1
    800032e8:	40010f37          	lui	x30,0x40010
    800032ec:	01ef0f33          	add	x30,x30,x30
    800032f0:	075f0083          	lb	x1,117(x30) # 40010075 <_binary_lab4_test_bin_size+0x3ffeff69>
    800032f4:	ef70c093          	xori	x1,x1,-265
    800032f8:	007a61b3          	or	x3,x20,x7
    800032fc:	40010437          	lui	x8,0x40010
    80003300:	00840433          	add	x8,x8,x8
    80003304:	00e41523          	sh	x14,10(x8) # 4001000a <_binary_lab4_test_bin_size+0x3ffefefe>
    80003308:	ab33cd93          	xori	x27,x7,-1357
    8000330c:	403806b3          	sub	x13,x16,x3
    80003310:	5d4bcb13          	xori	x22,x23,1492
    80003314:	40010437          	lui	x8,0x40010
    80003318:	00840433          	add	x8,x8,x8
    8000331c:	10040413          	addi	x8,x8,256 # 40010100 <_binary_lab4_test_bin_size+0x3ffefff4>
    80003320:	f9f404a3          	sb	x31,-119(x8)
    80003324:	7ba4f693          	andi	x13,x9,1978
    80003328:	00d90ab3          	add	x21,x18,x13
    8000332c:	5100879b          	addiw	x15,x1,1296
    80003330:	00fe8233          	add	x4,x29,x15
    80003334:	40010637          	lui	x12,0x40010
    80003338:	00c60633          	add	x12,x12,x12
    8000333c:	10060613          	addi	x12,x12,256 # 40010100 <_binary_lab4_test_bin_size+0x3ffefff4>
    80003340:	f6b60323          	sb	x11,-154(x12)
    80003344:	400102b7          	lui	x5,0x40010
    80003348:	005282b3          	add	x5,x5,x5
    8000334c:	02a2d703          	lhu	x14,42(x5) # 4001002a <_binary_lab4_test_bin_size+0x3ffeff1e>
    80003350:	0168c533          	xor	x10,x17,x22
    80003354:	40a684b3          	sub	x9,x13,x10
    80003358:	81590f1b          	addiw	x30,x18,-2027
    8000335c:	40010337          	lui	x6,0x40010
    80003360:	00630333          	add	x6,x6,x6
    80003364:	10030313          	addi	x6,x6,256 # 40010100 <_binary_lab4_test_bin_size+0x3ffefff4>
    80003368:	fe834983          	lbu	x19,-24(x6)
    8000336c:	d1c60d13          	addi	x26,x12,-740
    80003370:	40010db7          	lui	x27,0x40010
    80003374:	01bd8db3          	add	x27,x27,x27
    80003378:	100d8d93          	addi	x27,x27,256 # 40010100 <_binary_lab4_test_bin_size+0x3ffefff4>
    8000337c:	f90db783          	ld	x15,-112(x27)
    80003380:	40010eb7          	lui	x29,0x40010
    80003384:	01de8eb3          	add	x29,x29,x29
    80003388:	100e8e93          	addi	x29,x29,256 # 40010100 <_binary_lab4_test_bin_size+0x3ffefff4>
    8000338c:	fd7eb023          	sd	x23,-64(x29)
    80003390:	3de6c213          	xori	x4,x13,990
    80003394:	00f57833          	and	x16,x10,x15
    80003398:	400108b7          	lui	x17,0x40010
    8000339c:	011888b3          	add	x17,x17,x17
    800033a0:	0188ac83          	lw	x25,24(x17) # 40010018 <_binary_lab4_test_bin_size+0x3ffeff0c>
    800033a4:	409c8833          	sub	x16,x25,x9
    800033a8:	00977ab3          	and	x21,x14,x9
    800033ac:	441c7593          	andi	x11,x24,1089
    800033b0:	40010bb7          	lui	x23,0x40010
    800033b4:	017b8bb3          	add	x23,x23,x23
    800033b8:	100b8b93          	addi	x23,x23,256 # 40010100 <_binary_lab4_test_bin_size+0x3ffefff4>
    800033bc:	f2bbc603          	lbu	x12,-213(x23)
    800033c0:	00264133          	xor	x2,x12,x2
    800033c4:	344416f3          	csrrw	x13,mip,x8
    800033c8:	69737c13          	andi	x24,x6,1687
    800033cc:	400101b7          	lui	x3,0x40010
    800033d0:	003181b3          	add	x3,x3,x3
    800033d4:	10018193          	addi	x3,x3,256 # 40010100 <_binary_lab4_test_bin_size+0x3ffefff4>
    800033d8:	f5c18003          	lb	x0,-164(x3)
    800033dc:	52ef0213          	addi	x4,x30,1326
    800033e0:	40010fb7          	lui	x31,0x40010
    800033e4:	01ff8fb3          	add	x31,x31,x31
    800033e8:	048fe783          	lwu	x15,72(x31) # 40010048 <_binary_lab4_test_bin_size+0x3ffeff3c>
    800033ec:	00fa0e33          	add	x28,x20,x15
    800033f0:	41a0093b          	negw	x18,x26
    800033f4:	34409ff3          	csrrw	x31,mip,x1
    800033f8:	34195ef3          	csrrwi	x29,mepc,18
    800033fc:	40010cb7          	lui	x25,0x40010
    80003400:	019c8cb3          	add	x25,x25,x25
    80003404:	100c8c93          	addi	x25,x25,256 # 40010100 <_binary_lab4_test_bin_size+0x3ffefff4>
    80003408:	fe8ce183          	lwu	x3,-24(x25)
    8000340c:	40010837          	lui	x16,0x40010
    80003410:	01080833          	add	x16,x16,x16
    80003414:	10080813          	addi	x16,x16,256 # 40010100 <_binary_lab4_test_bin_size+0x3ffefff4>
    80003418:	f3a81e23          	sh	x26,-196(x16)
    8000341c:	017dce33          	xor	x28,x27,x23
    80003420:	40010937          	lui	x18,0x40010
    80003424:	01290933          	add	x18,x18,x18
    80003428:	10090913          	addi	x18,x18,256 # 40010100 <_binary_lab4_test_bin_size+0x3ffefff4>
    8000342c:	f1295303          	lhu	x6,-238(x18)
    80003430:	8f8c0e93          	addi	x29,x24,-1800
    80003434:	017707bb          	addw	x15,x14,x23
    80003438:	40010f37          	lui	x30,0x40010
    8000343c:	01ef0f33          	add	x30,x30,x30
    80003440:	100f0f13          	addi	x30,x30,256 # 40010100 <_binary_lab4_test_bin_size+0x3ffefff4>
    80003444:	fa8f3e83          	ld	x29,-88(x30)
    80003448:	01d5ceb3          	xor	x29,x11,x29
    8000344c:	9107869b          	addiw	x13,x15,-1776
    80003450:	40010737          	lui	x14,0x40010
    80003454:	00e70733          	add	x14,x14,x14
    80003458:	10070713          	addi	x14,x14,256 # 40010100 <_binary_lab4_test_bin_size+0x3ffefff4>
    8000345c:	f9076503          	lwu	x10,-112(x14)
    80003460:	0021c8b3          	xor	x17,x3,x2
    80003464:	400108b7          	lui	x17,0x40010
    80003468:	011888b3          	add	x17,x17,x17
    8000346c:	10088893          	addi	x17,x17,256 # 40010100 <_binary_lab4_test_bin_size+0x3ffefff4>
    80003470:	fd088683          	lb	x13,-48(x17)
    80003474:	c9c84693          	xori	x13,x16,-868
    80003478:	3044da73          	csrrwi	x20,mie,9
    8000347c:	400106b7          	lui	x13,0x40010
    80003480:	00d686b3          	add	x13,x13,x13
    80003484:	10068693          	addi	x13,x13,256 # 40010100 <_binary_lab4_test_bin_size+0x3ffefff4>
    80003488:	fb86a483          	lw	x9,-72(x13)
    8000348c:	845af493          	andi	x9,x21,-1979
    80003490:	40338b3b          	subw	x22,x7,x3
    80003494:	0ba8ea93          	ori	x21,x17,186
    80003498:	305479f3          	csrrci	x19,mtvec,8
    8000349c:	40010eb7          	lui	x29,0x40010
    800034a0:	01de8eb3          	add	x29,x29,x29
    800034a4:	038eaf03          	lw	x30,56(x29) # 40010038 <_binary_lab4_test_bin_size+0x3ffeff2c>
    800034a8:	6914fd93          	andi	x27,x9,1681
    800034ac:	400105b7          	lui	x11,0x40010
    800034b0:	00b585b3          	add	x11,x11,x11
    800034b4:	10058593          	addi	x11,x11,256 # 40010100 <_binary_lab4_test_bin_size+0x3ffefff4>
    800034b8:	fc05af03          	lw	x30,-64(x11)
    800034bc:	40010ab7          	lui	x21,0x40010
    800034c0:	015a8ab3          	add	x21,x21,x21
    800034c4:	100a8a93          	addi	x21,x21,256 # 40010100 <_binary_lab4_test_bin_size+0x3ffefff4>
    800034c8:	005a8023          	sb	x5,0(x21)
    800034cc:	40010eb7          	lui	x29,0x40010
    800034d0:	01de8eb3          	add	x29,x29,x29
    800034d4:	100e8e93          	addi	x29,x29,256 # 40010100 <_binary_lab4_test_bin_size+0x3ffefff4>
    800034d8:	ff3ec403          	lbu	x8,-13(x29)
    800034dc:	00dc4533          	xor	x10,x24,x13
    800034e0:	400108b7          	lui	x17,0x40010
    800034e4:	011888b3          	add	x17,x17,x17
    800034e8:	03f89823          	sh	x31,48(x17) # 40010030 <_binary_lab4_test_bin_size+0x3ffeff24>
    800034ec:	cb97f893          	andi	x17,x15,-839
    800034f0:	40010db7          	lui	x27,0x40010
    800034f4:	01bd8db3          	add	x27,x27,x27
    800034f8:	100d8d93          	addi	x27,x27,256 # 40010100 <_binary_lab4_test_bin_size+0x3ffefff4>
    800034fc:	f82d8b83          	lb	x23,-126(x27)
    80003500:	417f84b3          	sub	x9,x31,x23
    80003504:	40010db7          	lui	x27,0x40010
    80003508:	01bd8db3          	add	x27,x27,x27
    8000350c:	0c7d8903          	lb	x18,199(x27) # 400100c7 <_binary_lab4_test_bin_size+0x3ffeffbb>
    80003510:	93b8c913          	xori	x18,x17,-1733
    80003514:	40010bb7          	lui	x23,0x40010
    80003518:	017b8bb3          	add	x23,x23,x23
    8000351c:	04fbc603          	lbu	x12,79(x23) # 4001004f <_binary_lab4_test_bin_size+0x3ffeff43>
    80003520:	40010637          	lui	x12,0x40010
    80003524:	00c60633          	add	x12,x12,x12
    80003528:	0aa60da3          	sb	x10,187(x12) # 400100bb <_binary_lab4_test_bin_size+0x3ffeffaf>
    8000352c:	400109b7          	lui	x19,0x40010
    80003530:	013989b3          	add	x19,x19,x19
    80003534:	10098993          	addi	x19,x19,256 # 40010100 <_binary_lab4_test_bin_size+0x3ffefff4>
    80003538:	f509a903          	lw	x18,-176(x19)
    8000353c:	40010937          	lui	x18,0x40010
    80003540:	01290933          	add	x18,x18,x18
    80003544:	04290b03          	lb	x22,66(x18) # 40010042 <_binary_lab4_test_bin_size+0x3ffeff36>
    80003548:	01167533          	and	x10,x12,x17
    8000354c:	400105b7          	lui	x11,0x40010
    80003550:	00b585b3          	add	x11,x11,x11
    80003554:	10058593          	addi	x11,x11,256 # 40010100 <_binary_lab4_test_bin_size+0x3ffefff4>
    80003558:	f8659983          	lh	x19,-122(x11)
    8000355c:	6c59f693          	andi	x13,x19,1733
    80003560:	40010337          	lui	x6,0x40010
    80003564:	00630333          	add	x6,x6,x6
    80003568:	0e436783          	lwu	x15,228(x6) # 400100e4 <_binary_lab4_test_bin_size+0x3ffeffd8>
    8000356c:	40fa8abb          	subw	x21,x21,x15
    80003570:	343a67f3          	csrrsi	x15,mtval,20
    80003574:	40010937          	lui	x18,0x40010
    80003578:	01290933          	add	x18,x18,x18
    8000357c:	10090913          	addi	x18,x18,256 # 40010100 <_binary_lab4_test_bin_size+0x3ffefff4>
    80003580:	f9b93423          	sd	x27,-120(x18)
    80003584:	01250d33          	add	x26,x10,x18
    80003588:	3413e6f3          	csrrsi	x13,mepc,7
    8000358c:	01dcecb3          	or	x25,x25,x29
    80003590:	400101b7          	lui	x3,0x40010
    80003594:	003181b3          	add	x3,x3,x3
    80003598:	0201b103          	ld	x2,32(x3) # 40010020 <_binary_lab4_test_bin_size+0x3ffeff14>
    8000359c:	092b8d13          	addi	x26,x23,146
    800035a0:	01934eb3          	xor	x29,x6,x25
    800035a4:	01e68833          	add	x16,x13,x30
    800035a8:	40010b37          	lui	x22,0x40010
    800035ac:	016b0b33          	add	x22,x22,x22
    800035b0:	100b0b13          	addi	x22,x22,256 # 40010100 <_binary_lab4_test_bin_size+0x3ffefff4>
    800035b4:	f11b2c23          	sw	x17,-232(x22)
    800035b8:	014ec533          	xor	x10,x29,x20
    800035bc:	6f9e7613          	andi	x12,x28,1785
    800035c0:	41c3013b          	subw	x2,x6,x28
    800035c4:	3059edf3          	csrrsi	x27,mtvec,19
    800035c8:	b8c4e893          	ori	x17,x9,-1140
    800035cc:	343061f3          	csrrsi	x3,mtval,0
    800035d0:	3429faf3          	csrrci	x21,mcause,19
    800035d4:	0115f1b3          	and	x3,x11,x17
    800035d8:	40010237          	lui	x4,0x40010
    800035dc:	00420233          	add	x4,x4,x4
    800035e0:	10020213          	addi	x4,x4,256 # 40010100 <_binary_lab4_test_bin_size+0x3ffefff4>
    800035e4:	f8822c83          	lw	x25,-120(x4) # ffffffffffffff88 <_binary_lab4_test_bin_end+0xffffffff7ffdfe7c>
    800035e8:	0193e233          	or	x4,x7,x25
    800035ec:	400109b7          	lui	x19,0x40010
    800035f0:	013989b3          	add	x19,x19,x19
    800035f4:	10098993          	addi	x19,x19,256 # 40010100 <_binary_lab4_test_bin_size+0x3ffefff4>
    800035f8:	f0c9cb03          	lbu	x22,-244(x19)
    800035fc:	00fb4a33          	xor	x20,x22,x15
    80003600:	3053daf3          	csrrwi	x21,mtvec,7
    80003604:	40010137          	lui	x2,0x40010
    80003608:	00210133          	add	x2,x2,x2
    8000360c:	063103a3          	sb	x3,103(x2) # 40010067 <_binary_lab4_test_bin_size+0x3ffeff5b>
    80003610:	40010c37          	lui	x24,0x40010
    80003614:	018c0c33          	add	x24,x24,x24
    80003618:	100c0c13          	addi	x24,x24,256 # 40010100 <_binary_lab4_test_bin_size+0x3ffefff4>
    8000361c:	f7ec1b23          	sh	x30,-138(x24)
    80003620:	91287993          	andi	x19,x16,-1774
    80003624:	0068053b          	addw	x10,x16,x6
    80003628:	40010e37          	lui	x28,0x40010
    8000362c:	01ce0e33          	add	x28,x28,x28
    80003630:	100e0e13          	addi	x28,x28,256 # 40010100 <_binary_lab4_test_bin_size+0x3ffefff4>
    80003634:	f54e2423          	sw	x20,-184(x28)
    80003638:	278a6493          	ori	x9,x20,632
    8000363c:	34236df3          	csrrsi	x27,mcause,6
    80003640:	40010437          	lui	x8,0x40010
    80003644:	00840433          	add	x8,x8,x8
    80003648:	10040413          	addi	x8,x8,256 # 40010100 <_binary_lab4_test_bin_size+0x3ffefff4>
    8000364c:	fd842b83          	lw	x23,-40(x8)
    80003650:	c97be193          	ori	x3,x23,-873
    80003654:	400107b7          	lui	x15,0x40010
    80003658:	00f787b3          	add	x15,x15,x15
    8000365c:	0bc7a103          	lw	x2,188(x15) # 400100bc <_binary_lab4_test_bin_size+0x3ffeffb0>
    80003660:	01b608bb          	addw	x17,x12,x27
    80003664:	40010837          	lui	x16,0x40010
    80003668:	01080833          	add	x16,x16,x16
    8000366c:	10080813          	addi	x16,x16,256 # 40010100 <_binary_lab4_test_bin_size+0x3ffefff4>
    80003670:	f4082683          	lw	x13,-192(x16)
    80003674:	0086e233          	or	x4,x13,x8
    80003678:	30537473          	csrrci	x8,mtvec,6
    8000367c:	418485bb          	subw	x11,x9,x24
    80003680:	342e76f3          	csrrci	x13,mcause,28
    80003684:	949a4d13          	xori	x26,x20,-1719
    80003688:	091d8e93          	addi	x29,x27,145
    8000368c:	0731899b          	addiw	x19,x3,115
    80003690:	40010637          	lui	x12,0x40010
    80003694:	00c60633          	add	x12,x12,x12
    80003698:	0ad63023          	sd	x13,160(x12) # 400100a0 <_binary_lab4_test_bin_size+0x3ffeff94>
    8000369c:	19b8ce13          	xori	x28,x17,411
    800036a0:	f8330b9b          	addiw	x23,x6,-125
    800036a4:	01b4ee33          	or	x28,x9,x27
    800036a8:	400102b7          	lui	x5,0x40010
    800036ac:	005282b3          	add	x5,x5,x5
    800036b0:	10028293          	addi	x5,x5,256 # 40010100 <_binary_lab4_test_bin_size+0x3ffefff4>
    800036b4:	fe02a483          	lw	x9,-32(x5)
    800036b8:	400107b7          	lui	x15,0x40010
    800036bc:	00f787b3          	add	x15,x15,x15
    800036c0:	10078793          	addi	x15,x15,256 # 40010100 <_binary_lab4_test_bin_size+0x3ffefff4>
    800036c4:	ffa7b423          	sd	x26,-24(x15)
    800036c8:	40010ab7          	lui	x21,0x40010
    800036cc:	015a8ab3          	add	x21,x21,x21
    800036d0:	100a8a93          	addi	x21,x21,256 # 40010100 <_binary_lab4_test_bin_size+0x3ffefff4>
    800036d4:	fe8ae103          	lwu	x2,-24(x21)
    800036d8:	01774133          	xor	x2,x14,x23
    800036dc:	408a013b          	subw	x2,x20,x8
    800036e0:	400102b7          	lui	x5,0x40010
    800036e4:	005282b3          	add	x5,x5,x5
    800036e8:	10028293          	addi	x5,x5,256 # 40010100 <_binary_lab4_test_bin_size+0x3ffefff4>
    800036ec:	f382e083          	lwu	x1,-200(x5)
    800036f0:	76828a1b          	addiw	x20,x5,1896
    800036f4:	40010ab7          	lui	x21,0x40010
    800036f8:	015a8ab3          	add	x21,x21,x21
    800036fc:	100a8a93          	addi	x21,x21,256 # 40010100 <_binary_lab4_test_bin_size+0x3ffefff4>
    80003700:	f0ead003          	lhu	x0,-242(x21)
    80003704:	342b9df3          	csrrw	x27,mcause,x23
    80003708:	40010537          	lui	x10,0x40010
    8000370c:	00a50533          	add	x10,x10,x10
    80003710:	05654783          	lbu	x15,86(x10) # 40010056 <_binary_lab4_test_bin_size+0x3ffeff4a>
    80003714:	348c0d9b          	addiw	x27,x24,840
    80003718:	40010437          	lui	x8,0x40010
    8000371c:	00840433          	add	x8,x8,x8
    80003720:	10040413          	addi	x8,x8,256 # 40010100 <_binary_lab4_test_bin_size+0x3ffefff4>
    80003724:	f9c41623          	sh	x28,-116(x8)
    80003728:	40010537          	lui	x10,0x40010
    8000372c:	00a50533          	add	x10,x10,x10
    80003730:	10050513          	addi	x10,x10,256 # 40010100 <_binary_lab4_test_bin_size+0x3ffefff4>
    80003734:	f9452f83          	lw	x31,-108(x10)
    80003738:	341299f3          	csrrw	x19,mepc,x5
    8000373c:	40010937          	lui	x18,0x40010
    80003740:	01290933          	add	x18,x18,x18
    80003744:	0e292023          	sw	x2,224(x18) # 400100e0 <_binary_lab4_test_bin_size+0x3ffeffd4>
    80003748:	1f81079b          	addiw	x15,x2,504
    8000374c:	400106b7          	lui	x13,0x40010
    80003750:	00d686b3          	add	x13,x13,x13
    80003754:	10068693          	addi	x13,x13,256 # 40010100 <_binary_lab4_test_bin_size+0x3ffefff4>
    80003758:	f606b383          	ld	x7,-160(x13)
    8000375c:	401903bb          	subw	x7,x18,x1
    80003760:	40010437          	lui	x8,0x40010
    80003764:	00840433          	add	x8,x8,x8
    80003768:	0bf43823          	sd	x31,176(x8) # 400100b0 <_binary_lab4_test_bin_size+0x3ffeffa4>
    8000376c:	f64e0213          	addi	x4,x28,-156
    80003770:	400103b7          	lui	x7,0x40010
    80003774:	007383b3          	add	x7,x7,x7
    80003778:	10038393          	addi	x7,x7,256 # 40010100 <_binary_lab4_test_bin_size+0x3ffefff4>
    8000377c:	f4c38623          	sb	x12,-180(x7)
    80003780:	304a71f3          	csrrci	x3,mie,20
    80003784:	400100b7          	lui	x1,0x40010
    80003788:	001080b3          	add	x1,x1,x1
    8000378c:	10008093          	addi	x1,x1,256 # 40010100 <_binary_lab4_test_bin_size+0x3ffefff4>
    80003790:	fdd0b423          	sd	x29,-56(x1)
    80003794:	40010fb7          	lui	x31,0x40010
    80003798:	01ff8fb3          	add	x31,x31,x31
    8000379c:	0e9f8923          	sb	x9,242(x31) # 400100f2 <_binary_lab4_test_bin_size+0x3ffeffe6>
    800037a0:	4155073b          	subw	x14,x10,x21
    800037a4:	00810fb3          	add	x31,x2,x8
    800037a8:	40010fb7          	lui	x31,0x40010
    800037ac:	01ff8fb3          	add	x31,x31,x31
    800037b0:	100f8f93          	addi	x31,x31,256 # 40010100 <_binary_lab4_test_bin_size+0x3ffefff4>
    800037b4:	f71f8903          	lb	x18,-143(x31)
    800037b8:	01267a33          	and	x20,x12,x18
    800037bc:	b5556a93          	ori	x21,x10,-1195
    800037c0:	011004b3          	add	x9,x0,x17
    800037c4:	400105b7          	lui	x11,0x40010
    800037c8:	00b585b3          	add	x11,x11,x11
    800037cc:	0445d883          	lhu	x17,68(x11) # 40010044 <_binary_lab4_test_bin_size+0x3ffeff38>
    800037d0:	40010f37          	lui	x30,0x40010
    800037d4:	01ef0f33          	add	x30,x30,x30
    800037d8:	03ff4e83          	lbu	x29,63(x30) # 4001003f <_binary_lab4_test_bin_size+0x3ffeff33>
    800037dc:	e03e8e9b          	addiw	x29,x29,-509
    800037e0:	40010f37          	lui	x30,0x40010
    800037e4:	01ef0f33          	add	x30,x30,x30
    800037e8:	008f2783          	lw	x15,8(x30) # 40010008 <_binary_lab4_test_bin_size+0x3ffefefc>
    800037ec:	0027c933          	xor	x18,x15,x2
    800037f0:	40db8c3b          	subw	x24,x23,x13
    800037f4:	0075c633          	xor	x12,x11,x7
    800037f8:	400103b7          	lui	x7,0x40010
    800037fc:	007383b3          	add	x7,x7,x7
    80003800:	0ca39883          	lh	x17,202(x7) # 400100ca <_binary_lab4_test_bin_size+0x3ffeffbe>
    80003804:	011ecb33          	xor	x22,x29,x17
    80003808:	007aee33          	or	x28,x21,x7
    8000380c:	3041d9f3          	csrrwi	x19,mie,3
    80003810:	40010f37          	lui	x30,0x40010
    80003814:	01ef0f33          	add	x30,x30,x30
    80003818:	0f6f1f23          	sh	x22,254(x30) # 400100fe <_binary_lab4_test_bin_size+0x3ffefff2>
    8000381c:	40010637          	lui	x12,0x40010
    80003820:	00c60633          	add	x12,x12,x12
    80003824:	10060613          	addi	x12,x12,256 # 40010100 <_binary_lab4_test_bin_size+0x3ffefff4>
    80003828:	f7063003          	ld	x0,-144(x12)
    8000382c:	34485e73          	csrrwi	x28,mip,16
    80003830:	40010937          	lui	x18,0x40010
    80003834:	01290933          	add	x18,x18,x18
    80003838:	10090913          	addi	x18,x18,256 # 40010100 <_binary_lab4_test_bin_size+0x3ffefff4>
    8000383c:	f0092903          	lw	x18,-256(x18)
    80003840:	40010ab7          	lui	x21,0x40010
    80003844:	015a8ab3          	add	x21,x21,x21
    80003848:	100a8a93          	addi	x21,x21,256 # 40010100 <_binary_lab4_test_bin_size+0x3ffefff4>
    8000384c:	f55a9d23          	sh	x21,-166(x21)
    80003850:	40010b37          	lui	x22,0x40010
    80003854:	016b0b33          	add	x22,x22,x22
    80003858:	090b6983          	lwu	x19,144(x22) # 40010090 <_binary_lab4_test_bin_size+0x3ffeff84>
    8000385c:	01efc9b3          	xor	x19,x31,x30
    80003860:	40010ab7          	lui	x21,0x40010
    80003864:	015a8ab3          	add	x21,x21,x21
    80003868:	010aa223          	sw	x16,4(x21) # 40010004 <_binary_lab4_test_bin_size+0x3ffefef8>
    8000386c:	400102b7          	lui	x5,0x40010
    80003870:	005282b3          	add	x5,x5,x5
    80003874:	10028293          	addi	x5,x5,256 # 40010100 <_binary_lab4_test_bin_size+0x3ffefff4>
    80003878:	fae29983          	lh	x19,-82(x5)
    8000387c:	019fec33          	or	x24,x31,x25
    80003880:	400106b7          	lui	x13,0x40010
    80003884:	00d686b3          	add	x13,x13,x13
    80003888:	0816c883          	lbu	x17,129(x13) # 40010081 <_binary_lab4_test_bin_size+0x3ffeff75>
    8000388c:	0028883b          	addw	x16,x17,x2
    80003890:	ac4efa93          	andi	x21,x29,-1340
    80003894:	40010c37          	lui	x24,0x40010
    80003898:	018c0c33          	add	x24,x24,x24
    8000389c:	100c0c13          	addi	x24,x24,256 # 40010100 <_binary_lab4_test_bin_size+0x3ffefff4>
    800038a0:	f5fc4283          	lbu	x5,-161(x24)
    800038a4:	4050823b          	subw	x4,x1,x5
    800038a8:	00148eb3          	add	x29,x9,x1
    800038ac:	01836ab3          	or	x21,x6,x24
    800038b0:	40010db7          	lui	x27,0x40010
    800038b4:	01bd8db3          	add	x27,x27,x27
    800038b8:	08ad9c83          	lh	x25,138(x27) # 4001008a <_binary_lab4_test_bin_size+0x3ffeff7e>
    800038bc:	012c8833          	add	x16,x25,x18
    800038c0:	400108b7          	lui	x17,0x40010
    800038c4:	011888b3          	add	x17,x17,x17
    800038c8:	0a48c403          	lbu	x8,164(x17) # 400100a4 <_binary_lab4_test_bin_size+0x3ffeff98>
    800038cc:	400106b7          	lui	x13,0x40010
    800038d0:	00d686b3          	add	x13,x13,x13
    800038d4:	10068693          	addi	x13,x13,256 # 40010100 <_binary_lab4_test_bin_size+0x3ffefff4>
    800038d8:	f8f684a3          	sb	x15,-119(x13)
    800038dc:	403007bb          	negw	x15,x3
    800038e0:	344eeef3          	csrrsi	x29,mip,29
    800038e4:	40010537          	lui	x10,0x40010
    800038e8:	00a50533          	add	x10,x10,x10
    800038ec:	10050513          	addi	x10,x10,256 # 40010100 <_binary_lab4_test_bin_size+0x3ffefff4>
    800038f0:	f35505a3          	sb	x21,-213(x10)
    800038f4:	0185f033          	and	x0,x11,x24
    800038f8:	304b9a73          	csrrw	x20,mie,x23
    800038fc:	f7f08e93          	addi	x29,x1,-129
    80003900:	400107b7          	lui	x15,0x40010
    80003904:	00f787b3          	add	x15,x15,x15
    80003908:	0c678d83          	lb	x27,198(x15) # 400100c6 <_binary_lab4_test_bin_size+0x3ffeffba>
    8000390c:	40010eb7          	lui	x29,0x40010
    80003910:	01de8eb3          	add	x29,x29,x29
    80003914:	0cfeaa23          	sw	x15,212(x29) # 400100d4 <_binary_lab4_test_bin_size+0x3ffeffc8>
    80003918:	40b203b3          	sub	x7,x4,x11
    8000391c:	400105b7          	lui	x11,0x40010
    80003920:	00b585b3          	add	x11,x11,x11
    80003924:	10058593          	addi	x11,x11,256 # 40010100 <_binary_lab4_test_bin_size+0x3ffefff4>
    80003928:	fa85b503          	ld	x10,-88(x11)
    8000392c:	34954f93          	xori	x31,x10,841
    80003930:	40010a37          	lui	x20,0x40010
    80003934:	014a0a33          	add	x20,x20,x20
    80003938:	0a4a2e23          	sw	x4,188(x20) # 400100bc <_binary_lab4_test_bin_size+0x3ffeffb0>
    8000393c:	400102b7          	lui	x5,0x40010
    80003940:	005282b3          	add	x5,x5,x5
    80003944:	0dc2e183          	lwu	x3,220(x5) # 400100dc <_binary_lab4_test_bin_size+0x3ffeffd0>
    80003948:	003c4fb3          	xor	x31,x24,x3
    8000394c:	479d6a93          	ori	x21,x26,1145
    80003950:	305ad9f3          	csrrwi	x19,mtvec,21
    80003954:	34245073          	csrwi	mcause,8
    80003958:	01378633          	add	x12,x15,x19
    8000395c:	304e7af3          	csrrci	x21,mie,28
    80003960:	341b56f3          	csrrwi	x13,mepc,22
    80003964:	304efc73          	csrrci	x24,mie,29
    80003968:	40010737          	lui	x14,0x40010
    8000396c:	00e70733          	add	x14,x14,x14
    80003970:	02c74303          	lbu	x6,44(x14) # 4001002c <_binary_lab4_test_bin_size+0x3ffeff20>
    80003974:	01f37433          	and	x8,x6,x31
    80003978:	40010137          	lui	x2,0x40010
    8000397c:	00210133          	add	x2,x2,x2
    80003980:	10010113          	addi	x2,x2,256 # 40010100 <_binary_lab4_test_bin_size+0x3ffefff4>
    80003984:	f2e11f23          	sh	x14,-194(x2)
    80003988:	40010837          	lui	x16,0x40010
    8000398c:	01080833          	add	x16,x16,x16
    80003990:	10080813          	addi	x16,x16,256 # 40010100 <_binary_lab4_test_bin_size+0x3ffefff4>
    80003994:	f8a82c23          	sw	x10,-104(x16)
    80003998:	012484bb          	addw	x9,x9,x18
    8000399c:	5440eb13          	ori	x22,x1,1348
    800039a0:	400105b7          	lui	x11,0x40010
    800039a4:	00b585b3          	add	x11,x11,x11
    800039a8:	0d85a003          	lw	x0,216(x11) # 400100d8 <_binary_lab4_test_bin_size+0x3ffeffcc>
    800039ac:	40010f37          	lui	x30,0x40010
    800039b0:	01ef0f33          	add	x30,x30,x30
    800039b4:	044f0e03          	lb	x28,68(x30) # 40010044 <_binary_lab4_test_bin_size+0x3ffeff38>
    800039b8:	005e4c33          	xor	x24,x28,x5
    800039bc:	01f87133          	and	x2,x16,x31
    800039c0:	40010937          	lui	x18,0x40010
    800039c4:	01290933          	add	x18,x18,x18
    800039c8:	03c95203          	lhu	x4,60(x18) # 4001003c <_binary_lab4_test_bin_size+0x3ffeff30>
    800039cc:	40920db3          	sub	x27,x4,x9
    800039d0:	305c78f3          	csrrci	x17,mtvec,24
    800039d4:	40010db7          	lui	x27,0x40010
    800039d8:	01bd8db3          	add	x27,x27,x27
    800039dc:	100d8d93          	addi	x27,x27,256 # 40010100 <_binary_lab4_test_bin_size+0x3ffefff4>
    800039e0:	ff0dd103          	lhu	x2,-16(x27)
    800039e4:	41878133          	sub	x2,x15,x24
    800039e8:	ffc0f993          	andi	x19,x1,-4
    800039ec:	304875f3          	csrrci	x11,mie,16
    800039f0:	40010437          	lui	x8,0x40010
    800039f4:	00840433          	add	x8,x8,x8
    800039f8:	02e44d83          	lbu	x27,46(x8) # 4001002e <_binary_lab4_test_bin_size+0x3ffeff22>
    800039fc:	01c18433          	add	x8,x3,x28
    80003a00:	00fa76b3          	and	x13,x20,x15
    80003a04:	41fb0bbb          	subw	x23,x22,x31
    80003a08:	40010b37          	lui	x22,0x40010
    80003a0c:	016b0b33          	add	x22,x22,x22
    80003a10:	100b6703          	lwu	x14,256(x22) # 40010100 <_binary_lab4_test_bin_size+0x3ffefff4>
    80003a14:	3426f873          	csrrci	x16,mcause,13
    80003a18:	002e8ab3          	add	x21,x29,x2
    80003a1c:	40010137          	lui	x2,0x40010
    80003a20:	00210133          	add	x2,x2,x2
    80003a24:	02114a83          	lbu	x21,33(x2) # 40010021 <_binary_lab4_test_bin_size+0x3ffeff15>
    80003a28:	41f28ebb          	subw	x29,x5,x31
    80003a2c:	e4108193          	addi	x3,x1,-447
    80003a30:	40010137          	lui	x2,0x40010
    80003a34:	00210133          	add	x2,x2,x2
    80003a38:	10010113          	addi	x2,x2,256 # 40010100 <_binary_lab4_test_bin_size+0x3ffefff4>
    80003a3c:	f7211003          	lh	x0,-142(x2)
    80003a40:	0078e1b3          	or	x3,x17,x7
    80003a44:	400105b7          	lui	x11,0x40010
    80003a48:	00b585b3          	add	x11,x11,x11
    80003a4c:	10058593          	addi	x11,x11,256 # 40010100 <_binary_lab4_test_bin_size+0x3ffefff4>
    80003a50:	f4059f83          	lh	x31,-192(x11)
    80003a54:	004ff7b3          	and	x15,x31,x4
    80003a58:	a4ff4b93          	xori	x23,x30,-1457
    80003a5c:	011380bb          	addw	x1,x7,x17
    80003a60:	40010e37          	lui	x28,0x40010
    80003a64:	01ce0e33          	add	x28,x28,x28
    80003a68:	100e0e13          	addi	x28,x28,256 # 40010100 <_binary_lab4_test_bin_size+0x3ffefff4>
    80003a6c:	f80e2023          	sw	x0,-128(x28)
    80003a70:	400100b7          	lui	x1,0x40010
    80003a74:	001080b3          	add	x1,x1,x1
    80003a78:	10008093          	addi	x1,x1,256 # 40010100 <_binary_lab4_test_bin_size+0x3ffefff4>
    80003a7c:	f300c303          	lbu	x6,-208(x1)
    80003a80:	400101b7          	lui	x3,0x40010
    80003a84:	003181b3          	add	x3,x3,x3
    80003a88:	10018193          	addi	x3,x3,256 # 40010100 <_binary_lab4_test_bin_size+0x3ffefff4>
    80003a8c:	fa01b983          	ld	x19,-96(x3)
    80003a90:	343b1cf3          	csrrw	x25,mtval,x22
    80003a94:	42777193          	andi	x3,x14,1063
    80003a98:	342213f3          	csrrw	x7,mcause,x4
    80003a9c:	40010db7          	lui	x27,0x40010
    80003aa0:	01bd8db3          	add	x27,x27,x27
    80003aa4:	100d8d93          	addi	x27,x27,256 # 40010100 <_binary_lab4_test_bin_size+0x3ffefff4>
    80003aa8:	f82dd603          	lhu	x12,-126(x27)
    80003aac:	01cfc633          	xor	x12,x31,x28
    80003ab0:	40010d37          	lui	x26,0x40010
    80003ab4:	01ad0d33          	add	x26,x26,x26
    80003ab8:	100d0d13          	addi	x26,x26,256 # 40010100 <_binary_lab4_test_bin_size+0x3ffefff4>
    80003abc:	f28d3283          	ld	x5,-216(x26)
    80003ac0:	40538833          	sub	x16,x7,x5
    80003ac4:	40010e37          	lui	x28,0x40010
    80003ac8:	01ce0e33          	add	x28,x28,x28
    80003acc:	100e0e13          	addi	x28,x28,256 # 40010100 <_binary_lab4_test_bin_size+0x3ffefff4>
    80003ad0:	ff5e3c23          	sd	x21,-8(x28)
    80003ad4:	400108b7          	lui	x17,0x40010
    80003ad8:	011888b3          	add	x17,x17,x17
    80003adc:	10088893          	addi	x17,x17,256 # 40010100 <_binary_lab4_test_bin_size+0x3ffefff4>
    80003ae0:	f8488d83          	lb	x27,-124(x17)
    80003ae4:	fb4ded93          	ori	x27,x27,-76
    80003ae8:	ff224b13          	xori	x22,x4,-14
    80003aec:	00ae83b3          	add	x7,x29,x10
    80003af0:	40010237          	lui	x4,0x40010
    80003af4:	00420233          	add	x4,x4,x4
    80003af8:	10020213          	addi	x4,x4,256 # 40010100 <_binary_lab4_test_bin_size+0x3ffefff4>
    80003afc:	f3b23823          	sd	x27,-208(x4) # ffffffffffffff30 <_binary_lab4_test_bin_end+0xffffffff7ffdfe24>
    80003b00:	30415c73          	csrrwi	x24,mie,2
    80003b04:	6074f393          	andi	x7,x9,1543
    80003b08:	013b08b3          	add	x17,x22,x19
    80003b0c:	400105b7          	lui	x11,0x40010
    80003b10:	00b585b3          	add	x11,x11,x11
    80003b14:	0485b783          	ld	x15,72(x11) # 40010048 <_binary_lab4_test_bin_size+0x3ffeff3c>
    80003b18:	e5e4071b          	addiw	x14,x8,-418
    80003b1c:	18784113          	xori	x2,x16,391
    80003b20:	40010f37          	lui	x30,0x40010
    80003b24:	01ef0f33          	add	x30,x30,x30
    80003b28:	017f03a3          	sb	x23,7(x30) # 40010007 <_binary_lab4_test_bin_size+0x3ffefefb>
    80003b2c:	40010837          	lui	x16,0x40010
    80003b30:	01080833          	add	x16,x16,x16
    80003b34:	10080813          	addi	x16,x16,256 # 40010100 <_binary_lab4_test_bin_size+0x3ffefff4>
    80003b38:	f3685783          	lhu	x15,-202(x16)
    80003b3c:	01e64f33          	xor	x30,x12,x30
    80003b40:	40010b37          	lui	x22,0x40010
    80003b44:	016b0b33          	add	x22,x22,x22
    80003b48:	04cb6a03          	lwu	x20,76(x22) # 4001004c <_binary_lab4_test_bin_size+0x3ffeff40>
    80003b4c:	41a18a3b          	subw	x20,x3,x26
    80003b50:	8484009b          	addiw	x1,x8,-1976
    80003b54:	40d3883b          	subw	x16,x7,x13
    80003b58:	3440edf3          	csrrsi	x27,mip,1
    80003b5c:	40010437          	lui	x8,0x40010
    80003b60:	00840433          	add	x8,x8,x8
    80003b64:	0e740703          	lb	x14,231(x8) # 400100e7 <_binary_lab4_test_bin_size+0x3ffeffdb>
    80003b68:	40d0873b          	subw	x14,x1,x13
    80003b6c:	f7497e93          	andi	x29,x18,-140
    80003b70:	40010db7          	lui	x27,0x40010
    80003b74:	01bd8db3          	add	x27,x27,x27
    80003b78:	01edb823          	sd	x30,16(x27) # 40010010 <_binary_lab4_test_bin_size+0x3ffeff04>
    80003b7c:	00bac633          	xor	x12,x21,x11
    80003b80:	40010bb7          	lui	x23,0x40010
    80003b84:	017b8bb3          	add	x23,x23,x23
    80003b88:	0b0bac83          	lw	x25,176(x23) # 400100b0 <_binary_lab4_test_bin_size+0x3ffeffa4>
    80003b8c:	019105b3          	add	x11,x2,x25
    80003b90:	01a0c4b3          	xor	x9,x1,x26
    80003b94:	400103b7          	lui	x7,0x40010
    80003b98:	007383b3          	add	x7,x7,x7
    80003b9c:	04c3a703          	lw	x14,76(x7) # 4001004c <_binary_lab4_test_bin_size+0x3ffeff40>
    80003ba0:	013a0733          	add	x14,x20,x19
    80003ba4:	00600abb          	addw	x21,x0,x6
    80003ba8:	01fbebb3          	or	x23,x23,x31
    80003bac:	40b1873b          	subw	x14,x3,x11
    80003bb0:	20477f13          	andi	x30,x14,516
    80003bb4:	0121c133          	xor	x2,x3,x18
    80003bb8:	014166b3          	or	x13,x2,x20
    80003bbc:	45b5ee13          	ori	x28,x11,1115
    80003bc0:	342f6773          	csrrsi	x14,mcause,30
    80003bc4:	c5c1e013          	ori	x0,x3,-932
    80003bc8:	0102eeb3          	or	x29,x5,x16
    80003bcc:	40010b37          	lui	x22,0x40010
    80003bd0:	016b0b33          	add	x22,x22,x22
    80003bd4:	100b0b13          	addi	x22,x22,256 # 40010100 <_binary_lab4_test_bin_size+0x3ffefff4>
    80003bd8:	ff8b2a83          	lw	x21,-8(x22)
    80003bdc:	00096ab3          	or	x21,x18,x0
    80003be0:	341cf473          	csrrci	x8,mepc,25
    80003be4:	40010337          	lui	x6,0x40010
    80003be8:	00630333          	add	x6,x6,x6
    80003bec:	10030313          	addi	x6,x6,256 # 40010100 <_binary_lab4_test_bin_size+0x3ffefff4>
    80003bf0:	f0436303          	lwu	x6,-252(x6)
    80003bf4:	40ab8133          	sub	x2,x23,x10
    80003bf8:	001548b3          	xor	x17,x10,x1
    80003bfc:	0850089b          	addiw	x17,x0,133
    80003c00:	1130eb93          	ori	x23,x1,275
    80003c04:	40010a37          	lui	x20,0x40010
    80003c08:	014a0a33          	add	x20,x20,x20
    80003c0c:	100a0a13          	addi	x20,x20,256 # 40010100 <_binary_lab4_test_bin_size+0x3ffefff4>
    80003c10:	f67a3023          	sd	x7,-160(x20)
    80003c14:	41448133          	sub	x2,x9,x20
    80003c18:	40010c37          	lui	x24,0x40010
    80003c1c:	018c0c33          	add	x24,x24,x24
    80003c20:	100c0c13          	addi	x24,x24,256 # 40010100 <_binary_lab4_test_bin_size+0x3ffefff4>
    80003c24:	f9bc2823          	sw	x27,-112(x24)
    80003c28:	16e2fa13          	andi	x20,x5,366
    80003c2c:	343451f3          	csrrwi	x3,mtval,8
    80003c30:	40010537          	lui	x10,0x40010
    80003c34:	00a50533          	add	x10,x10,x10
    80003c38:	02452f83          	lw	x31,36(x10) # 40010024 <_binary_lab4_test_bin_size+0x3ffeff18>
    80003c3c:	01528fb3          	add	x31,x5,x21
    80003c40:	407080bb          	subw	x1,x1,x7
    80003c44:	40010337          	lui	x6,0x40010
    80003c48:	00630333          	add	x6,x6,x6
    80003c4c:	05033303          	ld	x6,80(x6) # 40010050 <_binary_lab4_test_bin_size+0x3ffeff44>
    80003c50:	40010eb7          	lui	x29,0x40010
    80003c54:	01de8eb3          	add	x29,x29,x29
    80003c58:	042e8d83          	lb	x27,66(x29) # 40010042 <_binary_lab4_test_bin_size+0x3ffeff36>
    80003c5c:	016afdb3          	and	x27,x21,x22
    80003c60:	3432ee73          	csrrsi	x28,mtval,5
    80003c64:	34311573          	csrrw	x10,mtval,x2
    80003c68:	41a30cbb          	subw	x25,x6,x26
    80003c6c:	002a0933          	add	x18,x20,x2
    80003c70:	344beb73          	csrrsi	x22,mip,23
    80003c74:	2c5a6213          	ori	x4,x20,709
    80003c78:	40010437          	lui	x8,0x40010
    80003c7c:	00840433          	add	x8,x8,x8
    80003c80:	0a046083          	lwu	x1,160(x8) # 400100a0 <_binary_lab4_test_bin_size+0x3ffeff94>
    80003c84:	2ea18d1b          	addiw	x26,x3,746
    80003c88:	40010937          	lui	x18,0x40010
    80003c8c:	01290933          	add	x18,x18,x18
    80003c90:	10090913          	addi	x18,x18,256 # 40010100 <_binary_lab4_test_bin_size+0x3ffefff4>
    80003c94:	f4c90623          	sb	x12,-180(x18)
    80003c98:	40010d37          	lui	x26,0x40010
    80003c9c:	01ad0d33          	add	x26,x26,x26
    80003ca0:	100d0d13          	addi	x26,x26,256 # 40010100 <_binary_lab4_test_bin_size+0x3ffefff4>
    80003ca4:	f73d3c23          	sd	x19,-136(x26)
    80003ca8:	c6b10b13          	addi	x22,x2,-917
    80003cac:	ea876f13          	ori	x30,x14,-344
    80003cb0:	41bd0133          	sub	x2,x26,x27
    80003cb4:	d20d6813          	ori	x16,x26,-736
    80003cb8:	013383bb          	addw	x7,x7,x19
    80003cbc:	400102b7          	lui	x5,0x40010
    80003cc0:	005282b3          	add	x5,x5,x5
    80003cc4:	04128383          	lb	x7,65(x5) # 40010041 <_binary_lab4_test_bin_size+0x3ffeff35>
    80003cc8:	0030833b          	addw	x6,x1,x3
    80003ccc:	400107b7          	lui	x15,0x40010
    80003cd0:	00f787b3          	add	x15,x15,x15
    80003cd4:	0fa79483          	lh	x9,250(x15) # 400100fa <_binary_lab4_test_bin_size+0x3ffeffee>
    80003cd8:	c1e47b13          	andi	x22,x8,-994
    80003cdc:	bcec8b9b          	addiw	x23,x25,-1074
    80003ce0:	400107b7          	lui	x15,0x40010
    80003ce4:	00f787b3          	add	x15,x15,x15
    80003ce8:	0ce7d683          	lhu	x13,206(x15) # 400100ce <_binary_lab4_test_bin_size+0x3ffeffc2>
    80003cec:	00068fbb          	addw	x31,x13,x0
    80003cf0:	01f40d33          	add	x26,x8,x31
    80003cf4:	40010437          	lui	x8,0x40010
    80003cf8:	00840433          	add	x8,x8,x8
    80003cfc:	10040413          	addi	x8,x8,256 # 40010100 <_binary_lab4_test_bin_size+0x3ffefff4>
    80003d00:	fb741223          	sh	x23,-92(x8)
    80003d04:	400103b7          	lui	x7,0x40010
    80003d08:	007383b3          	add	x7,x7,x7
    80003d0c:	10038393          	addi	x7,x7,256 # 40010100 <_binary_lab4_test_bin_size+0x3ffefff4>
    80003d10:	fc43a583          	lw	x11,-60(x7)
    80003d14:	0125f333          	and	x6,x11,x18
    80003d18:	400109b7          	lui	x19,0x40010
    80003d1c:	013989b3          	add	x19,x19,x19
    80003d20:	0a898303          	lb	x6,168(x19) # 400100a8 <_binary_lab4_test_bin_size+0x3ffeff9c>
    80003d24:	4050833b          	subw	x6,x1,x5
    80003d28:	40010137          	lui	x2,0x40010
    80003d2c:	00210133          	add	x2,x2,x2
    80003d30:	10010113          	addi	x2,x2,256 # 40010100 <_binary_lab4_test_bin_size+0x3ffefff4>
    80003d34:	f9d12423          	sw	x29,-120(x2)
    80003d38:	1c044f93          	xori	x31,x8,448
    80003d3c:	40010fb7          	lui	x31,0x40010
    80003d40:	01ff8fb3          	add	x31,x31,x31
    80003d44:	002fcc03          	lbu	x24,2(x31) # 40010002 <_binary_lab4_test_bin_size+0x3ffefef6>
    80003d48:	00a0fc33          	and	x24,x1,x10
    80003d4c:	40010e37          	lui	x28,0x40010
    80003d50:	01ce0e33          	add	x28,x28,x28
    80003d54:	100e0e13          	addi	x28,x28,256 # 40010100 <_binary_lab4_test_bin_size+0x3ffefff4>
    80003d58:	f04e6383          	lwu	x7,-252(x28)
    80003d5c:	0073cf33          	xor	x30,x7,x7
    80003d60:	40010e37          	lui	x28,0x40010
    80003d64:	01ce0e33          	add	x28,x28,x28
    80003d68:	100e0e13          	addi	x28,x28,256 # 40010100 <_binary_lab4_test_bin_size+0x3ffefff4>
    80003d6c:	ff4e5b83          	lhu	x23,-12(x28)
    80003d70:	017371b3          	and	x3,x6,x23
    80003d74:	01f3c1b3          	xor	x3,x7,x31
    80003d78:	3430f573          	csrrci	x10,mtval,1
    80003d7c:	001d8a3b          	addw	x20,x27,x1
    80003d80:	48d7c793          	xori	x15,x15,1165
    80003d84:	40010737          	lui	x14,0x40010
    80003d88:	00e70733          	add	x14,x14,x14
    80003d8c:	0b873503          	ld	x10,184(x14) # 400100b8 <_binary_lab4_test_bin_size+0x3ffeffac>
    80003d90:	13457493          	andi	x9,x10,308
    80003d94:	342e9ef3          	csrrw	x29,mcause,x29
    80003d98:	fe670193          	addi	x3,x14,-26
    80003d9c:	85d20513          	addi	x10,x4,-1955 # fffffffffffff85d <_binary_lab4_test_bin_end+0xffffffff7ffdf751>
    80003da0:	40010137          	lui	x2,0x40010
    80003da4:	00210133          	add	x2,x2,x2
    80003da8:	08c16583          	lwu	x11,140(x2) # 4001008c <_binary_lab4_test_bin_size+0x3ffeff80>
    80003dac:	01e58dbb          	addw	x27,x11,x30
    80003db0:	343eedf3          	csrrsi	x27,mtval,29
    80003db4:	400103b7          	lui	x7,0x40010
    80003db8:	007383b3          	add	x7,x7,x7
    80003dbc:	10038393          	addi	x7,x7,256 # 40010100 <_binary_lab4_test_bin_size+0x3ffefff4>
    80003dc0:	f8038683          	lb	x13,-128(x7)
    80003dc4:	cd737593          	andi	x11,x6,-809
    80003dc8:	7b9dfb93          	andi	x23,x27,1977
    80003dcc:	5f1b8693          	addi	x13,x23,1521
    80003dd0:	90274493          	xori	x9,x14,-1790
    80003dd4:	007e8433          	add	x8,x29,x7
    80003dd8:	4042093b          	subw	x18,x4,x4
    80003ddc:	40010b37          	lui	x22,0x40010
    80003de0:	016b0b33          	add	x22,x22,x22
    80003de4:	100b0b13          	addi	x22,x22,256 # 40010100 <_binary_lab4_test_bin_size+0x3ffefff4>
    80003de8:	fbcb0e83          	lb	x29,-68(x22)
    80003dec:	55b86c13          	ori	x24,x16,1371
    80003df0:	40010bb7          	lui	x23,0x40010
    80003df4:	017b8bb3          	add	x23,x23,x23
    80003df8:	01eb8323          	sb	x30,6(x23) # 40010006 <_binary_lab4_test_bin_size+0x3ffefefa>
    80003dfc:	cb717713          	andi	x14,x2,-841
    80003e00:	305568f3          	csrrsi	x17,mtvec,10
    80003e04:	30475d73          	csrrwi	x26,mie,14
    80003e08:	002efeb3          	and	x29,x29,x2
    80003e0c:	40010ab7          	lui	x21,0x40010
    80003e10:	015a8ab3          	add	x21,x21,x21
    80003e14:	09eace83          	lbu	x29,158(x21) # 4001009e <_binary_lab4_test_bin_size+0x3ffeff92>
    80003e18:	01d98e3b          	addw	x28,x19,x29
    80003e1c:	344c1c73          	csrrw	x24,mip,x24
    80003e20:	40010337          	lui	x6,0x40010
    80003e24:	00630333          	add	x6,x6,x6
    80003e28:	10030313          	addi	x6,x6,256 # 40010100 <_binary_lab4_test_bin_size+0x3ffefff4>
    80003e2c:	f7a32823          	sw	x26,-144(x6)
    80003e30:	40010c37          	lui	x24,0x40010
    80003e34:	018c0c33          	add	x24,x24,x24
    80003e38:	100c0c13          	addi	x24,x24,256 # 40010100 <_binary_lab4_test_bin_size+0x3ffefff4>
    80003e3c:	f94c2703          	lw	x14,-108(x24)
    80003e40:	3437d9f3          	csrrwi	x19,mtval,15
    80003e44:	305c7973          	csrrci	x18,mtvec,24
    80003e48:	5e338213          	addi	x4,x7,1507
    80003e4c:	9109fc13          	andi	x24,x19,-1776
    80003e50:	01d08bb3          	add	x23,x1,x29
    80003e54:	341be3f3          	csrrsi	x7,mepc,23
    80003e58:	400103b7          	lui	x7,0x40010
    80003e5c:	007383b3          	add	x7,x7,x7
    80003e60:	0f83d303          	lhu	x6,248(x7) # 400100f8 <_binary_lab4_test_bin_size+0x3ffeffec>
    80003e64:	407300b3          	sub	x1,x6,x7
    80003e68:	30517c73          	csrrci	x24,mtvec,2
    80003e6c:	40d787b3          	sub	x15,x15,x13
    80003e70:	01fe46b3          	xor	x13,x28,x31
    80003e74:	75d00d13          	li	x26,1885
    80003e78:	40010f37          	lui	x30,0x40010
    80003e7c:	01ef0f33          	add	x30,x30,x30
    80003e80:	0d0f6f83          	lwu	x31,208(x30) # 400100d0 <_binary_lab4_test_bin_size+0x3ffeffc4>
    80003e84:	daf6e113          	ori	x2,x13,-593
    80003e88:	400101b7          	lui	x3,0x40010
    80003e8c:	003181b3          	add	x3,x3,x3
    80003e90:	10018193          	addi	x3,x3,256 # 40010100 <_binary_lab4_test_bin_size+0x3ffefff4>
    80003e94:	fc51a423          	sw	x5,-56(x3)
    80003e98:	93147b93          	andi	x23,x8,-1743
    80003e9c:	34336af3          	csrrsi	x21,mtval,6
    80003ea0:	ddc4811b          	addiw	x2,x9,-548
    80003ea4:	008282bb          	addw	x5,x5,x8
    80003ea8:	40010837          	lui	x16,0x40010
    80003eac:	01080833          	add	x16,x16,x16
    80003eb0:	05c85683          	lhu	x13,92(x16) # 4001005c <_binary_lab4_test_bin_size+0x3ffeff50>
    80003eb4:	002876b3          	and	x13,x16,x2
    80003eb8:	4019013b          	subw	x2,x18,x1
    80003ebc:	3449e873          	csrrsi	x16,mip,19
    80003ec0:	400106b7          	lui	x13,0x40010
    80003ec4:	00d686b3          	add	x13,x13,x13
    80003ec8:	0456a423          	sw	x5,72(x13) # 40010048 <_binary_lab4_test_bin_size+0x3ffeff3c>
    80003ecc:	40010ab7          	lui	x21,0x40010
    80003ed0:	015a8ab3          	add	x21,x21,x21
    80003ed4:	100a8a93          	addi	x21,x21,256 # 40010100 <_binary_lab4_test_bin_size+0x3ffefff4>
    80003ed8:	f20a9f83          	lh	x31,-224(x21)
    80003edc:	2d2f829b          	addiw	x5,x31,722
    80003ee0:	34ac6c93          	ori	x25,x24,842
    80003ee4:	40010a37          	lui	x20,0x40010
    80003ee8:	014a0a33          	add	x20,x20,x20
    80003eec:	02fa0283          	lb	x5,47(x20) # 4001002f <_binary_lab4_test_bin_size+0x3ffeff23>
    80003ef0:	b8b6e293          	ori	x5,x13,-1141
    80003ef4:	0071843b          	addw	x8,x3,x7
    80003ef8:	40010db7          	lui	x27,0x40010
    80003efc:	01bd8db3          	add	x27,x27,x27
    80003f00:	0bbda423          	sw	x27,168(x27) # 400100a8 <_binary_lab4_test_bin_size+0x3ffeff9c>
    80003f04:	f1444b93          	xori	x23,x8,-236
    80003f08:	40010cb7          	lui	x25,0x40010
    80003f0c:	019c8cb3          	add	x25,x25,x25
    80003f10:	090c9583          	lh	x11,144(x25) # 40010090 <_binary_lab4_test_bin_size+0x3ffeff84>
    80003f14:	1085c613          	xori	x12,x11,264
    80003f18:	34287273          	csrrci	x4,mcause,16
    80003f1c:	014585b3          	add	x11,x11,x20
    80003f20:	01ad7ab3          	and	x21,x26,x26
    80003f24:	0123853b          	addw	x10,x7,x18
    80003f28:	400102b7          	lui	x5,0x40010
    80003f2c:	005282b3          	add	x5,x5,x5
    80003f30:	02028823          	sb	x0,48(x5) # 40010030 <_binary_lab4_test_bin_size+0x3ffeff24>
    80003f34:	40010c37          	lui	x24,0x40010
    80003f38:	018c0c33          	add	x24,x24,x24
    80003f3c:	100c0c13          	addi	x24,x24,256 # 40010100 <_binary_lab4_test_bin_size+0x3ffefff4>
    80003f40:	f00c6f03          	lwu	x30,-256(x24)
    80003f44:	400108b7          	lui	x17,0x40010
    80003f48:	011888b3          	add	x17,x17,x17
    80003f4c:	10088893          	addi	x17,x17,256 # 40010100 <_binary_lab4_test_bin_size+0x3ffefff4>
    80003f50:	fd089223          	sh	x16,-60(x17)
    80003f54:	40010cb7          	lui	x25,0x40010
    80003f58:	019c8cb3          	add	x25,x25,x25
    80003f5c:	100c8c93          	addi	x25,x25,256 # 40010100 <_binary_lab4_test_bin_size+0x3ffefff4>
    80003f60:	ffcce383          	lwu	x7,-4(x25)
    80003f64:	40238c33          	sub	x24,x7,x2
    80003f68:	40630eb3          	sub	x29,x6,x6
    80003f6c:	010660b3          	or	x1,x12,x16
    80003f70:	15c76f13          	ori	x30,x14,348
    80003f74:	34435ef3          	csrrwi	x29,mip,6
    80003f78:	400106b7          	lui	x13,0x40010
    80003f7c:	00d686b3          	add	x13,x13,x13
    80003f80:	10068693          	addi	x13,x13,256 # 40010100 <_binary_lab4_test_bin_size+0x3ffefff4>
    80003f84:	fbe68683          	lb	x13,-66(x13)
    80003f88:	30465f73          	csrrwi	x30,mie,12
    80003f8c:	40010a37          	lui	x20,0x40010
    80003f90:	014a0a33          	add	x20,x20,x20
    80003f94:	0e2a3c23          	sd	x2,248(x20) # 400100f8 <_binary_lab4_test_bin_size+0x3ffeffec>
    80003f98:	01f98eb3          	add	x29,x19,x31
    80003f9c:	398e6c93          	ori	x25,x28,920
    80003fa0:	34359c73          	csrrw	x24,mtval,x11
    80003fa4:	34411373          	csrrw	x6,mip,x2
    80003fa8:	cd4c7a93          	andi	x21,x24,-812
    80003fac:	40010b37          	lui	x22,0x40010
    80003fb0:	016b0b33          	add	x22,x22,x22
    80003fb4:	04cb0a03          	lb	x20,76(x22) # 4001004c <_binary_lab4_test_bin_size+0x3ffeff40>
    80003fb8:	00c38dbb          	addw	x27,x7,x12
    80003fbc:	40010637          	lui	x12,0x40010
    80003fc0:	00c60633          	add	x12,x12,x12
    80003fc4:	10060613          	addi	x12,x12,256 # 40010100 <_binary_lab4_test_bin_size+0x3ffefff4>
    80003fc8:	f6064183          	lbu	x3,-160(x12)
    80003fcc:	00d96133          	or	x2,x18,x13
    80003fd0:	01b4e4b3          	or	x9,x9,x27
    80003fd4:	01c54bb3          	xor	x23,x10,x28
    80003fd8:	400100b7          	lui	x1,0x40010
    80003fdc:	001080b3          	add	x1,x1,x1
    80003fe0:	0da08a83          	lb	x21,218(x1) # 400100da <_binary_lab4_test_bin_size+0x3ffeffce>
    80003fe4:	e36a8a9b          	addiw	x21,x21,-458
    80003fe8:	40010237          	lui	x4,0x40010
    80003fec:	00420233          	add	x4,x4,x4
    80003ff0:	10020213          	addi	x4,x4,256 # 40010100 <_binary_lab4_test_bin_size+0x3ffefff4>
    80003ff4:	fe723023          	sd	x7,-32(x4) # ffffffffffffffe0 <_binary_lab4_test_bin_end+0xffffffff7ffdfed4>
    80003ff8:	00a460b3          	or	x1,x8,x10
    80003ffc:	40010437          	lui	x8,0x40010
    80004000:	00840433          	add	x8,x8,x8
    80004004:	10040413          	addi	x8,x8,256 # 40010100 <_binary_lab4_test_bin_size+0x3ffefff4>
    80004008:	f3540c83          	lb	x25,-203(x8)
    8000400c:	bcdccc93          	xori	x25,x25,-1075
    80004010:	400107b7          	lui	x15,0x40010
    80004014:	00f787b3          	add	x15,x15,x15
    80004018:	10078793          	addi	x15,x15,256 # 40010100 <_binary_lab4_test_bin_size+0x3ffefff4>
    8000401c:	fe178a23          	sb	x1,-12(x15)
    80004020:	97bc4c13          	xori	x24,x24,-1669
    80004024:	5a0afe93          	andi	x29,x21,1440
    80004028:	40010137          	lui	x2,0x40010
    8000402c:	00210133          	add	x2,x2,x2
    80004030:	07d14d03          	lbu	x26,125(x2) # 4001007d <_binary_lab4_test_bin_size+0x3ffeff71>
    80004034:	7f9d0d13          	addi	x26,x26,2041
    80004038:	3f5a4793          	xori	x15,x20,1013
    8000403c:	1b7e8313          	addi	x6,x29,439
    80004040:	603c6013          	ori	x0,x24,1539
    80004044:	419201b3          	sub	x3,x4,x25
    80004048:	40010ab7          	lui	x21,0x40010
    8000404c:	015a8ab3          	add	x21,x21,x21
    80004050:	0b8ab603          	ld	x12,184(x21) # 400100b8 <_binary_lab4_test_bin_size+0x3ffeffac>
    80004054:	9adc861b          	addiw	x12,x25,-1619
    80004058:	416200bb          	subw	x1,x4,x22
    8000405c:	30435ff3          	csrrwi	x31,mie,6
    80004060:	40010637          	lui	x12,0x40010
    80004064:	00c60633          	add	x12,x12,x12
    80004068:	0bc61b03          	lh	x22,188(x12) # 400100bc <_binary_lab4_test_bin_size+0x3ffeffb0>
    8000406c:	47eb069b          	addiw	x13,x22,1150
    80004070:	40010d37          	lui	x26,0x40010
    80004074:	01ad0d33          	add	x26,x26,x26
    80004078:	0a1d0aa3          	sb	x1,181(x26) # 400100b5 <_binary_lab4_test_bin_size+0x3ffeffa9>
    8000407c:	40010c37          	lui	x24,0x40010
    80004080:	018c0c33          	add	x24,x24,x24
    80004084:	100c0c13          	addi	x24,x24,256 # 40010100 <_binary_lab4_test_bin_size+0x3ffefff4>
    80004088:	f5cc4e03          	lbu	x28,-164(x24)
    8000408c:	41c58333          	sub	x6,x11,x28
    80004090:	00a8cb33          	xor	x22,x17,x10
    80004094:	3426de73          	csrrwi	x28,mcause,13
    80004098:	05b46f93          	ori	x31,x8,91
    8000409c:	3424f2f3          	csrrci	x5,mcause,9
    800040a0:	01b1803b          	addw	x0,x3,x27
    800040a4:	0029f6b3          	and	x13,x19,x2
    800040a8:	30596b73          	csrrsi	x22,mtvec,18
    800040ac:	40010bb7          	lui	x23,0x40010
    800040b0:	017b8bb3          	add	x23,x23,x23
    800040b4:	040bbd83          	ld	x27,64(x23) # 40010040 <_binary_lab4_test_bin_size+0x3ffeff34>
    800040b8:	0b130b1b          	addiw	x22,x6,177
    800040bc:	400100b7          	lui	x1,0x40010
    800040c0:	001080b3          	add	x1,x1,x1
    800040c4:	0ae09c83          	lh	x25,174(x1) # 400100ae <_binary_lab4_test_bin_size+0x3ffeffa2>
    800040c8:	016d7bb3          	and	x23,x26,x22
    800040cc:	400109b7          	lui	x19,0x40010
    800040d0:	013989b3          	add	x19,x19,x19
    800040d4:	0a89ed83          	lwu	x27,168(x19) # 400100a8 <_binary_lab4_test_bin_size+0x3ffeff9c>
    800040d8:	015d0633          	add	x12,x26,x21
    800040dc:	78127493          	andi	x9,x4,1921
    800040e0:	85254b93          	xori	x23,x10,-1966
    800040e4:	40010cb7          	lui	x25,0x40010
    800040e8:	019c8cb3          	add	x25,x25,x25
    800040ec:	0b0ca683          	lw	x13,176(x25) # 400100b0 <_binary_lab4_test_bin_size+0x3ffeffa4>
    800040f0:	30489673          	csrrw	x12,mie,x17
    800040f4:	40010237          	lui	x4,0x40010
    800040f8:	00420233          	add	x4,x4,x4
    800040fc:	10020213          	addi	x4,x4,256 # 40010100 <_binary_lab4_test_bin_size+0x3ffefff4>
    80004100:	f9d23823          	sd	x29,-112(x4) # ffffffffffffff90 <_binary_lab4_test_bin_end+0xffffffff7ffdfe84>
    80004104:	40010bb7          	lui	x23,0x40010
    80004108:	017b8bb3          	add	x23,x23,x23
    8000410c:	100b8b93          	addi	x23,x23,256 # 40010100 <_binary_lab4_test_bin_size+0x3ffefff4>
    80004110:	fe0be703          	lwu	x14,-32(x23)
    80004114:	407c0733          	sub	x14,x24,x7
    80004118:	3046f8f3          	csrrci	x17,mie,13
    8000411c:	0211f313          	andi	x6,x3,33
    80004120:	40010cb7          	lui	x25,0x40010
    80004124:	019c8cb3          	add	x25,x25,x25
    80004128:	100c8c93          	addi	x25,x25,256 # 40010100 <_binary_lab4_test_bin_size+0x3ffefff4>
    8000412c:	f5ccac03          	lw	x24,-164(x25)
    80004130:	40010137          	lui	x2,0x40010
    80004134:	00210133          	add	x2,x2,x2
    80004138:	03816183          	lwu	x3,56(x2) # 40010038 <_binary_lab4_test_bin_size+0x3ffeff2c>
    8000413c:	3418f373          	csrrci	x6,mepc,17
    80004140:	40010bb7          	lui	x23,0x40010
    80004144:	017b8bb3          	add	x23,x23,x23
    80004148:	0a8bb403          	ld	x8,168(x23) # 400100a8 <_binary_lab4_test_bin_size+0x3ffeff9c>
    8000414c:	9f044413          	xori	x8,x8,-1552
    80004150:	400103b7          	lui	x7,0x40010
    80004154:	007383b3          	add	x7,x7,x7
    80004158:	0a43e803          	lwu	x16,164(x7) # 400100a4 <_binary_lab4_test_bin_size+0x3ffeff98>
    8000415c:	00a86e33          	or	x28,x16,x10
    80004160:	a17e001b          	addiw	x0,x28,-1513
    80004164:	30436773          	csrrsi	x14,mie,6
    80004168:	400105b7          	lui	x11,0x40010
    8000416c:	00b585b3          	add	x11,x11,x11
    80004170:	10058593          	addi	x11,x11,256 # 40010100 <_binary_lab4_test_bin_size+0x3ffefff4>
    80004174:	f205e183          	lwu	x3,-224(x11)
    80004178:	d734fe93          	andi	x29,x9,-653
    8000417c:	40010a37          	lui	x20,0x40010
    80004180:	014a0a33          	add	x20,x20,x20
    80004184:	01ca2383          	lw	x7,28(x20) # 4001001c <_binary_lab4_test_bin_size+0x3ffeff10>
    80004188:	0072043b          	addw	x8,x4,x7
    8000418c:	d641e013          	ori	x0,x3,-668
    80004190:	fcba7113          	andi	x2,x20,-53
    80004194:	3424d0f3          	csrrwi	x1,mcause,9
    80004198:	00238133          	add	x2,x7,x2
    8000419c:	3411fcf3          	csrrci	x25,mepc,3
    800041a0:	40010237          	lui	x4,0x40010
    800041a4:	00420233          	add	x4,x4,x4
    800041a8:	10020213          	addi	x4,x4,256 # 40010100 <_binary_lab4_test_bin_size+0x3ffefff4>
    800041ac:	fe026903          	lwu	x18,-32(x4) # ffffffffffffffe0 <_binary_lab4_test_bin_end+0xffffffff7ffdfed4>
    800041b0:	012dc033          	xor	x0,x27,x18
    800041b4:	c8f34a13          	xori	x20,x6,-881
    800041b8:	4123023b          	subw	x4,x6,x18
    800041bc:	407389b3          	sub	x19,x7,x7
    800041c0:	3426e173          	csrrsi	x2,mcause,13
    800041c4:	40010337          	lui	x6,0x40010
    800041c8:	00630333          	add	x6,x6,x6
    800041cc:	0d433023          	sd	x20,192(x6) # 400100c0 <_binary_lab4_test_bin_size+0x3ffeffb4>
    800041d0:	a4578213          	addi	x4,x15,-1467
    800041d4:	341850f3          	csrrwi	x1,mepc,16
    800041d8:	40010337          	lui	x6,0x40010
    800041dc:	00630333          	add	x6,x6,x6
    800041e0:	10030313          	addi	x6,x6,256 # 40010100 <_binary_lab4_test_bin_size+0x3ffefff4>
    800041e4:	f1c35f03          	lhu	x30,-228(x6)
    800041e8:	011f0fbb          	addw	x31,x30,x17
    800041ec:	705e4413          	xori	x8,x28,1797
    800041f0:	400102b7          	lui	x5,0x40010
    800041f4:	005282b3          	add	x5,x5,x5
    800041f8:	0db28b83          	lb	x23,219(x5) # 400100db <_binary_lab4_test_bin_size+0x3ffeffcf>
    800041fc:	00bfcbb3          	xor	x23,x31,x11
    80004200:	341976f3          	csrrci	x13,mepc,18
    80004204:	00fbc333          	xor	x6,x23,x15
    80004208:	4780c313          	xori	x6,x1,1144
    8000420c:	40010c37          	lui	x24,0x40010
    80004210:	018c0c33          	add	x24,x24,x24
    80004214:	0a6c0003          	lb	x0,166(x24) # 400100a6 <_binary_lab4_test_bin_size+0x3ffeff9a>
    80004218:	40010a37          	lui	x20,0x40010
    8000421c:	014a0a33          	add	x20,x20,x20
    80004220:	009a2a23          	sw	x9,20(x20) # 40010014 <_binary_lab4_test_bin_size+0x3ffeff08>
    80004224:	00eef5b3          	and	x11,x29,x14
    80004228:	40010837          	lui	x16,0x40010
    8000422c:	01080833          	add	x16,x16,x16
    80004230:	10080813          	addi	x16,x16,256 # 40010100 <_binary_lab4_test_bin_size+0x3ffefff4>
    80004234:	fa680f03          	lb	x30,-90(x16)
    80004238:	749f6f13          	ori	x30,x30,1865
    8000423c:	40010337          	lui	x6,0x40010
