
/home/wib/arch_2026/26-Arch/ready-to-run/lab5/bonus_test.elf:     file format elf64-littleriscv


Disassembly of section .text:

0000000080000000 <_bonus_start>:
    80000000:	04200513          	li	a0,66
    80000004:	406005b7          	lui	a1,0x40600
    80000008:	0045859b          	addiw	a1,a1,4
    8000000c:	00a58023          	sb	a0,0(a1) # 40600000 <MAGIC+0x2e2ba988>
    80000010:	123452b7          	lui	t0,0x12345
    80000014:	6782829b          	addiw	t0,t0,1656
    80000018:	0410031b          	addiw	t1,zero,65
    8000001c:	01931313          	slli	t1,t1,0x19
    80000020:	00532023          	sw	t0,0(t1)
    80000024:	0410029b          	addiw	t0,zero,65
    80000028:	01929293          	slli	t0,t0,0x19
    8000002c:	00c2d293          	srli	t0,t0,0xc
    80000030:	00a29293          	slli	t0,t0,0xa
    80000034:	0cf00313          	li	t1,207
    80000038:	0062e2b3          	or	t0,t0,t1
    8000003c:	00040337          	lui	t1,0x40
    80000040:	0813031b          	addiw	t1,t1,129
    80000044:	00d31313          	slli	t1,t1,0xd
    80000048:	00533023          	sd	t0,0(t1) # 40000 <CSR_MEPC+0x3fcbf>
    8000004c:	000402b7          	lui	t0,0x40
    80000050:	0812829b          	addiw	t0,t0,129
    80000054:	00d29293          	slli	t0,t0,0xd
    80000058:	00c2d293          	srli	t0,t0,0xc
    8000005c:	00a29293          	slli	t0,t0,0xa
    80000060:	0012e293          	ori	t0,t0,1
    80000064:	00080337          	lui	t1,0x80
    80000068:	1013031b          	addiw	t1,t1,257
    8000006c:	00c31313          	slli	t1,t1,0xc
    80000070:	00533023          	sd	t0,0(t1) # 80000 <CSR_MEPC+0x7fcbf>
    80000074:	0410029b          	addiw	t0,zero,65
    80000078:	01929293          	slli	t0,t0,0x19
    8000007c:	0152d293          	srli	t0,t0,0x15
    80000080:	01329293          	slli	t0,t0,0x13
    80000084:	0cf00313          	li	t1,207
    80000088:	0062e2b3          	or	t0,t0,t1
    8000008c:	00080337          	lui	t1,0x80
    80000090:	1013031b          	addiw	t1,t1,257
    80000094:	00c31313          	slli	t1,t1,0xc
    80000098:	00533423          	sd	t0,8(t1) # 80008 <CSR_MEPC+0x7fcc7>
    8000009c:	000802b7          	lui	t0,0x80
    800000a0:	1012829b          	addiw	t0,t0,257
    800000a4:	00c29293          	slli	t0,t0,0xc
    800000a8:	00c2d293          	srli	t0,t0,0xc
    800000ac:	00a29293          	slli	t0,t0,0xa
    800000b0:	0012e293          	ori	t0,t0,1
    800000b4:	00001337          	lui	t1,0x1
    800000b8:	8013031b          	addiw	t1,t1,-2047
    800000bc:	01431313          	slli	t1,t1,0x14
    800000c0:	00533023          	sd	t0,0(t1) # 1000 <CSR_MEPC+0xcbf>
    800000c4:	00080437          	lui	s0,0x80
    800000c8:	1034041b          	addiw	s0,s0,259
    800000cc:	00c41413          	slli	s0,s0,0xc
    800000d0:	00c45413          	srli	s0,s0,0xc
    800000d4:	00a41413          	slli	s0,s0,0xa
    800000d8:	00146413          	ori	s0,s0,1
    800000dc:	000014b7          	lui	s1,0x1
    800000e0:	8014849b          	addiw	s1,s1,-2047
    800000e4:	01449493          	slli	s1,s1,0x14
    800000e8:	0084b823          	sd	s0,16(s1) # 1010 <CSR_MEPC+0xccf>
    800000ec:	0010041b          	addiw	s0,zero,1
    800000f0:	01f41413          	slli	s0,s0,0x1f
    800000f4:	01545413          	srli	s0,s0,0x15
    800000f8:	01341413          	slli	s0,s0,0x13
    800000fc:	0cf00493          	li	s1,207
    80000100:	00946433          	or	s0,s0,s1
    80000104:	000804b7          	lui	s1,0x80
    80000108:	1034849b          	addiw	s1,s1,259
    8000010c:	00c49493          	slli	s1,s1,0xc
    80000110:	0084b023          	sd	s0,0(s1) # 80000 <CSR_MEPC+0x7fcbf>
    80000114:	00033383          	ld	t2,0(t1)
    80000118:	40538e33          	sub	t3,t2,t0
    8000011c:	000e0c63          	beqz	t3,80000134 <_bonus_start+0x134>
    80000120:	04500513          	li	a0,69
    80000124:	406005b7          	lui	a1,0x40600
    80000128:	0045859b          	addiw	a1,a1,4
    8000012c:	00a58023          	sb	a0,0(a1) # 40600000 <MAGIC+0x2e2ba988>
    80000130:	0000006f          	j	80000130 <_bonus_start+0x130>
    80000134:	05600513          	li	a0,86
    80000138:	406005b7          	lui	a1,0x40600
    8000013c:	0045859b          	addiw	a1,a1,4
    80000140:	00a58023          	sb	a0,0(a1) # 40600000 <MAGIC+0x2e2ba988>
    80000144:	00001e37          	lui	t3,0x1
    80000148:	801e0e1b          	addiw	t3,t3,-2047
    8000014c:	014e1e13          	slli	t3,t3,0x14
    80000150:	010e3e83          	ld	t4,16(t3) # 1010 <CSR_MEPC+0xccf>
    80000154:	00080f37          	lui	t5,0x80
    80000158:	103f0f1b          	addiw	t5,t5,259
    8000015c:	00cf1f13          	slli	t5,t5,0xc
    80000160:	00cf5f13          	srli	t5,t5,0xc
    80000164:	00af1f13          	slli	t5,t5,0xa
    80000168:	001f6f13          	ori	t5,t5,1
    8000016c:	41ee8fb3          	sub	t6,t4,t5
    80000170:	000f8c63          	beqz	t6,80000188 <_bonus_start+0x188>
    80000174:	04600513          	li	a0,70
    80000178:	406005b7          	lui	a1,0x40600
    8000017c:	0045859b          	addiw	a1,a1,4
    80000180:	00a58023          	sb	a0,0(a1) # 40600000 <MAGIC+0x2e2ba988>
    80000184:	0000006f          	j	80000184 <_bonus_start+0x184>
    80000188:	000802b7          	lui	t0,0x80
    8000018c:	1012829b          	addiw	t0,t0,257
    80000190:	00c29293          	slli	t0,t0,0xc
    80000194:	0082b383          	ld	t2,8(t0) # 80008 <CSR_MEPC+0x7fcc7>
    80000198:	04100e1b          	addiw	t3,zero,65
    8000019c:	019e1e13          	slli	t3,t3,0x19
    800001a0:	015e5e13          	srli	t3,t3,0x15
    800001a4:	013e1e13          	slli	t3,t3,0x13
    800001a8:	0cf00e93          	li	t4,207
    800001ac:	01de6e33          	or	t3,t3,t4
    800001b0:	41c38f33          	sub	t5,t2,t3
    800001b4:	000f0c63          	beqz	t5,800001cc <_bonus_start+0x1cc>
    800001b8:	03200513          	li	a0,50
    800001bc:	406005b7          	lui	a1,0x40600
    800001c0:	0045859b          	addiw	a1,a1,4
    800001c4:	00a58023          	sb	a0,0(a1) # 40600000 <MAGIC+0x2e2ba988>
    800001c8:	0000006f          	j	800001c8 <_bonus_start+0x1c8>
    800001cc:	06800513          	li	a0,104
    800001d0:	406005b7          	lui	a1,0x40600
    800001d4:	0045859b          	addiw	a1,a1,4
    800001d8:	00a58023          	sb	a0,0(a1) # 40600000 <MAGIC+0x2e2ba988>
    800001dc:	00000297          	auipc	t0,0x0
    800001e0:	0dc28293          	addi	t0,t0,220 # 800002b8 <s_trap>
    800001e4:	10529073          	csrw	stvec,t0
    800001e8:	10000293          	li	t0,256
    800001ec:	30229073          	csrw	medeleg,t0
    800001f0:	000012b7          	lui	t0,0x1
    800001f4:	8002829b          	addiw	t0,t0,-2048
    800001f8:	30029073          	csrw	mstatus,t0
    800001fc:	00000297          	auipc	t0,0x0
    80000200:	01028293          	addi	t0,t0,16 # 8000020c <s_mode>
    80000204:	34129073          	csrw	mepc,t0
    80000208:	30200073          	mret

000000008000020c <s_mode>:
    8000020c:	000012b7          	lui	t0,0x1
    80000210:	8012829b          	addiw	t0,t0,-2047
    80000214:	01429293          	slli	t0,t0,0x14
    80000218:	00c2d293          	srli	t0,t0,0xc
    8000021c:	fff0031b          	addiw	t1,zero,-1
    80000220:	03f31313          	slli	t1,t1,0x3f
    80000224:	0062e2b3          	or	t0,t0,t1
    80000228:	18029073          	csrw	satp,t0
    8000022c:	12000073          	sfence.vma
    80000230:	00000313          	li	t1,0
    80000234:	00032383          	lw	t2,0(t1)
    80000238:	12345e37          	lui	t3,0x12345
    8000023c:	678e0e1b          	addiw	t3,t3,1656
    80000240:	41c38eb3          	sub	t4,t2,t3
    80000244:	04800913          	li	s2,72
    80000248:	000e8463          	beqz	t4,80000250 <s_mode+0x44>
    8000024c:	03400913          	li	s2,52
    80000250:	00200337          	lui	t1,0x200
    80000254:	00032383          	lw	t2,0(t1) # 200000 <VA_2M>
    80000258:	41c38eb3          	sub	t4,t2,t3
    8000025c:	06800993          	li	s3,104
    80000260:	000e8463          	beqz	t4,80000268 <s_mode+0x5c>
    80000264:	03200993          	li	s3,50
    80000268:	18001073          	csrw	satp,zero
    8000026c:	12000073          	sfence.vma
    80000270:	00090513          	mv	a0,s2
    80000274:	406005b7          	lui	a1,0x40600
    80000278:	0045859b          	addiw	a1,a1,4
    8000027c:	00a58023          	sb	a0,0(a1) # 40600000 <MAGIC+0x2e2ba988>
    80000280:	00098513          	mv	a0,s3
    80000284:	00a58023          	sb	a0,0(a1)
    80000288:	10001073          	csrw	sstatus,zero
    8000028c:	00000297          	auipc	t0,0x0
    80000290:	01028293          	addi	t0,t0,16 # 8000029c <u_mode>
    80000294:	14129073          	csrw	sepc,t0
    80000298:	10200073          	sret

000000008000029c <u_mode>:
    8000029c:	00000073          	ecall

00000000800002a0 <u_ret>:
    800002a0:	05000513          	li	a0,80
    800002a4:	406005b7          	lui	a1,0x40600
    800002a8:	0045859b          	addiw	a1,a1,4
    800002ac:	00a58023          	sb	a0,0(a1) # 40600000 <MAGIC+0x2e2ba988>
    800002b0:	00000513          	li	a0,0
    800002b4:	0005006b          	0x5006b

00000000800002b8 <s_trap>:
    800002b8:	142022f3          	csrr	t0,scause
    800002bc:	00800313          	li	t1,8
    800002c0:	02629263          	bne	t0,t1,800002e4 <st_fail>
    800002c4:	141022f3          	csrr	t0,sepc
    800002c8:	00428293          	addi	t0,t0,4
    800002cc:	14129073          	csrw	sepc,t0
    800002d0:	05300513          	li	a0,83
    800002d4:	406005b7          	lui	a1,0x40600
    800002d8:	0045859b          	addiw	a1,a1,4
    800002dc:	00a58023          	sb	a0,0(a1) # 40600000 <MAGIC+0x2e2ba988>
    800002e0:	10200073          	sret

00000000800002e4 <st_fail>:
    800002e4:	05800513          	li	a0,88
    800002e8:	406005b7          	lui	a1,0x40600
    800002ec:	0045859b          	addiw	a1,a1,4
    800002f0:	00a58023          	sb	a0,0(a1) # 40600000 <MAGIC+0x2e2ba988>
    800002f4:	10200073          	sret
